

Microchip MPLAB XC8 Assembler V2.40 build 20220703182018 
                                                                                               Tue Aug 01 23:08:47 2023

Microchip MPLAB XC8 C Compiler v2.40 (Free license) build 20220703182018 Og1 
     1                           	processor	16F887
     2                           	pagewidth 120
     3                           	opt	flic
     4                           	psect	cinit,global,class=CODE,merge=1,delta=2
     5                           	psect	bssBANK0,global,class=BANK0,space=1,delta=1,noexec
     6                           	psect	cstackBANK1,global,class=BANK1,space=1,delta=1,noexec
     7                           	psect	cstackCOMMON,global,class=COMMON,space=1,delta=1,noexec
     8                           	psect	cstackBANK0,global,class=BANK0,space=1,delta=1,noexec
     9                           	psect	maintext,global,class=CODE,split=1,delta=2
    10                           	psect	text1,local,class=CODE,merge=1,delta=2
    11                           	psect	text2,local,class=CODE,merge=1,delta=2
    12                           	psect	text3,local,class=CODE,merge=1,delta=2
    13                           	psect	text4,local,class=CODE,merge=1,delta=2,group=1
    14                           	psect	text5,local,class=CODE,merge=1,delta=2,group=1
    15                           	psect	text6,local,class=CODE,merge=1,delta=2,group=1
    16                           	psect	text7,local,class=CODE,merge=1,delta=2,group=1
    17                           	psect	text8,local,class=CODE,merge=1,delta=2
    18                           	psect	intentry,global,class=CODE,delta=2
    19                           	psect	text9,local,class=CODE,merge=1,delta=2
    20                           	psect	text10,local,class=CODE,merge=1,delta=2
    21                           	psect	text11,local,class=CODE,merge=1,delta=2
    22                           	psect	text12,local,class=CODE,merge=1,delta=2,group=1
    23                           	psect	idloc,global,abs,ovrld,class=IDLOC,space=5,delta=2,noexec
    24                           	psect	config,global,abs,ovrld,class=CONFIG,space=4,delta=2,noexec
    25                           	dabs	1,0x7E,2
    26     0000                     
    27                           ; Version 2.40
    28                           ; Generated 17/11/2021 GMT
    29                           ; 
    30                           ; Copyright © 2021, Microchip Technology Inc. and its subsidiaries ("Microchip")
    31                           ; All rights reserved.
    32                           ; 
    33                           ; This software is developed by Microchip Technology Inc. and its subsidiaries ("Microch
      +                          ip").
    34                           ; 
    35                           ; Redistribution and use in source and binary forms, with or without modification, are
    36                           ; permitted provided that the following conditions are met:
    37                           ; 
    38                           ;     1. Redistributions of source code must retain the above copyright notice, this lis
      +                          t of
    39                           ;        conditions and the following disclaimer.
    40                           ; 
    41                           ;     2. Redistributions in binary form must reproduce the above copyright notice, this 
      +                          list
    42                           ;        of conditions and the following disclaimer in the documentation and/or other
    43                           ;        materials provided with the distribution. Publication is not required when
    44                           ;        this file is used in an embedded application.
    45                           ; 
    46                           ;     3. Microchip's name may not be used to endorse or promote products derived from th
      +                          is
    47                           ;        software without specific prior written permission.
    48                           ; 
    49                           ; THIS SOFTWARE IS PROVIDED BY MICROCHIP "AS IS" AND ANY EXPRESS OR IMPLIED WARRANTIES,
    50                           ; INCLUDING, BUT NOT LIMITED TO, THE IMPLIED WARRANTIES OF MERCHANTABILITY AND FITNESS F
      +                          OR
    51                           ; PURPOSE ARE DISCLAIMED.  IN NO EVENT SHALL MICROCHIP BE LIABLE FOR ANY DIRECT, INDIREC
      +                          T,
    52                           ; INCIDENTAL, SPECIAL, EXEMPLARY, OR CONSEQUENTIAL DAMAGES (INCLUDING BUT NOT LIMITED TO
    53                           ; PROCUREMENT OF SUBSTITUTE GOODS OR SERVICES; LOSS OF USE, DATA OR PROFITS; OR BUSINESS
    54                           ; INTERRUPTION) HOWSOEVER CAUSED AND ON ANY THEORY OF LIABILITY, WHETHER IN CONTRACT, ST
      +                          RICT
    55                           ; LIABILITY, OR TORT (INCLUDING NEGLIGENCE OR OTHERWISE) ARISING IN ANY WAY OUT OF THE U
      +                          SE OF
    56                           ; THIS SOFTWARE, EVEN IF ADVISED OF THE POSSIBILITY OF SUCH DAMAGE.
    57                           ; 
    58                           ; 
    59                           ; Code-generator required, PIC16F887 Definitions
    60                           ; 
    61                           ; SFR Addresses
    62     0000                     	;# 
    63     0001                     	;# 
    64     0002                     	;# 
    65     0003                     	;# 
    66     0004                     	;# 
    67     0005                     	;# 
    68     0006                     	;# 
    69     0007                     	;# 
    70     0008                     	;# 
    71     0009                     	;# 
    72     000A                     	;# 
    73     000B                     	;# 
    74     000C                     	;# 
    75     000D                     	;# 
    76     000E                     	;# 
    77     000E                     	;# 
    78     000F                     	;# 
    79     0010                     	;# 
    80     0011                     	;# 
    81     0012                     	;# 
    82     0013                     	;# 
    83     0014                     	;# 
    84     0015                     	;# 
    85     0015                     	;# 
    86     0016                     	;# 
    87     0017                     	;# 
    88     0018                     	;# 
    89     0019                     	;# 
    90     001A                     	;# 
    91     001B                     	;# 
    92     001B                     	;# 
    93     001C                     	;# 
    94     001D                     	;# 
    95     001E                     	;# 
    96     001F                     	;# 
    97     0081                     	;# 
    98     0085                     	;# 
    99     0086                     	;# 
   100     0087                     	;# 
   101     0088                     	;# 
   102     0089                     	;# 
   103     008C                     	;# 
   104     008D                     	;# 
   105     008E                     	;# 
   106     008F                     	;# 
   107     0090                     	;# 
   108     0091                     	;# 
   109     0092                     	;# 
   110     0093                     	;# 
   111     0093                     	;# 
   112     0093                     	;# 
   113     0094                     	;# 
   114     0095                     	;# 
   115     0096                     	;# 
   116     0097                     	;# 
   117     0098                     	;# 
   118     0099                     	;# 
   119     009A                     	;# 
   120     009B                     	;# 
   121     009C                     	;# 
   122     009D                     	;# 
   123     009E                     	;# 
   124     009F                     	;# 
   125     0105                     	;# 
   126     0107                     	;# 
   127     0108                     	;# 
   128     0109                     	;# 
   129     010C                     	;# 
   130     010C                     	;# 
   131     010D                     	;# 
   132     010E                     	;# 
   133     010F                     	;# 
   134     0185                     	;# 
   135     0187                     	;# 
   136     0188                     	;# 
   137     0189                     	;# 
   138     018C                     	;# 
   139     018D                     	;# 
   140     0000                     	;# 
   141     0001                     	;# 
   142     0002                     	;# 
   143     0003                     	;# 
   144     0004                     	;# 
   145     0005                     	;# 
   146     0006                     	;# 
   147     0007                     	;# 
   148     0008                     	;# 
   149     0009                     	;# 
   150     000A                     	;# 
   151     000B                     	;# 
   152     000C                     	;# 
   153     000D                     	;# 
   154     000E                     	;# 
   155     000E                     	;# 
   156     000F                     	;# 
   157     0010                     	;# 
   158     0011                     	;# 
   159     0012                     	;# 
   160     0013                     	;# 
   161     0014                     	;# 
   162     0015                     	;# 
   163     0015                     	;# 
   164     0016                     	;# 
   165     0017                     	;# 
   166     0018                     	;# 
   167     0019                     	;# 
   168     001A                     	;# 
   169     001B                     	;# 
   170     001B                     	;# 
   171     001C                     	;# 
   172     001D                     	;# 
   173     001E                     	;# 
   174     001F                     	;# 
   175     0081                     	;# 
   176     0085                     	;# 
   177     0086                     	;# 
   178     0087                     	;# 
   179     0088                     	;# 
   180     0089                     	;# 
   181     008C                     	;# 
   182     008D                     	;# 
   183     008E                     	;# 
   184     008F                     	;# 
   185     0090                     	;# 
   186     0091                     	;# 
   187     0092                     	;# 
   188     0093                     	;# 
   189     0093                     	;# 
   190     0093                     	;# 
   191     0094                     	;# 
   192     0095                     	;# 
   193     0096                     	;# 
   194     0097                     	;# 
   195     0098                     	;# 
   196     0099                     	;# 
   197     009A                     	;# 
   198     009B                     	;# 
   199     009C                     	;# 
   200     009D                     	;# 
   201     009E                     	;# 
   202     009F                     	;# 
   203     0105                     	;# 
   204     0107                     	;# 
   205     0108                     	;# 
   206     0109                     	;# 
   207     010C                     	;# 
   208     010C                     	;# 
   209     010D                     	;# 
   210     010E                     	;# 
   211     010F                     	;# 
   212     0185                     	;# 
   213     0187                     	;# 
   214     0188                     	;# 
   215     0189                     	;# 
   216     018C                     	;# 
   217     018D                     	;# 
   218     0000                     	;# 
   219     0001                     	;# 
   220     0002                     	;# 
   221     0003                     	;# 
   222     0004                     	;# 
   223     0005                     	;# 
   224     0006                     	;# 
   225     0007                     	;# 
   226     0008                     	;# 
   227     0009                     	;# 
   228     000A                     	;# 
   229     000B                     	;# 
   230     000C                     	;# 
   231     000D                     	;# 
   232     000E                     	;# 
   233     000E                     	;# 
   234     000F                     	;# 
   235     0010                     	;# 
   236     0011                     	;# 
   237     0012                     	;# 
   238     0013                     	;# 
   239     0014                     	;# 
   240     0015                     	;# 
   241     0015                     	;# 
   242     0016                     	;# 
   243     0017                     	;# 
   244     0018                     	;# 
   245     0019                     	;# 
   246     001A                     	;# 
   247     001B                     	;# 
   248     001B                     	;# 
   249     001C                     	;# 
   250     001D                     	;# 
   251     001E                     	;# 
   252     001F                     	;# 
   253     0081                     	;# 
   254     0085                     	;# 
   255     0086                     	;# 
   256     0087                     	;# 
   257     0088                     	;# 
   258     0089                     	;# 
   259     008C                     	;# 
   260     008D                     	;# 
   261     008E                     	;# 
   262     008F                     	;# 
   263     0090                     	;# 
   264     0091                     	;# 
   265     0092                     	;# 
   266     0093                     	;# 
   267     0093                     	;# 
   268     0093                     	;# 
   269     0094                     	;# 
   270     0095                     	;# 
   271     0096                     	;# 
   272     0097                     	;# 
   273     0098                     	;# 
   274     0099                     	;# 
   275     009A                     	;# 
   276     009B                     	;# 
   277     009C                     	;# 
   278     009D                     	;# 
   279     009E                     	;# 
   280     009F                     	;# 
   281     0105                     	;# 
   282     0107                     	;# 
   283     0108                     	;# 
   284     0109                     	;# 
   285     010C                     	;# 
   286     010C                     	;# 
   287     010D                     	;# 
   288     010E                     	;# 
   289     010F                     	;# 
   290     0185                     	;# 
   291     0187                     	;# 
   292     0188                     	;# 
   293     0189                     	;# 
   294     018C                     	;# 
   295     018D                     	;# 
   296     000B                     _INTCONbits	set	11
   297     0008                     _PORTD	set	8
   298     0006                     _PORTBbits	set	6
   299     001F                     _ADCON0bits	set	31
   300     000C                     _PIR1bits	set	12
   301     0013                     _SSPBUF	set	19
   302     0014                     _SSPCON	set	20
   303     001E                     _ADRESH	set	30
   304     0031                     _RB1	set	49
   305     0030                     _RB0	set	48
   306     0063                     _SSPIF	set	99
   307     009F                     _ADCON1bits	set	159
   308     008F                     _OSCCONbits	set	143
   309     0085                     _TRISAbits	set	133
   310     008C                     _PIE1bits	set	140
   311     0088                     _TRISD	set	136
   312     0095                     _WPUB	set	149
   313     0081                     _OPTION_REGbits	set	129
   314     0086                     _TRISB	set	134
   315     0094                     _SSPSTATbits	set	148
   316     0094                     _SSPSTAT	set	148
   317     043B                     _TRISC3	set	1083
   318     043D                     _TRISC5	set	1085
   319     0189                     _ANSELH	set	393
   320     0188                     _ANSEL	set	392
   321                           
   322                           	psect	cinit
   323     0011                     start_initialization:	
   324                           ; #config settings
   325                           
   326     0011                     __initialization:
   327                           
   328                           ; Clear objects allocated to BANK0
   329     0011  1283               	bcf	3,5	;RP0=0, select bank0
   330     0012  1303               	bcf	3,6	;RP1=0, select bank0
   331     0013  01D9               	clrf	__pbssBANK0& (0+127)
   332     0014  01DA               	clrf	(__pbssBANK0+1)& (0+127)
   333     0015  01DB               	clrf	(__pbssBANK0+2)& (0+127)
   334     0016  01DC               	clrf	(__pbssBANK0+3)& (0+127)
   335     0017  01DD               	clrf	(__pbssBANK0+4)& (0+127)
   336     0018  01DE               	clrf	(__pbssBANK0+5)& (0+127)
   337     0019  01DF               	clrf	(__pbssBANK0+6)& (0+127)
   338     001A  01E0               	clrf	(__pbssBANK0+7)& (0+127)
   339     001B  01E1               	clrf	(__pbssBANK0+8)& (0+127)
   340     001C  01E2               	clrf	(__pbssBANK0+9)& (0+127)
   341     001D  01E3               	clrf	(__pbssBANK0+10)& (0+127)
   342     001E  01E4               	clrf	(__pbssBANK0+11)& (0+127)
   343     001F  01E5               	clrf	(__pbssBANK0+12)& (0+127)
   344     0020                     end_of_initialization:	
   345                           ;End of C runtime variable initialization code
   346                           
   347     0020                     __end_of__initialization:
   348     0020  0183               	clrf	3
   349     0021  120A  118A  2824   	ljmp	_main	;jump to C main() function
   350                           
   351                           	psect	bssBANK0
   352     0059                     __pbssBANK0:
   353     0059                     _varvolt:
   354     0059                     	ds	4
   355     005D                     _val:
   356     005D                     	ds	2
   357     005F                     _valpot1:
   358     005F                     	ds	2
   359     0061                     _valpot0:
   360     0061                     	ds	2
   361     0063                     _i:
   362     0063                     	ds	2
   363     0065                     _temporal:
   364     0065                     	ds	1
   365                           
   366                           	psect	cstackBANK1
   367     00A0                     __pcstackBANK1:
   368     00A0                     _main$1111:
   369                           
   370                           ; 4 bytes @ 0x0
   371     00A0                     	ds	4
   372     00A4                     _main$1110:
   373                           
   374                           ; 2 bytes @ 0x4
   375     00A4                     	ds	2
   376                           
   377                           	psect	cstackCOMMON
   378     0070                     __pcstackCOMMON:
   379     0070                     ?_setup:
   380     0070                     ?_spiWrite:	
   381                           ; 1 bytes @ 0x0
   382                           
   383     0070                     ??_spiWrite:	
   384                           ; 1 bytes @ 0x0
   385                           
   386     0070                     ?_isr:	
   387                           ; 1 bytes @ 0x0
   388                           
   389     0070                     ?_main:	
   390                           ; 1 bytes @ 0x0
   391                           
   392     0070                     ?___awdiv:	
   393                           ; 1 bytes @ 0x0
   394                           
   395     0070                     ?i1___fltol:	
   396                           ; 2 bytes @ 0x0
   397                           
   398     0070                     ?i1___xxtofl:	
   399                           ; 4 bytes @ 0x0
   400                           
   401     0070                     spiWrite@dat:	
   402                           ; 4 bytes @ 0x0
   403                           
   404     0070                     ___awdiv@divisor:	
   405                           ; 1 bytes @ 0x0
   406                           
   407     0070                     i1___fltol@f1:	
   408                           ; 2 bytes @ 0x0
   409                           
   410     0070                     i1___xxtofl@val:	
   411                           ; 4 bytes @ 0x0
   412                           
   413                           
   414                           ; 4 bytes @ 0x0
   415     0070                     	ds	2
   416     0072                     ___awdiv@dividend:
   417                           
   418                           ; 2 bytes @ 0x2
   419     0072                     	ds	2
   420     0074                     ??___awdiv:
   421     0074                     ??i1___fltol:	
   422                           ; 1 bytes @ 0x4
   423                           
   424     0074                     ??i1___xxtofl:	
   425                           ; 1 bytes @ 0x4
   426                           
   427                           
   428                           ; 1 bytes @ 0x4
   429     0074                     	ds	1
   430     0075                     ___awdiv@counter:
   431                           
   432                           ; 1 bytes @ 0x5
   433     0075                     	ds	1
   434     0076                     ___awdiv@sign:
   435                           
   436                           ; 1 bytes @ 0x6
   437     0076                     	ds	1
   438     0077                     ___awdiv@quotient:
   439                           
   440                           ; 2 bytes @ 0x7
   441     0077                     	ds	1
   442     0078                     i1___fltol@sign1:
   443     0078                     i1___xxtofl@sign:	
   444                           ; 1 bytes @ 0x8
   445                           
   446                           
   447                           ; 1 bytes @ 0x8
   448     0078                     	ds	1
   449     0079                     i1___fltol@exp1:
   450     0079                     i1___xxtofl@exp:	
   451                           ; 1 bytes @ 0x9
   452                           
   453                           
   454                           ; 1 bytes @ 0x9
   455     0079                     	ds	1
   456     007A                     i1___xxtofl@arg:
   457                           
   458                           ; 4 bytes @ 0xA
   459     007A                     	ds	4
   460                           
   461                           	psect	cstackBANK0
   462     0020                     __pcstackBANK0:
   463     0020                     ??_isr:
   464                           
   465                           ; 1 bytes @ 0x0
   466     0020                     	ds	6
   467     0026                     ?_spiInit:
   468     0026                     ?___wmul:	
   469                           ; 1 bytes @ 0x6
   470                           
   471     0026                     ?___fltol:	
   472                           ; 2 bytes @ 0x6
   473                           
   474     0026                     spiInit@sDataSample:	
   475                           ; 4 bytes @ 0x6
   476                           
   477     0026                     ___wmul@multiplier:	
   478                           ; 1 bytes @ 0x6
   479                           
   480     0026                     ___fltol@f1:	
   481                           ; 2 bytes @ 0x6
   482                           
   483                           
   484                           ; 4 bytes @ 0x6
   485     0026                     	ds	1
   486     0027                     spiInit@sClockIdle:
   487                           
   488                           ; 1 bytes @ 0x7
   489     0027                     	ds	1
   490     0028                     spiInit@sTransmitEdge:
   491     0028                     ___wmul@multiplicand:	
   492                           ; 1 bytes @ 0x8
   493                           
   494                           
   495                           ; 2 bytes @ 0x8
   496     0028                     	ds	1
   497     0029                     ??_spiInit:
   498     0029                     spiInit@sType:	
   499                           ; 1 bytes @ 0x9
   500                           
   501                           
   502                           ; 1 bytes @ 0x9
   503     0029                     	ds	1
   504     002A                     ??_setup:
   505     002A                     ??___wmul:	
   506                           ; 1 bytes @ 0xA
   507                           
   508     002A                     ??___fltol:	
   509                           ; 1 bytes @ 0xA
   510                           
   511     002A                     ___wmul@product:	
   512                           ; 1 bytes @ 0xA
   513                           
   514                           
   515                           ; 2 bytes @ 0xA
   516     002A                     	ds	2
   517     002C                     ?___lwdiv:
   518     002C                     ___lwdiv@divisor:	
   519                           ; 2 bytes @ 0xC
   520                           
   521                           
   522                           ; 2 bytes @ 0xC
   523     002C                     	ds	2
   524     002E                     ___fltol@sign1:
   525     002E                     ___lwdiv@dividend:	
   526                           ; 1 bytes @ 0xE
   527                           
   528                           
   529                           ; 2 bytes @ 0xE
   530     002E                     	ds	1
   531     002F                     ___fltol@exp1:
   532                           
   533                           ; 1 bytes @ 0xF
   534     002F                     	ds	1
   535     0030                     ??___lwdiv:
   536                           
   537                           ; 1 bytes @ 0x10
   538     0030                     	ds	1
   539     0031                     ___lwdiv@counter:
   540                           
   541                           ; 1 bytes @ 0x11
   542     0031                     	ds	1
   543     0032                     ___lwdiv@quotient:
   544                           
   545                           ; 2 bytes @ 0x12
   546     0032                     	ds	2
   547     0034                     ?___xxtofl:
   548     0034                     ___xxtofl@val:	
   549                           ; 4 bytes @ 0x14
   550                           
   551                           
   552                           ; 4 bytes @ 0x14
   553     0034                     	ds	4
   554     0038                     ??___xxtofl:
   555                           
   556                           ; 1 bytes @ 0x18
   557     0038                     	ds	4
   558     003C                     ___xxtofl@sign:
   559                           
   560                           ; 1 bytes @ 0x1C
   561     003C                     	ds	1
   562     003D                     ___xxtofl@exp:
   563                           
   564                           ; 1 bytes @ 0x1D
   565     003D                     	ds	1
   566     003E                     ___xxtofl@arg:
   567                           
   568                           ; 4 bytes @ 0x1E
   569     003E                     	ds	4
   570     0042                     ?_map:
   571     0042                     map@varmap:	
   572                           ; 2 bytes @ 0x22
   573                           
   574                           
   575                           ; 2 bytes @ 0x22
   576     0042                     	ds	2
   577     0044                     map@minval:
   578                           
   579                           ; 2 bytes @ 0x24
   580     0044                     	ds	2
   581     0046                     map@maxval:
   582                           
   583                           ; 2 bytes @ 0x26
   584     0046                     	ds	2
   585     0048                     map@minsal:
   586                           
   587                           ; 2 bytes @ 0x28
   588     0048                     	ds	2
   589     004A                     map@maxsal:
   590                           
   591                           ; 2 bytes @ 0x2A
   592     004A                     	ds	2
   593     004C                     ??_map:
   594                           
   595                           ; 1 bytes @ 0x2C
   596     004C                     	ds	6
   597     0052                     map@valmap:
   598                           
   599                           ; 4 bytes @ 0x32
   600     0052                     	ds	4
   601     0056                     ??_main:
   602                           
   603                           ; 1 bytes @ 0x36
   604     0056                     	ds	3
   605                           
   606                           	psect	maintext
   607     0024                     __pmaintext:	
   608 ;;
   609 ;;Main: autosize = 0, tempsize = 3, incstack = 0, save=0
   610 ;;
   611 ;; *************** function _main *****************
   612 ;; Defined at:
   613 ;;		line 83 in file "Postlab3slave1.c"
   614 ;; Parameters:    Size  Location     Type
   615 ;;		None
   616 ;; Auto vars:     Size  Location     Type
   617 ;;  s              20    0        unsigned char [20]
   618 ;;  varvolt2        4    0        float 
   619 ;; Return value:  Size  Location     Type
   620 ;;                  1    wreg      void 
   621 ;; Registers used:
   622 ;;		wreg, status,2, status,0, btemp+1, pclath, cstack
   623 ;; Tracked objects:
   624 ;;		On entry : B00/0
   625 ;;		On exit  : 0/0
   626 ;;		Unchanged: 0/0
   627 ;; Data sizes:     COMMON   BANK0   BANK1   BANK3   BANK2
   628 ;;      Params:         0       0       0       0       0
   629 ;;      Locals:         0       0       6       0       0
   630 ;;      Temps:          0       3       0       0       0
   631 ;;      Totals:         0       3       6       0       0
   632 ;;Total ram usage:        9 bytes
   633 ;; Hardware stack levels required when called: 4
   634 ;; This function calls:
   635 ;;		___fltol
   636 ;;		___xxtofl
   637 ;;		_map
   638 ;;		_setup
   639 ;; This function is called by:
   640 ;;		Startup code after reset
   641 ;; This function uses a non-reentrant model
   642 ;;
   643                           
   644     0024                     _main:	
   645                           ;psect for function _main
   646                           
   647     0024                     l1667:	
   648                           ;incstack = 0
   649                           ; Regs used in _main: [wreg+status,2+status,0+btemp+1+pclath+cstack]
   650                           
   651                           
   652                           ;Postlab3slave1.c: 84:     setup();
   653     0024  120A  118A  24D5  120A  118A  	fcall	_setup
   654     0029                     l1669:
   655                           
   656                           ;Postlab3slave1.c: 85:     ADCON0bits.GO =1;
   657     0029  1283               	bcf	3,5	;RP0=0, select bank0
   658     002A  1303               	bcf	3,6	;RP1=0, select bank0
   659     002B  149F               	bsf	31,1	;volatile
   660     002C                     l1671:
   661                           
   662                           ;Postlab3slave1.c: 86:     i=0;
   663     002C  01E3               	clrf	_i
   664     002D  01E4               	clrf	_i+1
   665     002E                     l1673:
   666                           
   667                           ;Postlab3slave1.c: 91:       if (!PORTBbits.RB0){
   668     002E  1283               	bcf	3,5	;RP0=0, select bank0
   669     002F  1303               	bcf	3,6	;RP1=0, select bank0
   670     0030  1806               	btfsc	6,0	;volatile
   671     0031  2833               	goto	u2001
   672     0032  2834               	goto	u2000
   673     0033                     u2001:
   674     0033  283C               	goto	l1679
   675     0034                     u2000:
   676     0034                     l113:
   677     0034  1C06               	btfss	6,0	;volatile
   678     0035  2837               	goto	u2011
   679     0036  2838               	goto	u2010
   680     0037                     u2011:
   681     0037  2834               	goto	l113
   682     0038                     u2010:
   683     0038                     l1677:
   684                           
   685                           ;Postlab3slave1.c: 93:                 PORTD ++;
   686     0038  3001               	movlw	1
   687     0039  00D6               	movwf	??_main
   688     003A  0856               	movf	??_main,w
   689     003B  0788               	addwf	8,f	;volatile
   690     003C                     l1679:
   691                           
   692                           ;Postlab3slave1.c: 95:     if (!PORTBbits.RB1){
   693     003C  1886               	btfsc	6,1	;volatile
   694     003D  283F               	goto	u2021
   695     003E  2840               	goto	u2020
   696     003F                     u2021:
   697     003F  2846               	goto	l1685
   698     0040                     u2020:
   699     0040                     l117:
   700     0040  1C86               	btfss	6,1	;volatile
   701     0041  2843               	goto	u2031
   702     0042  2844               	goto	u2030
   703     0043                     u2031:
   704     0043  2840               	goto	l117
   705     0044                     u2030:
   706     0044                     l1683:
   707                           
   708                           ;Postlab3slave1.c: 97:                 PORTD --;
   709     0044  3001               	movlw	1
   710     0045  0288               	subwf	8,f	;volatile
   711     0046                     l1685:
   712                           
   713                           ;Postlab3slave1.c: 101:        _delay((unsigned long)((250)*(8000000/4000.0)));
   714     0046  3003               	movlw	3
   715     0047  1283               	bcf	3,5	;RP0=0, select bank0
   716     0048  1303               	bcf	3,6	;RP1=0, select bank0
   717     0049  00D8               	movwf	??_main+2
   718     004A  308A               	movlw	138
   719     004B  00D7               	movwf	??_main+1
   720     004C  3055               	movlw	85
   721     004D  00D6               	movwf	??_main
   722     004E                     u2067:
   723     004E  0BD6               	decfsz	??_main,f
   724     004F  284E               	goto	u2067
   725     0050  0BD7               	decfsz	??_main+1,f
   726     0051  284E               	goto	u2067
   727     0052  0BD8               	decfsz	??_main+2,f
   728     0053  284E               	goto	u2067
   729     0054                     l1687:
   730                           
   731                           ;Postlab3slave1.c: 102:        if (ADCON0bits.GO ==0){
   732     0054  1283               	bcf	3,5	;RP0=0, select bank0
   733     0055  1303               	bcf	3,6	;RP1=0, select bank0
   734     0056  189F               	btfsc	31,1	;volatile
   735     0057  2859               	goto	u2041
   736     0058  285A               	goto	u2040
   737     0059                     u2041:
   738     0059  287B               	goto	l1703
   739     005A                     u2040:
   740     005A                     l1689:
   741                           
   742                           ;Postlab3slave1.c: 103:            for (i=0;i<=2;i++){
   743     005A  01E3               	clrf	_i
   744     005B  01E4               	clrf	_i+1
   745     005C                     l1695:
   746                           
   747                           ;Postlab3slave1.c: 104:            ADCON0bits.CHS = i;
   748     005C  1283               	bcf	3,5	;RP0=0, select bank0
   749     005D  1303               	bcf	3,6	;RP1=0, select bank0
   750     005E  0863               	movf	_i,w
   751     005F  00D6               	movwf	??_main
   752     0060  0DD6               	rlf	??_main,f
   753     0061  0DD6               	rlf	??_main,f
   754     0062  081F               	movf	31,w	;volatile
   755     0063  0656               	xorwf	??_main,w
   756     0064  39C3               	andlw	-61
   757     0065  0656               	xorwf	??_main,w
   758     0066  009F               	movwf	31	;volatile
   759     0067                     l1697:
   760                           
   761                           ;Postlab3slave1.c: 105:            ADCON0bits.GO =1;
   762     0067  149F               	bsf	31,1	;volatile
   763     0068                     l1699:
   764                           
   765                           ;Postlab3slave1.c: 106:         }
   766     0068  3001               	movlw	1
   767     0069  07E3               	addwf	_i,f
   768     006A  1803               	skipnc
   769     006B  0AE4               	incf	_i+1,f
   770     006C  3000               	movlw	0
   771     006D  07E4               	addwf	_i+1,f
   772     006E                     l1701:
   773     006E  0864               	movf	_i+1,w
   774     006F  3A80               	xorlw	128
   775     0070  00FF               	movwf	btemp+1
   776     0071  3080               	movlw	128
   777     0072  027F               	subwf	btemp+1,w
   778     0073  1D03               	skipz
   779     0074  2877               	goto	u2055
   780     0075  3003               	movlw	3
   781     0076  0263               	subwf	_i,w
   782     0077                     u2055:
   783     0077  1C03               	skipc
   784     0078  287A               	goto	u2051
   785     0079  287B               	goto	u2050
   786     007A                     u2051:
   787     007A  285C               	goto	l1695
   788     007B                     u2050:
   789     007B                     l1703:
   790                           
   791                           ;Postlab3slave1.c: 108:        char s[20];;Postlab3slave1.c: 112:      float varvolt2 = 
      +                          map(varvolt,0,255,0,5);
   792     007B  1283               	bcf	3,5	;RP0=0, select bank0
   793     007C  1303               	bcf	3,6	;RP1=0, select bank0
   794     007D  085C               	movf	_varvolt+3,w
   795     007E  00A9               	movwf	___fltol@f1+3
   796     007F  085B               	movf	_varvolt+2,w
   797     0080  00A8               	movwf	___fltol@f1+2
   798     0081  085A               	movf	_varvolt+1,w
   799     0082  00A7               	movwf	___fltol@f1+1
   800     0083  0859               	movf	_varvolt,w
   801     0084  00A6               	movwf	___fltol@f1
   802     0085  120A  118A  22D4  120A  118A  	fcall	___fltol
   803     008A  1283               	bcf	3,5	;RP0=0, select bank0
   804     008B  1303               	bcf	3,6	;RP1=0, select bank0
   805     008C  0827               	movf	?___fltol+1,w
   806     008D  1683               	bsf	3,5	;RP0=1, select bank1
   807     008E  1303               	bcf	3,6	;RP1=0, select bank1
   808     008F  00A5               	movwf	(_main$1110+1)^(0+128)
   809     0090  1283               	bcf	3,5	;RP0=0, select bank0
   810     0091  1303               	bcf	3,6	;RP1=0, select bank0
   811     0092  0826               	movf	?___fltol,w
   812     0093  1683               	bsf	3,5	;RP0=1, select bank1
   813     0094  1303               	bcf	3,6	;RP1=0, select bank1
   814     0095  00A4               	movwf	_main$1110^(0+128)
   815                           
   816                           ;Postlab3slave1.c: 108:        char s[20];;Postlab3slave1.c: 112:      float varvolt2 = 
      +                          map(varvolt,0,255,0,5);
   817     0096  3005               	movlw	5
   818     0097  1283               	bcf	3,5	;RP0=0, select bank0
   819     0098  1303               	bcf	3,6	;RP1=0, select bank0
   820     0099  00CA               	movwf	map@maxsal
   821     009A  3000               	movlw	0
   822     009B  00CB               	movwf	map@maxsal+1
   823     009C  3000               	movlw	0
   824     009D  00C8               	movwf	map@minsal
   825     009E  00C9               	movwf	map@minsal+1
   826     009F  30FF               	movlw	255
   827     00A0  00C6               	movwf	map@maxval
   828     00A1  3000               	movlw	0
   829     00A2  00C7               	movwf	map@maxval+1
   830     00A3  3000               	movlw	0
   831     00A4  00C4               	movwf	map@minval
   832     00A5  00C5               	movwf	map@minval+1
   833     00A6  1683               	bsf	3,5	;RP0=1, select bank1
   834     00A7  1303               	bcf	3,6	;RP1=0, select bank1
   835     00A8  0825               	movf	(_main$1110+1)^(0+128),w
   836     00A9  1283               	bcf	3,5	;RP0=0, select bank0
   837     00AA  1303               	bcf	3,6	;RP1=0, select bank0
   838     00AB  00C3               	movwf	map@varmap+1
   839     00AC  1683               	bsf	3,5	;RP0=1, select bank1
   840     00AD  1303               	bcf	3,6	;RP1=0, select bank1
   841     00AE  0824               	movf	_main$1110^(0+128),w
   842     00AF  1283               	bcf	3,5	;RP0=0, select bank0
   843     00B0  1303               	bcf	3,6	;RP1=0, select bank0
   844     00B1  00C2               	movwf	map@varmap
   845     00B2  120A  118A  2429  120A  118A  	fcall	_map
   846     00B7  1283               	bcf	3,5	;RP0=0, select bank0
   847     00B8  1303               	bcf	3,6	;RP1=0, select bank0
   848     00B9  0842               	movf	?_map,w
   849     00BA  1683               	bsf	3,5	;RP0=1, select bank1
   850     00BB  1303               	bcf	3,6	;RP1=0, select bank1
   851     00BC  00A0               	movwf	_main$1111^(0+128)
   852     00BD  1283               	bcf	3,5	;RP0=0, select bank0
   853     00BE  1303               	bcf	3,6	;RP1=0, select bank0
   854     00BF  0843               	movf	?_map+1,w
   855     00C0  1683               	bsf	3,5	;RP0=1, select bank1
   856     00C1  1303               	bcf	3,6	;RP1=0, select bank1
   857     00C2  00A1               	movwf	(_main$1111^(0+128)+1)
   858     00C3  01A2               	clrf	(_main$1111^(0+128)+2)
   859     00C4  01A3               	clrf	(_main$1111^(0+128)+3)
   860     00C5  0823               	movf	(_main$1111+3)^(0+128),w
   861     00C6  1283               	bcf	3,5	;RP0=0, select bank0
   862     00C7  1303               	bcf	3,6	;RP1=0, select bank0
   863     00C8  00B7               	movwf	___xxtofl@val+3
   864     00C9  1683               	bsf	3,5	;RP0=1, select bank1
   865     00CA  1303               	bcf	3,6	;RP1=0, select bank1
   866     00CB  0822               	movf	(_main$1111+2)^(0+128),w
   867     00CC  1283               	bcf	3,5	;RP0=0, select bank0
   868     00CD  1303               	bcf	3,6	;RP1=0, select bank0
   869     00CE  00B6               	movwf	___xxtofl@val+2
   870     00CF  1683               	bsf	3,5	;RP0=1, select bank1
   871     00D0  1303               	bcf	3,6	;RP1=0, select bank1
   872     00D1  0821               	movf	(_main$1111+1)^(0+128),w
   873     00D2  1283               	bcf	3,5	;RP0=0, select bank0
   874     00D3  1303               	bcf	3,6	;RP1=0, select bank0
   875     00D4  00B5               	movwf	___xxtofl@val+1
   876     00D5  1683               	bsf	3,5	;RP0=1, select bank1
   877     00D6  1303               	bcf	3,6	;RP1=0, select bank1
   878     00D7  0820               	movf	_main$1111^(0+128),w
   879     00D8  1283               	bcf	3,5	;RP0=0, select bank0
   880     00D9  1303               	bcf	3,6	;RP1=0, select bank0
   881     00DA  00B4               	movwf	___xxtofl@val
   882     00DB  3000               	movlw	0
   883     00DC  120A  118A  20E5  120A  118A  	fcall	___xxtofl
   884     00E1  282E               	goto	l1673
   885     00E2  120A  118A  280E   	ljmp	start
   886     00E5                     __end_of_main:
   887                           
   888                           	psect	text1
   889     04D5                     __ptext1:	
   890 ;; *************** function _setup *****************
   891 ;; Defined at:
   892 ;;		line 121 in file "Postlab3slave1.c"
   893 ;; Parameters:    Size  Location     Type
   894 ;;		None
   895 ;; Auto vars:     Size  Location     Type
   896 ;;		None
   897 ;; Return value:  Size  Location     Type
   898 ;;                  1    wreg      void 
   899 ;; Registers used:
   900 ;;		wreg, status,2, status,0, pclath, cstack
   901 ;; Tracked objects:
   902 ;;		On entry : 0/0
   903 ;;		On exit  : 0/0
   904 ;;		Unchanged: 0/0
   905 ;; Data sizes:     COMMON   BANK0   BANK1   BANK3   BANK2
   906 ;;      Params:         0       0       0       0       0
   907 ;;      Locals:         0       0       0       0       0
   908 ;;      Temps:          0       1       0       0       0
   909 ;;      Totals:         0       1       0       0       0
   910 ;;Total ram usage:        1 bytes
   911 ;; Hardware stack levels used: 1
   912 ;; Hardware stack levels required when called: 3
   913 ;; This function calls:
   914 ;;		_spiInit
   915 ;; This function is called by:
   916 ;;		_main
   917 ;; This function uses a non-reentrant model
   918 ;;
   919                           
   920     04D5                     _setup:	
   921                           ;psect for function _setup
   922                           
   923     04D5                     l1611:	
   924                           ;incstack = 0
   925                           ; Regs used in _setup: [wreg+status,2+status,0+pclath+cstack]
   926                           
   927                           
   928                           ;Postlab3slave1.c: 122:     ANSEL = 0b00000011;
   929     04D5  3003               	movlw	3
   930     04D6  1683               	bsf	3,5	;RP0=1, select bank3
   931     04D7  1703               	bsf	3,6	;RP1=1, select bank3
   932     04D8  0088               	movwf	8	;volatile
   933     04D9                     l1613:
   934                           
   935                           ;Postlab3slave1.c: 123:     ANSELH = 0;
   936     04D9  0189               	clrf	9	;volatile
   937     04DA                     l1615:
   938                           
   939                           ;Postlab3slave1.c: 124:     TRISB = 0b11111111;
   940     04DA  30FF               	movlw	255
   941     04DB  1683               	bsf	3,5	;RP0=1, select bank1
   942     04DC  1303               	bcf	3,6	;RP1=0, select bank1
   943     04DD  0086               	movwf	6	;volatile
   944     04DE                     l1617:
   945                           
   946                           ;Postlab3slave1.c: 126:     OPTION_REGbits.nRBPU = 0;
   947     04DE  1381               	bcf	1,7	;volatile
   948     04DF                     l1619:
   949                           
   950                           ;Postlab3slave1.c: 127:     WPUB = 0b11111111;
   951     04DF  30FF               	movlw	255
   952     04E0  0095               	movwf	21	;volatile
   953     04E1                     l1621:
   954                           
   955                           ;Postlab3slave1.c: 128:     TRISD = 0;
   956     04E1  0188               	clrf	8	;volatile
   957     04E2                     l1623:
   958                           
   959                           ;Postlab3slave1.c: 131:     PORTD = 0;
   960     04E2  1283               	bcf	3,5	;RP0=0, select bank0
   961     04E3  1303               	bcf	3,6	;RP1=0, select bank0
   962     04E4  0188               	clrf	8	;volatile
   963     04E5                     l1625:
   964                           
   965                           ;Postlab3slave1.c: 133:     INTCONbits.GIE = 1;
   966     04E5  178B               	bsf	11,7	;volatile
   967     04E6                     l1627:
   968                           
   969                           ;Postlab3slave1.c: 134:     INTCONbits.PEIE = 1;
   970     04E6  170B               	bsf	11,6	;volatile
   971     04E7                     l1629:
   972                           
   973                           ;Postlab3slave1.c: 135:     PIR1bits.SSPIF = 0;
   974     04E7  118C               	bcf	12,3	;volatile
   975     04E8                     l1631:
   976                           
   977                           ;Postlab3slave1.c: 136:     PIE1bits.SSPIE = 1;
   978     04E8  1683               	bsf	3,5	;RP0=1, select bank1
   979     04E9  1303               	bcf	3,6	;RP1=0, select bank1
   980     04EA  158C               	bsf	12,3	;volatile
   981     04EB                     l1633:
   982                           
   983                           ;Postlab3slave1.c: 137:     TRISAbits.TRISA5 = 1;
   984     04EB  1685               	bsf	5,5	;volatile
   985     04EC                     l1635:
   986                           
   987                           ;Postlab3slave1.c: 138:     spiInit(SPI_SLAVE_SS_EN, SPI_DATA_SAMPLE_MIDDLE, SPI_CLOCK_I
      +                          DLE_LOW, SPI_IDLE_2_ACTIVE);
   988     04EC  1283               	bcf	3,5	;RP0=0, select bank0
   989     04ED  1303               	bcf	3,6	;RP1=0, select bank0
   990     04EE  01A6               	clrf	spiInit@sDataSample
   991     04EF  01A7               	clrf	spiInit@sClockIdle
   992     04F0  01A8               	clrf	spiInit@sTransmitEdge
   993     04F1  3024               	movlw	36
   994     04F2  120A  118A  253F  120A  118A  	fcall	_spiInit
   995     04F7                     l1637:
   996                           
   997                           ;Postlab3slave1.c: 140:     OSCCONbits.IRCF = 0b0111;
   998     04F7  3070               	movlw	112
   999     04F8  1683               	bsf	3,5	;RP0=1, select bank1
  1000     04F9  1303               	bcf	3,6	;RP1=0, select bank1
  1001     04FA  048F               	iorwf	15,f	;volatile
  1002     04FB                     l1639:
  1003                           
  1004                           ;Postlab3slave1.c: 141:     OSCCONbits.SCS = 1;
  1005     04FB  140F               	bsf	15,0	;volatile
  1006     04FC                     l1641:
  1007                           
  1008                           ;Postlab3slave1.c: 143:     ADCON1bits.ADFM = 0;
  1009     04FC  139F               	bcf	31,7	;volatile
  1010     04FD                     l1643:
  1011                           
  1012                           ;Postlab3slave1.c: 144:     ADCON1bits.VCFG0 = 0;
  1013     04FD  121F               	bcf	31,4	;volatile
  1014     04FE                     l1645:
  1015                           
  1016                           ;Postlab3slave1.c: 145:     ADCON1bits.VCFG1 = 0;
  1017     04FE  129F               	bcf	31,5	;volatile
  1018     04FF                     l1647:
  1019                           
  1020                           ;Postlab3slave1.c: 147:     ADCON0bits.ADCS = 0b01;
  1021     04FF  1283               	bcf	3,5	;RP0=0, select bank0
  1022     0500  1303               	bcf	3,6	;RP1=0, select bank0
  1023     0501  081F               	movf	31,w	;volatile
  1024     0502  393F               	andlw	-193
  1025     0503  3840               	iorlw	64
  1026     0504  009F               	movwf	31	;volatile
  1027     0505                     l1649:
  1028                           
  1029                           ;Postlab3slave1.c: 148:     ADCON0bits.CHS = 0;
  1030     0505  30C3               	movlw	-61
  1031     0506  059F               	andwf	31,f	;volatile
  1032     0507                     l1651:
  1033                           
  1034                           ;Postlab3slave1.c: 149:     ADCON0bits.ADON= 1;
  1035     0507  141F               	bsf	31,0	;volatile
  1036     0508                     l1653:
  1037                           
  1038                           ;Postlab3slave1.c: 150:     _delay((unsigned long)((50)*(8000000/4000000.0)));
  1039     0508  3020               	movlw	32
  1040     0509  1283               	bcf	3,5	;RP0=0, select bank0
  1041     050A  1303               	bcf	3,6	;RP1=0, select bank0
  1042     050B  00AA               	movwf	??_setup
  1043     050C                     u2077:
  1044     050C  0BAA               	decfsz	??_setup,f
  1045     050D  2D0C               	goto	u2077
  1046     050E  0000               	nop
  1047     050F                     l1655:
  1048                           
  1049                           ;Postlab3slave1.c: 151:     PIR1bits.ADIF = 0;
  1050     050F  1283               	bcf	3,5	;RP0=0, select bank0
  1051     0510  1303               	bcf	3,6	;RP1=0, select bank0
  1052     0511  130C               	bcf	12,6	;volatile
  1053     0512                     l1657:
  1054                           
  1055                           ;Postlab3slave1.c: 152:     PIE1bits.ADIE = 1;
  1056     0512  1683               	bsf	3,5	;RP0=1, select bank1
  1057     0513  1303               	bcf	3,6	;RP1=0, select bank1
  1058     0514  170C               	bsf	12,6	;volatile
  1059     0515                     l1659:
  1060                           
  1061                           ;Postlab3slave1.c: 154:     INTCONbits.RBIE = 0;
  1062     0515  118B               	bcf	11,3	;volatile
  1063     0516                     l1661:
  1064                           
  1065                           ;Postlab3slave1.c: 155:     INTCONbits.RBIF = 1;
  1066     0516  140B               	bsf	11,0	;volatile
  1067     0517                     l128:
  1068     0517  0008               	return
  1069     0518                     __end_of_setup:
  1070                           
  1071                           	psect	text2
  1072     053F                     __ptext2:	
  1073 ;; *************** function _spiInit *****************
  1074 ;; Defined at:
  1075 ;;		line 12 in file "SPI.c"
  1076 ;; Parameters:    Size  Location     Type
  1077 ;;  sType           1    wreg     enum E1292
  1078 ;;  sDataSample     1    6[BANK0 ] enum E1300
  1079 ;;  sClockIdle      1    7[BANK0 ] enum E1304
  1080 ;;  sTransmitEdg    1    8[BANK0 ] enum E1308
  1081 ;; Auto vars:     Size  Location     Type
  1082 ;;  sType           1    9[BANK0 ] enum E1292
  1083 ;; Return value:  Size  Location     Type
  1084 ;;                  1    wreg      void 
  1085 ;; Registers used:
  1086 ;;		wreg, status,2, status,0
  1087 ;; Tracked objects:
  1088 ;;		On entry : 0/0
  1089 ;;		On exit  : 0/0
  1090 ;;		Unchanged: 0/0
  1091 ;; Data sizes:     COMMON   BANK0   BANK1   BANK3   BANK2
  1092 ;;      Params:         0       3       0       0       0
  1093 ;;      Locals:         0       1       0       0       0
  1094 ;;      Temps:          0       0       0       0       0
  1095 ;;      Totals:         0       4       0       0       0
  1096 ;;Total ram usage:        4 bytes
  1097 ;; Hardware stack levels used: 1
  1098 ;; Hardware stack levels required when called: 2
  1099 ;; This function calls:
  1100 ;;		Nothing
  1101 ;; This function is called by:
  1102 ;;		_setup
  1103 ;; This function uses a non-reentrant model
  1104 ;;
  1105                           
  1106     053F                     _spiInit:	
  1107                           ;psect for function _spiInit
  1108                           
  1109                           
  1110                           ;incstack = 0
  1111                           ; Regs used in _spiInit: [wreg+status,2+status,0]
  1112                           ;spiInit@sType stored from wreg
  1113     053F  1283               	bcf	3,5	;RP0=0, select bank0
  1114     0540  1303               	bcf	3,6	;RP1=0, select bank0
  1115     0541  00A9               	movwf	spiInit@sType
  1116     0542                     l1481:
  1117                           
  1118                           ;SPI.c: 12: void spiInit(Spi_Type sType, Spi_Data_Sample sDataSample, Spi_Clock_Idle sCl
      +                          ockIdle, Spi_Transmit_Edge sTransmitEdge);SPI.c: 13: {;SPI.c: 14:     TRISC5 = 0;
  1119     0542  1683               	bsf	3,5	;RP0=1, select bank1
  1120     0543  1303               	bcf	3,6	;RP1=0, select bank1
  1121     0544  1287               	bcf	7,5	;volatile
  1122                           
  1123                           ;SPI.c: 15:     if(sType & 0b00000100)
  1124     0545  1283               	bcf	3,5	;RP0=0, select bank0
  1125     0546  1303               	bcf	3,6	;RP1=0, select bank0
  1126     0547  1D29               	btfss	spiInit@sType,2
  1127     0548  2D4A               	goto	u1641
  1128     0549  2D4B               	goto	u1640
  1129     054A                     u1641:
  1130     054A  2D51               	goto	l1487
  1131     054B                     u1640:
  1132     054B                     l1483:
  1133                           
  1134                           ;SPI.c: 16:     {;SPI.c: 17:         SSPSTAT = sTransmitEdge;
  1135     054B  0828               	movf	spiInit@sTransmitEdge,w
  1136     054C  1683               	bsf	3,5	;RP0=1, select bank1
  1137     054D  1303               	bcf	3,6	;RP1=0, select bank1
  1138     054E  0094               	movwf	20	;volatile
  1139     054F                     l1485:
  1140                           
  1141                           ;SPI.c: 18:         TRISC3 = 1;
  1142     054F  1587               	bsf	7,3	;volatile
  1143                           
  1144                           ;SPI.c: 19:     }
  1145     0550  2D57               	goto	l16
  1146     0551                     l1487:
  1147                           
  1148                           ;SPI.c: 21:     {;SPI.c: 22:         SSPSTAT = sDataSample | sTransmitEdge;
  1149     0551  0826               	movf	spiInit@sDataSample,w
  1150     0552  0428               	iorwf	spiInit@sTransmitEdge,w
  1151     0553  1683               	bsf	3,5	;RP0=1, select bank1
  1152     0554  1303               	bcf	3,6	;RP1=0, select bank1
  1153     0555  0094               	movwf	20	;volatile
  1154     0556                     l1489:
  1155                           
  1156                           ;SPI.c: 23:         TRISC3 = 0;
  1157     0556  1187               	bcf	7,3	;volatile
  1158     0557                     l16:	
  1159                           ;SPI.c: 24:     }
  1160                           
  1161                           
  1162                           ;SPI.c: 26:     SSPCON = sType | sClockIdle;
  1163     0557  1283               	bcf	3,5	;RP0=0, select bank0
  1164     0558  1303               	bcf	3,6	;RP1=0, select bank0
  1165     0559  0829               	movf	spiInit@sType,w
  1166     055A  0427               	iorwf	spiInit@sClockIdle,w
  1167     055B  0094               	movwf	20	;volatile
  1168     055C                     l17:
  1169     055C  0008               	return
  1170     055D                     __end_of_spiInit:
  1171                           
  1172                           	psect	text3
  1173     0429                     __ptext3:	
  1174 ;; *************** function _map *****************
  1175 ;; Defined at:
  1176 ;;		line 157 in file "Postlab3slave1.c"
  1177 ;; Parameters:    Size  Location     Type
  1178 ;;  varmap          2   34[BANK0 ] unsigned int 
  1179 ;;  minval          2   36[BANK0 ] unsigned int 
  1180 ;;  maxval          2   38[BANK0 ] unsigned int 
  1181 ;;  minsal          2   40[BANK0 ] unsigned int 
  1182 ;;  maxsal          2   42[BANK0 ] unsigned int 
  1183 ;; Auto vars:     Size  Location     Type
  1184 ;;  valmap          4   50[BANK0 ] float 
  1185 ;; Return value:  Size  Location     Type
  1186 ;;                  2   34[BANK0 ] unsigned int 
  1187 ;; Registers used:
  1188 ;;		wreg, status,2, status,0, pclath, cstack
  1189 ;; Tracked objects:
  1190 ;;		On entry : 0/0
  1191 ;;		On exit  : 0/0
  1192 ;;		Unchanged: 0/0
  1193 ;; Data sizes:     COMMON   BANK0   BANK1   BANK3   BANK2
  1194 ;;      Params:         0      10       0       0       0
  1195 ;;      Locals:         0       4       0       0       0
  1196 ;;      Temps:          0       6       0       0       0
  1197 ;;      Totals:         0      20       0       0       0
  1198 ;;Total ram usage:       20 bytes
  1199 ;; Hardware stack levels used: 1
  1200 ;; Hardware stack levels required when called: 3
  1201 ;; This function calls:
  1202 ;;		___fltol
  1203 ;;		___lwdiv
  1204 ;;		___wmul
  1205 ;;		___xxtofl
  1206 ;; This function is called by:
  1207 ;;		_main
  1208 ;; This function uses a non-reentrant model
  1209 ;;
  1210                           
  1211     0429                     _map:	
  1212                           ;psect for function _map
  1213                           
  1214     0429                     l1663:	
  1215                           ;incstack = 0
  1216                           ; Regs used in _map: [wreg+status,2+status,0+pclath+cstack]
  1217                           
  1218                           
  1219                           ;Postlab3slave1.c: 158:   float valmap =((varmap - minval) * (maxsal - minsal)) / (maxva
      +                          l - minval) + minsal;
  1220     0429  1283               	bcf	3,5	;RP0=0, select bank0
  1221     042A  1303               	bcf	3,6	;RP1=0, select bank0
  1222     042B  0848               	movf	map@minsal,w
  1223     042C  024A               	subwf	map@maxsal,w
  1224     042D  00A8               	movwf	___wmul@multiplicand
  1225     042E  0849               	movf	map@minsal+1,w
  1226     042F  1C03               	skipc
  1227     0430  0A49               	incf	map@minsal+1,w
  1228     0431  024B               	subwf	map@maxsal+1,w
  1229     0432  00A9               	movwf	___wmul@multiplicand+1
  1230     0433  0844               	movf	map@minval,w
  1231     0434  0242               	subwf	map@varmap,w
  1232     0435  00A6               	movwf	___wmul@multiplier
  1233     0436  0845               	movf	map@minval+1,w
  1234     0437  1C03               	skipc
  1235     0438  0A45               	incf	map@minval+1,w
  1236     0439  0243               	subwf	map@varmap+1,w
  1237     043A  00A7               	movwf	___wmul@multiplier+1
  1238     043B  120A  118A  2518  120A  118A  	fcall	___wmul
  1239     0440  1283               	bcf	3,5	;RP0=0, select bank0
  1240     0441  1303               	bcf	3,6	;RP1=0, select bank0
  1241     0442  0827               	movf	?___wmul+1,w
  1242     0443  00AF               	movwf	___lwdiv@dividend+1
  1243     0444  0826               	movf	?___wmul,w
  1244     0445  00AE               	movwf	___lwdiv@dividend
  1245     0446  0844               	movf	map@minval,w
  1246     0447  0246               	subwf	map@maxval,w
  1247     0448  00AC               	movwf	___lwdiv@divisor
  1248     0449  0845               	movf	map@minval+1,w
  1249     044A  1C03               	skipc
  1250     044B  0A45               	incf	map@minval+1,w
  1251     044C  0247               	subwf	map@maxval+1,w
  1252     044D  00AD               	movwf	___lwdiv@divisor+1
  1253     044E  120A  118A  248F  120A  118A  	fcall	___lwdiv
  1254     0453  1283               	bcf	3,5	;RP0=0, select bank0
  1255     0454  1303               	bcf	3,6	;RP1=0, select bank0
  1256     0455  0848               	movf	map@minsal,w
  1257     0456  072C               	addwf	?___lwdiv,w
  1258     0457  00CC               	movwf	??_map
  1259     0458  0849               	movf	map@minsal+1,w
  1260     0459  1803               	skipnc
  1261     045A  0A49               	incf	map@minsal+1,w
  1262     045B  072D               	addwf	?___lwdiv+1,w
  1263     045C  00CD               	movwf	??_map+1
  1264     045D  084C               	movf	??_map,w
  1265     045E  00CE               	movwf	??_map+2
  1266     045F  084D               	movf	??_map+1,w
  1267     0460  00CF               	movwf	??_map+3
  1268     0461  01D0               	clrf	??_map+4
  1269     0462  01D1               	clrf	??_map+5
  1270     0463  0851               	movf	??_map+5,w
  1271     0464  00B7               	movwf	___xxtofl@val+3
  1272     0465  0850               	movf	??_map+4,w
  1273     0466  00B6               	movwf	___xxtofl@val+2
  1274     0467  084F               	movf	??_map+3,w
  1275     0468  00B5               	movwf	___xxtofl@val+1
  1276     0469  084E               	movf	??_map+2,w
  1277     046A  00B4               	movwf	___xxtofl@val
  1278     046B  3000               	movlw	0
  1279     046C  120A  118A  20E5  120A  118A  	fcall	___xxtofl
  1280     0471  1283               	bcf	3,5	;RP0=0, select bank0
  1281     0472  1303               	bcf	3,6	;RP1=0, select bank0
  1282     0473  0837               	movf	?___xxtofl+3,w
  1283     0474  00D5               	movwf	map@valmap+3
  1284     0475  0836               	movf	?___xxtofl+2,w
  1285     0476  00D4               	movwf	map@valmap+2
  1286     0477  0835               	movf	?___xxtofl+1,w
  1287     0478  00D3               	movwf	map@valmap+1
  1288     0479  0834               	movf	?___xxtofl,w
  1289     047A  00D2               	movwf	map@valmap
  1290                           
  1291                           ;Postlab3slave1.c: 159:   return valmap;
  1292     047B  0855               	movf	map@valmap+3,w
  1293     047C  00A9               	movwf	___fltol@f1+3
  1294     047D  0854               	movf	map@valmap+2,w
  1295     047E  00A8               	movwf	___fltol@f1+2
  1296     047F  0853               	movf	map@valmap+1,w
  1297     0480  00A7               	movwf	___fltol@f1+1
  1298     0481  0852               	movf	map@valmap,w
  1299     0482  00A6               	movwf	___fltol@f1
  1300     0483  120A  118A  22D4  120A  118A  	fcall	___fltol
  1301     0488  1283               	bcf	3,5	;RP0=0, select bank0
  1302     0489  1303               	bcf	3,6	;RP1=0, select bank0
  1303     048A  0827               	movf	?___fltol+1,w
  1304     048B  00C3               	movwf	?_map+1
  1305     048C  0826               	movf	?___fltol,w
  1306     048D  00C2               	movwf	?_map
  1307     048E                     l131:
  1308     048E  0008               	return
  1309     048F                     __end_of_map:
  1310                           
  1311                           	psect	text4
  1312     00E5                     __ptext4:	
  1313 ;; *************** function ___xxtofl *****************
  1314 ;; Defined at:
  1315 ;;		line 10 in file "C:\Program Files\Microchip\xc8\v2.40\pic\sources\c90\common\xxtofl.c"
  1316 ;; Parameters:    Size  Location     Type
  1317 ;;  sign            1    wreg     unsigned char 
  1318 ;;  val             4   20[BANK0 ] long 
  1319 ;; Auto vars:     Size  Location     Type
  1320 ;;  sign            1   28[BANK0 ] unsigned char 
  1321 ;;  arg             4   30[BANK0 ] unsigned long 
  1322 ;;  exp             1   29[BANK0 ] unsigned char 
  1323 ;; Return value:  Size  Location     Type
  1324 ;;                  4   20[BANK0 ] unsigned char 
  1325 ;; Registers used:
  1326 ;;		wreg, status,2, status,0
  1327 ;; Tracked objects:
  1328 ;;		On entry : 0/0
  1329 ;;		On exit  : 0/0
  1330 ;;		Unchanged: 0/0
  1331 ;; Data sizes:     COMMON   BANK0   BANK1   BANK3   BANK2
  1332 ;;      Params:         0       4       0       0       0
  1333 ;;      Locals:         0       6       0       0       0
  1334 ;;      Temps:          0       4       0       0       0
  1335 ;;      Totals:         0      14       0       0       0
  1336 ;;Total ram usage:       14 bytes
  1337 ;; Hardware stack levels used: 1
  1338 ;; Hardware stack levels required when called: 2
  1339 ;; This function calls:
  1340 ;;		Nothing
  1341 ;; This function is called by:
  1342 ;;		_main
  1343 ;;		_map
  1344 ;; This function uses a non-reentrant model
  1345 ;;
  1346                           
  1347     00E5                     ___xxtofl:	
  1348                           ;psect for function ___xxtofl
  1349                           
  1350                           
  1351                           ;incstack = 0
  1352                           ; Regs used in ___xxtofl: [wreg+status,2+status,0]
  1353                           ;___xxtofl@sign stored from wreg
  1354     00E5  1283               	bcf	3,5	;RP0=0, select bank0
  1355     00E6  1303               	bcf	3,6	;RP1=0, select bank0
  1356     00E7  00BC               	movwf	___xxtofl@sign
  1357     00E8                     l1567:
  1358     00E8  083C               	movf	___xxtofl@sign,w
  1359     00E9  1903               	btfsc	3,2
  1360     00EA  28EC               	goto	u1861
  1361     00EB  28ED               	goto	u1860
  1362     00EC                     u1861:
  1363     00EC  2901               	goto	l1573
  1364     00ED                     u1860:
  1365     00ED                     l1569:
  1366     00ED  1FB7               	btfss	___xxtofl@val+3,7
  1367     00EE  28F0               	goto	u1871
  1368     00EF  28F1               	goto	u1870
  1369     00F0                     u1871:
  1370     00F0  2901               	goto	l1573
  1371     00F1                     u1870:
  1372     00F1                     l1571:
  1373     00F1  0934               	comf	___xxtofl@val,w
  1374     00F2  00BE               	movwf	___xxtofl@arg
  1375     00F3  0935               	comf	___xxtofl@val+1,w
  1376     00F4  00BF               	movwf	___xxtofl@arg+1
  1377     00F5  0936               	comf	___xxtofl@val+2,w
  1378     00F6  00C0               	movwf	___xxtofl@arg+2
  1379     00F7  0937               	comf	___xxtofl@val+3,w
  1380     00F8  00C1               	movwf	___xxtofl@arg+3
  1381     00F9  0ABE               	incf	___xxtofl@arg,f
  1382     00FA  1903               	skipnz
  1383     00FB  0ABF               	incf	___xxtofl@arg+1,f
  1384     00FC  1903               	skipnz
  1385     00FD  0AC0               	incf	___xxtofl@arg+2,f
  1386     00FE  1903               	skipnz
  1387     00FF  0AC1               	incf	___xxtofl@arg+3,f
  1388     0100  2909               	goto	l650
  1389     0101                     l1573:
  1390     0101  0837               	movf	___xxtofl@val+3,w
  1391     0102  00C1               	movwf	___xxtofl@arg+3
  1392     0103  0836               	movf	___xxtofl@val+2,w
  1393     0104  00C0               	movwf	___xxtofl@arg+2
  1394     0105  0835               	movf	___xxtofl@val+1,w
  1395     0106  00BF               	movwf	___xxtofl@arg+1
  1396     0107  0834               	movf	___xxtofl@val,w
  1397     0108  00BE               	movwf	___xxtofl@arg
  1398     0109                     l650:
  1399     0109  0837               	movf	___xxtofl@val+3,w
  1400     010A  0436               	iorwf	___xxtofl@val+2,w
  1401     010B  0435               	iorwf	___xxtofl@val+1,w
  1402     010C  0434               	iorwf	___xxtofl@val,w
  1403     010D  1D03               	skipz
  1404     010E  2910               	goto	u1881
  1405     010F  2911               	goto	u1880
  1406     0110                     u1881:
  1407     0110  291A               	goto	l1579
  1408     0111                     u1880:
  1409     0111                     l1575:
  1410     0111  3000               	movlw	0
  1411     0112  00B7               	movwf	?___xxtofl+3
  1412     0113  3000               	movlw	0
  1413     0114  00B6               	movwf	?___xxtofl+2
  1414     0115  3000               	movlw	0
  1415     0116  00B5               	movwf	?___xxtofl+1
  1416     0117  3000               	movlw	0
  1417     0118  00B4               	movwf	?___xxtofl
  1418     0119  299E               	goto	l652
  1419     011A                     l1579:
  1420     011A  3096               	movlw	150
  1421     011B  00BD               	movwf	___xxtofl@exp
  1422     011C  292A               	goto	l1583
  1423     011D                     l1581:
  1424     011D  3001               	movlw	1
  1425     011E  00B8               	movwf	??___xxtofl
  1426     011F  0838               	movf	??___xxtofl,w
  1427     0120  07BD               	addwf	___xxtofl@exp,f
  1428     0121  3001               	movlw	1
  1429     0122                     u1895:
  1430     0122  1003               	clrc
  1431     0123  0CC1               	rrf	___xxtofl@arg+3,f
  1432     0124  0CC0               	rrf	___xxtofl@arg+2,f
  1433     0125  0CBF               	rrf	___xxtofl@arg+1,f
  1434     0126  0CBE               	rrf	___xxtofl@arg,f
  1435     0127  3EFF               	addlw	-1
  1436     0128  1D03               	skipz
  1437     0129  2922               	goto	u1895
  1438     012A                     l1583:
  1439     012A  30FE               	movlw	254
  1440     012B  0541               	andwf	___xxtofl@arg+3,w
  1441     012C  1D03               	btfss	3,2
  1442     012D  292F               	goto	u1901
  1443     012E  2930               	goto	u1900
  1444     012F                     u1901:
  1445     012F  291D               	goto	l1581
  1446     0130                     u1900:
  1447     0130  294C               	goto	l656
  1448     0131                     l1585:
  1449     0131  3001               	movlw	1
  1450     0132  00B8               	movwf	??___xxtofl
  1451     0133  0838               	movf	??___xxtofl,w
  1452     0134  07BD               	addwf	___xxtofl@exp,f
  1453     0135                     l1587:
  1454     0135  3001               	movlw	1
  1455     0136  07BE               	addwf	___xxtofl@arg,f
  1456     0137  3000               	movlw	0
  1457     0138  1803               	skipnc
  1458     0139  3001               	movlw	1
  1459     013A  07BF               	addwf	___xxtofl@arg+1,f
  1460     013B  3000               	movlw	0
  1461     013C  1803               	skipnc
  1462     013D  3001               	movlw	1
  1463     013E  07C0               	addwf	___xxtofl@arg+2,f
  1464     013F  3000               	movlw	0
  1465     0140  1803               	skipnc
  1466     0141  3001               	movlw	1
  1467     0142  07C1               	addwf	___xxtofl@arg+3,f
  1468     0143                     l1589:
  1469     0143  3001               	movlw	1
  1470     0144                     u1915:
  1471     0144  1003               	clrc
  1472     0145  0CC1               	rrf	___xxtofl@arg+3,f
  1473     0146  0CC0               	rrf	___xxtofl@arg+2,f
  1474     0147  0CBF               	rrf	___xxtofl@arg+1,f
  1475     0148  0CBE               	rrf	___xxtofl@arg,f
  1476     0149  3EFF               	addlw	-1
  1477     014A  1D03               	skipz
  1478     014B  2944               	goto	u1915
  1479     014C                     l656:
  1480     014C  30FF               	movlw	255
  1481     014D  0541               	andwf	___xxtofl@arg+3,w
  1482     014E  1D03               	btfss	3,2
  1483     014F  2951               	goto	u1921
  1484     0150  2952               	goto	u1920
  1485     0151                     u1921:
  1486     0151  2931               	goto	l1585
  1487     0152                     u1920:
  1488     0152  295E               	goto	l1593
  1489     0153                     l1591:
  1490     0153  3001               	movlw	1
  1491     0154  02BD               	subwf	___xxtofl@exp,f
  1492     0155  3001               	movlw	1
  1493     0156  00B8               	movwf	??___xxtofl
  1494     0157                     u1935:
  1495     0157  1003               	clrc
  1496     0158  0DBE               	rlf	___xxtofl@arg,f
  1497     0159  0DBF               	rlf	___xxtofl@arg+1,f
  1498     015A  0DC0               	rlf	___xxtofl@arg+2,f
  1499     015B  0DC1               	rlf	___xxtofl@arg+3,f
  1500     015C  0BB8               	decfsz	??___xxtofl,f
  1501     015D  2957               	goto	u1935
  1502     015E                     l1593:
  1503     015E  1BC0               	btfsc	___xxtofl@arg+2,7
  1504     015F  2961               	goto	u1941
  1505     0160  2962               	goto	u1940
  1506     0161                     u1941:
  1507     0161  2968               	goto	l663
  1508     0162                     u1940:
  1509     0162                     l1595:
  1510     0162  3002               	movlw	2
  1511     0163  023D               	subwf	___xxtofl@exp,w
  1512     0164  1803               	skipnc
  1513     0165  2967               	goto	u1951
  1514     0166  2968               	goto	u1950
  1515     0167                     u1951:
  1516     0167  2953               	goto	l1591
  1517     0168                     u1950:
  1518     0168                     l663:
  1519     0168  183D               	btfsc	___xxtofl@exp,0
  1520     0169  296B               	goto	u1961
  1521     016A  296C               	goto	u1960
  1522     016B                     u1961:
  1523     016B  2974               	goto	l664
  1524     016C                     u1960:
  1525     016C                     l1597:
  1526     016C  30FF               	movlw	255
  1527     016D  05BE               	andwf	___xxtofl@arg,f
  1528     016E  30FF               	movlw	255
  1529     016F  05BF               	andwf	___xxtofl@arg+1,f
  1530     0170  307F               	movlw	127
  1531     0171  05C0               	andwf	___xxtofl@arg+2,f
  1532     0172  30FF               	movlw	255
  1533     0173  05C1               	andwf	___xxtofl@arg+3,f
  1534     0174                     l664:
  1535     0174  1003               	clrc
  1536     0175  0CBD               	rrf	___xxtofl@exp,f
  1537     0176                     l1599:
  1538     0176  083D               	movf	___xxtofl@exp,w
  1539     0177  00B8               	movwf	??___xxtofl
  1540     0178  01B9               	clrf	??___xxtofl+1
  1541     0179  01BA               	clrf	??___xxtofl+2
  1542     017A  01BB               	clrf	??___xxtofl+3
  1543     017B  3018               	movlw	24
  1544     017C                     u1975:
  1545     017C  1003               	clrc
  1546     017D  0DB8               	rlf	??___xxtofl,f
  1547     017E  0DB9               	rlf	??___xxtofl+1,f
  1548     017F  0DBA               	rlf	??___xxtofl+2,f
  1549     0180  0DBB               	rlf	??___xxtofl+3,f
  1550     0181                     u1970:
  1551     0181  3EFF               	addlw	-1
  1552     0182  1D03               	skipz
  1553     0183  297C               	goto	u1975
  1554     0184  0838               	movf	??___xxtofl,w
  1555     0185  04BE               	iorwf	___xxtofl@arg,f
  1556     0186  0839               	movf	??___xxtofl+1,w
  1557     0187  04BF               	iorwf	___xxtofl@arg+1,f
  1558     0188  083A               	movf	??___xxtofl+2,w
  1559     0189  04C0               	iorwf	___xxtofl@arg+2,f
  1560     018A  083B               	movf	??___xxtofl+3,w
  1561     018B  04C1               	iorwf	___xxtofl@arg+3,f
  1562     018C                     l1601:
  1563     018C  083C               	movf	___xxtofl@sign,w
  1564     018D  1903               	btfsc	3,2
  1565     018E  2990               	goto	u1981
  1566     018F  2991               	goto	u1980
  1567     0190                     u1981:
  1568     0190  2996               	goto	l1607
  1569     0191                     u1980:
  1570     0191                     l1603:
  1571     0191  1FB7               	btfss	___xxtofl@val+3,7
  1572     0192  2994               	goto	u1991
  1573     0193  2995               	goto	u1990
  1574     0194                     u1991:
  1575     0194  2996               	goto	l1607
  1576     0195                     u1990:
  1577     0195                     l1605:
  1578     0195  17C1               	bsf	___xxtofl@arg+3,7
  1579     0196                     l1607:
  1580     0196  0841               	movf	___xxtofl@arg+3,w
  1581     0197  00B7               	movwf	?___xxtofl+3
  1582     0198  0840               	movf	___xxtofl@arg+2,w
  1583     0199  00B6               	movwf	?___xxtofl+2
  1584     019A  083F               	movf	___xxtofl@arg+1,w
  1585     019B  00B5               	movwf	?___xxtofl+1
  1586     019C  083E               	movf	___xxtofl@arg,w
  1587     019D  00B4               	movwf	?___xxtofl
  1588     019E                     l652:
  1589     019E  0008               	return
  1590     019F                     __end_of___xxtofl:
  1591                           
  1592                           	psect	text5
  1593     0518                     __ptext5:	
  1594 ;; *************** function ___wmul *****************
  1595 ;; Defined at:
  1596 ;;		line 15 in file "C:\Program Files\Microchip\xc8\v2.40\pic\sources\c90\common\Umul16.c"
  1597 ;; Parameters:    Size  Location     Type
  1598 ;;  multiplier      2    6[BANK0 ] unsigned int 
  1599 ;;  multiplicand    2    8[BANK0 ] unsigned int 
  1600 ;; Auto vars:     Size  Location     Type
  1601 ;;  product         2   10[BANK0 ] unsigned int 
  1602 ;; Return value:  Size  Location     Type
  1603 ;;                  2    6[BANK0 ] unsigned int 
  1604 ;; Registers used:
  1605 ;;		wreg, status,2, status,0
  1606 ;; Tracked objects:
  1607 ;;		On entry : 0/0
  1608 ;;		On exit  : 0/0
  1609 ;;		Unchanged: 0/0
  1610 ;; Data sizes:     COMMON   BANK0   BANK1   BANK3   BANK2
  1611 ;;      Params:         0       4       0       0       0
  1612 ;;      Locals:         0       2       0       0       0
  1613 ;;      Temps:          0       0       0       0       0
  1614 ;;      Totals:         0       6       0       0       0
  1615 ;;Total ram usage:        6 bytes
  1616 ;; Hardware stack levels used: 1
  1617 ;; Hardware stack levels required when called: 2
  1618 ;; This function calls:
  1619 ;;		Nothing
  1620 ;; This function is called by:
  1621 ;;		_map
  1622 ;; This function uses a non-reentrant model
  1623 ;;
  1624                           
  1625     0518                     ___wmul:	
  1626                           ;psect for function ___wmul
  1627                           
  1628     0518                     l1491:	
  1629                           ;incstack = 0
  1630                           ; Regs used in ___wmul: [wreg+status,2+status,0]
  1631                           
  1632     0518  1283               	bcf	3,5	;RP0=0, select bank0
  1633     0519  1303               	bcf	3,6	;RP1=0, select bank0
  1634     051A  01AA               	clrf	___wmul@product
  1635     051B  01AB               	clrf	___wmul@product+1
  1636     051C                     l1493:
  1637     051C  1C26               	btfss	___wmul@multiplier,0
  1638     051D  2D1F               	goto	u1651
  1639     051E  2D20               	goto	u1650
  1640     051F                     u1651:
  1641     051F  2D26               	goto	l217
  1642     0520                     u1650:
  1643     0520                     l1495:
  1644     0520  0828               	movf	___wmul@multiplicand,w
  1645     0521  07AA               	addwf	___wmul@product,f
  1646     0522  1803               	skipnc
  1647     0523  0AAB               	incf	___wmul@product+1,f
  1648     0524  0829               	movf	___wmul@multiplicand+1,w
  1649     0525  07AB               	addwf	___wmul@product+1,f
  1650     0526                     l217:
  1651     0526  3001               	movlw	1
  1652     0527                     u1665:
  1653     0527  1003               	clrc
  1654     0528  0DA8               	rlf	___wmul@multiplicand,f
  1655     0529  0DA9               	rlf	___wmul@multiplicand+1,f
  1656     052A  3EFF               	addlw	-1
  1657     052B  1D03               	skipz
  1658     052C  2D27               	goto	u1665
  1659     052D                     l1497:
  1660     052D  3001               	movlw	1
  1661     052E                     u1675:
  1662     052E  1003               	clrc
  1663     052F  0CA7               	rrf	___wmul@multiplier+1,f
  1664     0530  0CA6               	rrf	___wmul@multiplier,f
  1665     0531  3EFF               	addlw	-1
  1666     0532  1D03               	skipz
  1667     0533  2D2E               	goto	u1675
  1668     0534                     l1499:
  1669     0534  0826               	movf	___wmul@multiplier,w
  1670     0535  0427               	iorwf	___wmul@multiplier+1,w
  1671     0536  1D03               	btfss	3,2
  1672     0537  2D39               	goto	u1681
  1673     0538  2D3A               	goto	u1680
  1674     0539                     u1681:
  1675     0539  2D1C               	goto	l1493
  1676     053A                     u1680:
  1677     053A                     l1501:
  1678     053A  082B               	movf	___wmul@product+1,w
  1679     053B  00A7               	movwf	?___wmul+1
  1680     053C  082A               	movf	___wmul@product,w
  1681     053D  00A6               	movwf	?___wmul
  1682     053E                     l219:
  1683     053E  0008               	return
  1684     053F                     __end_of___wmul:
  1685                           
  1686                           	psect	text6
  1687     048F                     __ptext6:	
  1688 ;; *************** function ___lwdiv *****************
  1689 ;; Defined at:
  1690 ;;		line 5 in file "C:\Program Files\Microchip\xc8\v2.40\pic\sources\c90\common\lwdiv.c"
  1691 ;; Parameters:    Size  Location     Type
  1692 ;;  divisor         2   12[BANK0 ] unsigned int 
  1693 ;;  dividend        2   14[BANK0 ] unsigned int 
  1694 ;; Auto vars:     Size  Location     Type
  1695 ;;  quotient        2   18[BANK0 ] unsigned int 
  1696 ;;  counter         1   17[BANK0 ] unsigned char 
  1697 ;; Return value:  Size  Location     Type
  1698 ;;                  2   12[BANK0 ] unsigned int 
  1699 ;; Registers used:
  1700 ;;		wreg, status,2, status,0
  1701 ;; Tracked objects:
  1702 ;;		On entry : 0/0
  1703 ;;		On exit  : 0/0
  1704 ;;		Unchanged: 0/0
  1705 ;; Data sizes:     COMMON   BANK0   BANK1   BANK3   BANK2
  1706 ;;      Params:         0       4       0       0       0
  1707 ;;      Locals:         0       3       0       0       0
  1708 ;;      Temps:          0       1       0       0       0
  1709 ;;      Totals:         0       8       0       0       0
  1710 ;;Total ram usage:        8 bytes
  1711 ;; Hardware stack levels used: 1
  1712 ;; Hardware stack levels required when called: 2
  1713 ;; This function calls:
  1714 ;;		Nothing
  1715 ;; This function is called by:
  1716 ;;		_map
  1717 ;; This function uses a non-reentrant model
  1718 ;;
  1719                           
  1720     048F                     ___lwdiv:	
  1721                           ;psect for function ___lwdiv
  1722                           
  1723     048F                     l1541:	
  1724                           ;incstack = 0
  1725                           ; Regs used in ___lwdiv: [wreg+status,2+status,0]
  1726                           
  1727     048F  1283               	bcf	3,5	;RP0=0, select bank0
  1728     0490  1303               	bcf	3,6	;RP1=0, select bank0
  1729     0491  01B2               	clrf	___lwdiv@quotient
  1730     0492  01B3               	clrf	___lwdiv@quotient+1
  1731     0493                     l1543:
  1732     0493  082C               	movf	___lwdiv@divisor,w
  1733     0494  042D               	iorwf	___lwdiv@divisor+1,w
  1734     0495  1903               	btfsc	3,2
  1735     0496  2C98               	goto	u1791
  1736     0497  2C99               	goto	u1790
  1737     0498                     u1791:
  1738     0498  2CD0               	goto	l1563
  1739     0499                     u1790:
  1740     0499                     l1545:
  1741     0499  01B1               	clrf	___lwdiv@counter
  1742     049A  0AB1               	incf	___lwdiv@counter,f
  1743     049B  2CA7               	goto	l1551
  1744     049C                     l1547:
  1745     049C  3001               	movlw	1
  1746     049D                     u1805:
  1747     049D  1003               	clrc
  1748     049E  0DAC               	rlf	___lwdiv@divisor,f
  1749     049F  0DAD               	rlf	___lwdiv@divisor+1,f
  1750     04A0  3EFF               	addlw	-1
  1751     04A1  1D03               	skipz
  1752     04A2  2C9D               	goto	u1805
  1753     04A3                     l1549:
  1754     04A3  3001               	movlw	1
  1755     04A4  00B0               	movwf	??___lwdiv
  1756     04A5  0830               	movf	??___lwdiv,w
  1757     04A6  07B1               	addwf	___lwdiv@counter,f
  1758     04A7                     l1551:
  1759     04A7  1FAD               	btfss	___lwdiv@divisor+1,7
  1760     04A8  2CAA               	goto	u1811
  1761     04A9  2CAB               	goto	u1810
  1762     04AA                     u1811:
  1763     04AA  2C9C               	goto	l1547
  1764     04AB                     u1810:
  1765     04AB                     l1553:
  1766     04AB  3001               	movlw	1
  1767     04AC                     u1825:
  1768     04AC  1003               	clrc
  1769     04AD  0DB2               	rlf	___lwdiv@quotient,f
  1770     04AE  0DB3               	rlf	___lwdiv@quotient+1,f
  1771     04AF  3EFF               	addlw	-1
  1772     04B0  1D03               	skipz
  1773     04B1  2CAC               	goto	u1825
  1774     04B2  082D               	movf	___lwdiv@divisor+1,w
  1775     04B3  022F               	subwf	___lwdiv@dividend+1,w
  1776     04B4  1D03               	skipz
  1777     04B5  2CB8               	goto	u1835
  1778     04B6  082C               	movf	___lwdiv@divisor,w
  1779     04B7  022E               	subwf	___lwdiv@dividend,w
  1780     04B8                     u1835:
  1781     04B8  1C03               	skipc
  1782     04B9  2CBB               	goto	u1831
  1783     04BA  2CBC               	goto	u1830
  1784     04BB                     u1831:
  1785     04BB  2CC3               	goto	l1559
  1786     04BC                     u1830:
  1787     04BC                     l1555:
  1788     04BC  082C               	movf	___lwdiv@divisor,w
  1789     04BD  02AE               	subwf	___lwdiv@dividend,f
  1790     04BE  082D               	movf	___lwdiv@divisor+1,w
  1791     04BF  1C03               	skipc
  1792     04C0  03AF               	decf	___lwdiv@dividend+1,f
  1793     04C1  02AF               	subwf	___lwdiv@dividend+1,f
  1794     04C2                     l1557:
  1795     04C2  1432               	bsf	___lwdiv@quotient,0
  1796     04C3                     l1559:
  1797     04C3  3001               	movlw	1
  1798     04C4                     u1845:
  1799     04C4  1003               	clrc
  1800     04C5  0CAD               	rrf	___lwdiv@divisor+1,f
  1801     04C6  0CAC               	rrf	___lwdiv@divisor,f
  1802     04C7  3EFF               	addlw	-1
  1803     04C8  1D03               	skipz
  1804     04C9  2CC4               	goto	u1845
  1805     04CA                     l1561:
  1806     04CA  3001               	movlw	1
  1807     04CB  02B1               	subwf	___lwdiv@counter,f
  1808     04CC  1D03               	btfss	3,2
  1809     04CD  2CCF               	goto	u1851
  1810     04CE  2CD0               	goto	u1850
  1811     04CF                     u1851:
  1812     04CF  2CAB               	goto	l1553
  1813     04D0                     u1850:
  1814     04D0                     l1563:
  1815     04D0  0833               	movf	___lwdiv@quotient+1,w
  1816     04D1  00AD               	movwf	?___lwdiv+1
  1817     04D2  0832               	movf	___lwdiv@quotient,w
  1818     04D3  00AC               	movwf	?___lwdiv
  1819     04D4                     l489:
  1820     04D4  0008               	return
  1821     04D5                     __end_of___lwdiv:
  1822                           
  1823                           	psect	text7
  1824     02D4                     __ptext7:	
  1825 ;; *************** function ___fltol *****************
  1826 ;; Defined at:
  1827 ;;		line 43 in file "C:\Program Files\Microchip\xc8\v2.40\pic\sources\c90\common\fltol.c"
  1828 ;; Parameters:    Size  Location     Type
  1829 ;;  f1              4    6[BANK0 ] unsigned int 
  1830 ;; Auto vars:     Size  Location     Type
  1831 ;;  exp1            1   15[BANK0 ] unsigned char 
  1832 ;;  sign1           1   14[BANK0 ] unsigned char 
  1833 ;; Return value:  Size  Location     Type
  1834 ;;                  4    6[BANK0 ] long 
  1835 ;; Registers used:
  1836 ;;		wreg, status,2, status,0
  1837 ;; Tracked objects:
  1838 ;;		On entry : 0/0
  1839 ;;		On exit  : 0/0
  1840 ;;		Unchanged: 0/0
  1841 ;; Data sizes:     COMMON   BANK0   BANK1   BANK3   BANK2
  1842 ;;      Params:         0       4       0       0       0
  1843 ;;      Locals:         0       2       0       0       0
  1844 ;;      Temps:          0       4       0       0       0
  1845 ;;      Totals:         0      10       0       0       0
  1846 ;;Total ram usage:       10 bytes
  1847 ;; Hardware stack levels used: 1
  1848 ;; Hardware stack levels required when called: 2
  1849 ;; This function calls:
  1850 ;;		Nothing
  1851 ;; This function is called by:
  1852 ;;		_main
  1853 ;;		_map
  1854 ;; This function uses a non-reentrant model
  1855 ;;
  1856                           
  1857     02D4                     ___fltol:	
  1858                           ;psect for function ___fltol
  1859                           
  1860     02D4                     l1505:	
  1861                           ;incstack = 0
  1862                           ; Regs used in ___fltol: [wreg+status,2+status,0]
  1863                           
  1864     02D4  1003               	clrc
  1865     02D5  1283               	bcf	3,5	;RP0=0, select bank0
  1866     02D6  1303               	bcf	3,6	;RP1=0, select bank0
  1867     02D7  0D28               	rlf	___fltol@f1+2,w
  1868     02D8  0D29               	rlf	___fltol@f1+3,w
  1869     02D9  00AF               	movwf	___fltol@exp1
  1870     02DA  082F               	movf	___fltol@exp1,w
  1871     02DB  1D03               	btfss	3,2
  1872     02DC  2ADE               	goto	u1691
  1873     02DD  2ADF               	goto	u1690
  1874     02DE                     u1691:
  1875     02DE  2AE8               	goto	l1511
  1876     02DF                     u1690:
  1877     02DF                     l1507:
  1878     02DF  3000               	movlw	0
  1879     02E0  00A9               	movwf	?___fltol+3
  1880     02E1  3000               	movlw	0
  1881     02E2  00A8               	movwf	?___fltol+2
  1882     02E3  3000               	movlw	0
  1883     02E4  00A7               	movwf	?___fltol+1
  1884     02E5  3000               	movlw	0
  1885     02E6  00A6               	movwf	?___fltol
  1886     02E7  2B4B               	goto	l403
  1887     02E8                     l1511:
  1888     02E8  0826               	movf	___fltol@f1,w
  1889     02E9  00AA               	movwf	??___fltol
  1890     02EA  0827               	movf	___fltol@f1+1,w
  1891     02EB  00AB               	movwf	??___fltol+1
  1892     02EC  0828               	movf	___fltol@f1+2,w
  1893     02ED  00AC               	movwf	??___fltol+2
  1894     02EE  0829               	movf	___fltol@f1+3,w
  1895     02EF  00AD               	movwf	??___fltol+3
  1896     02F0  301F               	movlw	31
  1897     02F1                     u1705:
  1898     02F1  1003               	clrc
  1899     02F2  0CAD               	rrf	??___fltol+3,f
  1900     02F3  0CAC               	rrf	??___fltol+2,f
  1901     02F4  0CAB               	rrf	??___fltol+1,f
  1902     02F5  0CAA               	rrf	??___fltol,f
  1903     02F6                     u1700:
  1904     02F6  3EFF               	addlw	-1
  1905     02F7  1D03               	skipz
  1906     02F8  2AF1               	goto	u1705
  1907     02F9  082A               	movf	??___fltol,w
  1908     02FA  00AE               	movwf	___fltol@sign1
  1909     02FB                     l1513:
  1910     02FB  17A8               	bsf	___fltol@f1+2,7
  1911     02FC                     l1515:
  1912     02FC  30FF               	movlw	255
  1913     02FD  05A6               	andwf	___fltol@f1,f
  1914     02FE  30FF               	movlw	255
  1915     02FF  05A7               	andwf	___fltol@f1+1,f
  1916     0300  30FF               	movlw	255
  1917     0301  05A8               	andwf	___fltol@f1+2,f
  1918     0302  3000               	movlw	0
  1919     0303  05A9               	andwf	___fltol@f1+3,f
  1920     0304                     l1517:
  1921     0304  3096               	movlw	150
  1922     0305  02AF               	subwf	___fltol@exp1,f
  1923     0306                     l1519:
  1924     0306  1FAF               	btfss	___fltol@exp1,7
  1925     0307  2B09               	goto	u1711
  1926     0308  2B0A               	goto	u1710
  1927     0309                     u1711:
  1928     0309  2B24               	goto	l1529
  1929     030A                     u1710:
  1930     030A                     l1521:
  1931     030A  082F               	movf	___fltol@exp1,w
  1932     030B  3A80               	xorlw	128
  1933     030C  3E97               	addlw	151
  1934     030D  1803               	skipnc
  1935     030E  2B10               	goto	u1721
  1936     030F  2B11               	goto	u1720
  1937     0310                     u1721:
  1938     0310  2B12               	goto	l1527
  1939     0311                     u1720:
  1940     0311  2ADF               	goto	l1507
  1941     0312                     l1527:
  1942     0312  3001               	movlw	1
  1943     0313                     u1735:
  1944     0313  1003               	clrc
  1945     0314  0CA9               	rrf	___fltol@f1+3,f
  1946     0315  0CA8               	rrf	___fltol@f1+2,f
  1947     0316  0CA7               	rrf	___fltol@f1+1,f
  1948     0317  0CA6               	rrf	___fltol@f1,f
  1949     0318  3EFF               	addlw	-1
  1950     0319  1D03               	skipz
  1951     031A  2B13               	goto	u1735
  1952     031B  3001               	movlw	1
  1953     031C  00AA               	movwf	??___fltol
  1954     031D  082A               	movf	??___fltol,w
  1955     031E  07AF               	addwf	___fltol@exp1,f
  1956     031F  1D03               	btfss	3,2
  1957     0320  2B22               	goto	u1741
  1958     0321  2B23               	goto	u1740
  1959     0322                     u1741:
  1960     0322  2B12               	goto	l1527
  1961     0323                     u1740:
  1962     0323  2B3B               	goto	l1537
  1963     0324                     l1529:
  1964     0324  3020               	movlw	32
  1965     0325  022F               	subwf	___fltol@exp1,w
  1966     0326  1C03               	skipc
  1967     0327  2B29               	goto	u1751
  1968     0328  2B2A               	goto	u1750
  1969     0329                     u1751:
  1970     0329  2B36               	goto	l410
  1971     032A                     u1750:
  1972     032A  2ADF               	goto	l1507
  1973     032B                     l1535:
  1974     032B  3001               	movlw	1
  1975     032C  00AA               	movwf	??___fltol
  1976     032D                     u1765:
  1977     032D  1003               	clrc
  1978     032E  0DA6               	rlf	___fltol@f1,f
  1979     032F  0DA7               	rlf	___fltol@f1+1,f
  1980     0330  0DA8               	rlf	___fltol@f1+2,f
  1981     0331  0DA9               	rlf	___fltol@f1+3,f
  1982     0332  0BAA               	decfsz	??___fltol,f
  1983     0333  2B2D               	goto	u1765
  1984     0334  3001               	movlw	1
  1985     0335  02AF               	subwf	___fltol@exp1,f
  1986     0336                     l410:
  1987     0336  082F               	movf	___fltol@exp1,w
  1988     0337  1D03               	btfss	3,2
  1989     0338  2B3A               	goto	u1771
  1990     0339  2B3B               	goto	u1770
  1991     033A                     u1771:
  1992     033A  2B2B               	goto	l1535
  1993     033B                     u1770:
  1994     033B                     l1537:
  1995     033B  082E               	movf	___fltol@sign1,w
  1996     033C  1903               	btfsc	3,2
  1997     033D  2B3F               	goto	u1781
  1998     033E  2B40               	goto	u1780
  1999     033F                     u1781:
  2000     033F  2B4B               	goto	l413
  2001     0340                     u1780:
  2002     0340                     l1539:
  2003     0340  09A6               	comf	___fltol@f1,f
  2004     0341  09A7               	comf	___fltol@f1+1,f
  2005     0342  09A8               	comf	___fltol@f1+2,f
  2006     0343  09A9               	comf	___fltol@f1+3,f
  2007     0344  0AA6               	incf	___fltol@f1,f
  2008     0345  1903               	skipnz
  2009     0346  0AA7               	incf	___fltol@f1+1,f
  2010     0347  1903               	skipnz
  2011     0348  0AA8               	incf	___fltol@f1+2,f
  2012     0349  1903               	skipnz
  2013     034A  0AA9               	incf	___fltol@f1+3,f
  2014     034B                     l413:
  2015     034B                     l403:
  2016     034B  0008               	return
  2017     034C                     __end_of___fltol:
  2018                           
  2019                           	psect	text8
  2020     0257                     __ptext8:	
  2021 ;; *************** function _isr *****************
  2022 ;; Defined at:
  2023 ;;		line 55 in file "Postlab3slave1.c"
  2024 ;; Parameters:    Size  Location     Type
  2025 ;;		None
  2026 ;; Auto vars:     Size  Location     Type
  2027 ;;		None
  2028 ;; Return value:  Size  Location     Type
  2029 ;;                  1    wreg      void 
  2030 ;; Registers used:
  2031 ;;		wreg, status,2, status,0, pclath, cstack
  2032 ;; Tracked objects:
  2033 ;;		On entry : 0/0
  2034 ;;		On exit  : 0/0
  2035 ;;		Unchanged: 0/0
  2036 ;; Data sizes:     COMMON   BANK0   BANK1   BANK3   BANK2
  2037 ;;      Params:         0       0       0       0       0
  2038 ;;      Locals:         0       0       0       0       0
  2039 ;;      Temps:          0       6       0       0       0
  2040 ;;      Totals:         0       6       0       0       0
  2041 ;;Total ram usage:        6 bytes
  2042 ;; Hardware stack levels used: 1
  2043 ;; Hardware stack levels required when called: 1
  2044 ;; This function calls:
  2045 ;;		___awdiv
  2046 ;;		_spiWrite
  2047 ;;		i1___fltol
  2048 ;;		i1___xxtofl
  2049 ;; This function is called by:
  2050 ;;		Interrupt level 1
  2051 ;; This function uses a non-reentrant model
  2052 ;;
  2053                           
  2054     0257                     _isr:	
  2055                           ;psect for function _isr
  2056                           
  2057     0257                     i1l1421:
  2058                           
  2059                           ;Postlab3slave1.c: 56:    if(SSPIF == 1){
  2060     0257  1D8C               	btfss	12,3	;volatile
  2061     0258  2A5A               	goto	u153_21
  2062     0259  2A5B               	goto	u153_20
  2063     025A                     u153_21:
  2064     025A  2A71               	goto	i1l1427
  2065     025B                     u153_20:
  2066     025B                     i1l1423:
  2067                           
  2068                           ;Postlab3slave1.c: 58:         spiWrite(varvolt);
  2069     025B  085C               	movf	_varvolt+3,w
  2070     025C  00F3               	movwf	i1___fltol@f1+3
  2071     025D  085B               	movf	_varvolt+2,w
  2072     025E  00F2               	movwf	i1___fltol@f1+2
  2073     025F  085A               	movf	_varvolt+1,w
  2074     0260  00F1               	movwf	i1___fltol@f1+1
  2075     0261  0859               	movf	_varvolt,w
  2076     0262  00F0               	movwf	i1___fltol@f1
  2077     0263  120A  118A  234C  120A  118A  	fcall	i1___fltol
  2078     0268  0870               	movf	?i1___fltol,w
  2079     0269  120A  118A  255D  120A  118A  	fcall	_spiWrite
  2080     026E                     i1l1425:
  2081                           
  2082                           ;Postlab3slave1.c: 59:         SSPIF = 0;
  2083     026E  1283               	bcf	3,5	;RP0=0, select bank0
  2084     026F  1303               	bcf	3,6	;RP1=0, select bank0
  2085     0270  118C               	bcf	12,3	;volatile
  2086     0271                     i1l1427:
  2087                           
  2088                           ;Postlab3slave1.c: 61:    if(PIR1bits.ADIF){
  2089     0271  1F0C               	btfss	12,6	;volatile
  2090     0272  2A74               	goto	u154_21
  2091     0273  2A75               	goto	u154_20
  2092     0274                     u154_21:
  2093     0274  2ACD               	goto	i1l106
  2094     0275                     u154_20:
  2095     0275                     i1l1429:
  2096                           
  2097                           ;Postlab3slave1.c: 63:        if (ADCON0bits.CHS ==1){
  2098     0275  0C1F               	rrf	31,w	;volatile
  2099     0276  00A0               	movwf	??_isr
  2100     0277  0C20               	rrf	??_isr,w
  2101     0278  390F               	andlw	15
  2102     0279  3A01               	xorlw	1
  2103     027A  1D03               	skipz
  2104     027B  2A7D               	goto	u155_21
  2105     027C  2A7E               	goto	u155_20
  2106     027D                     u155_21:
  2107     027D  2A95               	goto	i1l1433
  2108     027E                     u155_20:
  2109     027E                     i1l1431:
  2110                           
  2111                           ;Postlab3slave1.c: 65:               valpot0 =5/ ADRESH;
  2112     027E  081E               	movf	30,w	;volatile
  2113     027F  00A0               	movwf	??_isr
  2114     0280  01A1               	clrf	??_isr+1
  2115     0281  0820               	movf	??_isr,w
  2116     0282  00F0               	movwf	___awdiv@divisor
  2117     0283  0821               	movf	??_isr+1,w
  2118     0284  00F1               	movwf	___awdiv@divisor+1
  2119     0285  3005               	movlw	5
  2120     0286  00F2               	movwf	___awdiv@dividend
  2121     0287  3000               	movlw	0
  2122     0288  00F3               	movwf	___awdiv@dividend+1
  2123     0289  120A  118A  23C2  120A  118A  	fcall	___awdiv
  2124     028E  0871               	movf	?___awdiv+1,w
  2125     028F  1283               	bcf	3,5	;RP0=0, select bank0
  2126     0290  1303               	bcf	3,6	;RP1=0, select bank0
  2127     0291  00E2               	movwf	_valpot0+1
  2128     0292  0870               	movf	?___awdiv,w
  2129     0293  00E1               	movwf	_valpot0
  2130                           
  2131                           ;Postlab3slave1.c: 67:         }
  2132     0294  2ACC               	goto	i1l1441
  2133     0295                     i1l1433:
  2134     0295  0C1F               	rrf	31,w	;volatile
  2135     0296  00A0               	movwf	??_isr
  2136     0297  0C20               	rrf	??_isr,w
  2137     0298  390F               	andlw	15
  2138     0299  3A00               	xorlw	0
  2139     029A  1D03               	skipz
  2140     029B  2A9D               	goto	u156_21
  2141     029C  2A9E               	goto	u156_20
  2142     029D                     u156_21:
  2143     029D  2ABC               	goto	i1l1437
  2144     029E                     u156_20:
  2145     029E                     i1l1435:
  2146                           
  2147                           ;Postlab3slave1.c: 70:          varvolt = ADRESH;
  2148     029E  081E               	movf	30,w	;volatile
  2149     029F  00A0               	movwf	??_isr
  2150     02A0  01A1               	clrf	??_isr+1
  2151     02A1  01A2               	clrf	??_isr+2
  2152     02A2  01A3               	clrf	??_isr+3
  2153     02A3  0823               	movf	??_isr+3,w
  2154     02A4  00F3               	movwf	i1___xxtofl@val+3
  2155     02A5  0822               	movf	??_isr+2,w
  2156     02A6  00F2               	movwf	i1___xxtofl@val+2
  2157     02A7  0821               	movf	??_isr+1,w
  2158     02A8  00F1               	movwf	i1___xxtofl@val+1
  2159     02A9  0820               	movf	??_isr,w
  2160     02AA  00F0               	movwf	i1___xxtofl@val
  2161     02AB  3000               	movlw	0
  2162     02AC  120A  118A  219F  120A  118A  	fcall	i1___xxtofl
  2163     02B1  0873               	movf	?i1___xxtofl+3,w
  2164     02B2  1283               	bcf	3,5	;RP0=0, select bank0
  2165     02B3  1303               	bcf	3,6	;RP1=0, select bank0
  2166     02B4  00DC               	movwf	_varvolt+3
  2167     02B5  0872               	movf	?i1___xxtofl+2,w
  2168     02B6  00DB               	movwf	_varvolt+2
  2169     02B7  0871               	movf	?i1___xxtofl+1,w
  2170     02B8  00DA               	movwf	_varvolt+1
  2171     02B9  0870               	movf	?i1___xxtofl,w
  2172     02BA  00D9               	movwf	_varvolt
  2173                           
  2174                           ;Postlab3slave1.c: 71:         }
  2175     02BB  2ACC               	goto	i1l1441
  2176     02BC                     i1l1437:
  2177     02BC  0C1F               	rrf	31,w	;volatile
  2178     02BD  00A0               	movwf	??_isr
  2179     02BE  0C20               	rrf	??_isr,w
  2180     02BF  390F               	andlw	15
  2181     02C0  3A02               	xorlw	2
  2182     02C1  1D03               	skipz
  2183     02C2  2AC4               	goto	u157_21
  2184     02C3  2AC5               	goto	u157_20
  2185     02C4                     u157_21:
  2186     02C4  2ACC               	goto	i1l1441
  2187     02C5                     u157_20:
  2188     02C5                     i1l1439:
  2189                           
  2190                           ;Postlab3slave1.c: 73:             val = ADRESH;
  2191     02C5  081E               	movf	30,w	;volatile
  2192     02C6  00A0               	movwf	??_isr
  2193     02C7  01A1               	clrf	??_isr+1
  2194     02C8  0820               	movf	??_isr,w
  2195     02C9  00DD               	movwf	_val
  2196     02CA  0821               	movf	??_isr+1,w
  2197     02CB  00DE               	movwf	_val+1
  2198     02CC                     i1l1441:
  2199                           
  2200                           ;Postlab3slave1.c: 75:             PIR1bits.ADIF =0;
  2201     02CC  130C               	bcf	12,6	;volatile
  2202     02CD                     i1l106:
  2203     02CD  0825               	movf	??_isr+5,w
  2204     02CE  008A               	movwf	10
  2205     02CF  0E24               	swapf	??_isr+4,w
  2206     02D0  0083               	movwf	3
  2207     02D1  0EFE               	swapf	btemp,f
  2208     02D2  0E7E               	swapf	btemp,w
  2209     02D3  0009               	retfie
  2210     02D4                     __end_of_isr:
  2211                           
  2212                           	psect	intentry
  2213     0004                     __pintentry:	
  2214                           ;incstack = 0
  2215                           ; Regs used in _isr: [wreg+status,2+status,0+pclath+cstack]
  2216                           
  2217     0004                     interrupt_function:
  2218     007E                     saved_w	set	btemp
  2219     0004  00FE               	movwf	btemp
  2220     0005  0E03               	swapf	3,w
  2221     0006  1283               	bcf	3,5	;RP0=0, select bank0
  2222     0007  1303               	bcf	3,6	;RP1=0, select bank0
  2223     0008  00A4               	movwf	??_isr+4
  2224     0009  080A               	movf	10,w
  2225     000A  00A5               	movwf	??_isr+5
  2226     000B  120A  118A  2A57   	ljmp	_isr
  2227                           
  2228                           	psect	text9
  2229     019F                     __ptext9:	
  2230 ;; *************** function i1___xxtofl *****************
  2231 ;; Defined at:
  2232 ;;		line 10 in file "C:\Program Files\Microchip\xc8\v2.40\pic\sources\c90\common\xxtofl.c"
  2233 ;; Parameters:    Size  Location     Type
  2234 ;;  sign            1    wreg     unsigned char 
  2235 ;;  val             4    0[COMMON] long 
  2236 ;; Auto vars:     Size  Location     Type
  2237 ;;  sign            1    8[COMMON] unsigned char 
  2238 ;;  arg             4   10[COMMON] unsigned long 
  2239 ;;  exp             1    9[COMMON] unsigned char 
  2240 ;; Return value:  Size  Location     Type
  2241 ;;                  4    0[COMMON] unsigned char 
  2242 ;; Registers used:
  2243 ;;		wreg, status,2, status,0
  2244 ;; Tracked objects:
  2245 ;;		On entry : 0/0
  2246 ;;		On exit  : 0/0
  2247 ;;		Unchanged: 0/0
  2248 ;; Data sizes:     COMMON   BANK0   BANK1   BANK3   BANK2
  2249 ;;      Params:         4       0       0       0       0
  2250 ;;      Locals:         6       0       0       0       0
  2251 ;;      Temps:          4       0       0       0       0
  2252 ;;      Totals:        14       0       0       0       0
  2253 ;;Total ram usage:       14 bytes
  2254 ;; Hardware stack levels used: 1
  2255 ;; This function calls:
  2256 ;;		Nothing
  2257 ;; This function is called by:
  2258 ;;		_isr
  2259 ;; This function uses a non-reentrant model
  2260 ;;
  2261                           
  2262     019F                     i1___xxtofl:	
  2263                           ;psect for function i1___xxtofl
  2264                           
  2265                           
  2266                           ;incstack = 0
  2267                           ; Regs used in i1___xxtofl: [wreg+status,2+status,0]
  2268                           ;i1___xxtofl@sign stored from wreg
  2269     019F  00F8               	movwf	i1___xxtofl@sign
  2270     01A0                     i1l1377:
  2271     01A0  0878               	movf	i1___xxtofl@sign,w
  2272     01A1  1903               	btfsc	3,2
  2273     01A2  29A4               	goto	u139_21
  2274     01A3  29A5               	goto	u139_20
  2275     01A4                     u139_21:
  2276     01A4  29B9               	goto	i1l1383
  2277     01A5                     u139_20:
  2278     01A5                     i1l1379:
  2279     01A5  1FF3               	btfss	i1___xxtofl@val+3,7
  2280     01A6  29A8               	goto	u140_21
  2281     01A7  29A9               	goto	u140_20
  2282     01A8                     u140_21:
  2283     01A8  29B9               	goto	i1l1383
  2284     01A9                     u140_20:
  2285     01A9                     i1l1381:
  2286     01A9  0970               	comf	i1___xxtofl@val,w
  2287     01AA  00FA               	movwf	i1___xxtofl@arg
  2288     01AB  0971               	comf	i1___xxtofl@val+1,w
  2289     01AC  00FB               	movwf	i1___xxtofl@arg+1
  2290     01AD  0972               	comf	i1___xxtofl@val+2,w
  2291     01AE  00FC               	movwf	i1___xxtofl@arg+2
  2292     01AF  0973               	comf	i1___xxtofl@val+3,w
  2293     01B0  00FD               	movwf	i1___xxtofl@arg+3
  2294     01B1  0AFA               	incf	i1___xxtofl@arg,f
  2295     01B2  1903               	skipnz
  2296     01B3  0AFB               	incf	i1___xxtofl@arg+1,f
  2297     01B4  1903               	skipnz
  2298     01B5  0AFC               	incf	i1___xxtofl@arg+2,f
  2299     01B6  1903               	skipnz
  2300     01B7  0AFD               	incf	i1___xxtofl@arg+3,f
  2301     01B8  29C1               	goto	i1l650
  2302     01B9                     i1l1383:
  2303     01B9  0873               	movf	i1___xxtofl@val+3,w
  2304     01BA  00FD               	movwf	i1___xxtofl@arg+3
  2305     01BB  0872               	movf	i1___xxtofl@val+2,w
  2306     01BC  00FC               	movwf	i1___xxtofl@arg+2
  2307     01BD  0871               	movf	i1___xxtofl@val+1,w
  2308     01BE  00FB               	movwf	i1___xxtofl@arg+1
  2309     01BF  0870               	movf	i1___xxtofl@val,w
  2310     01C0  00FA               	movwf	i1___xxtofl@arg
  2311     01C1                     i1l650:
  2312     01C1  0873               	movf	i1___xxtofl@val+3,w
  2313     01C2  0472               	iorwf	i1___xxtofl@val+2,w
  2314     01C3  0471               	iorwf	i1___xxtofl@val+1,w
  2315     01C4  0470               	iorwf	i1___xxtofl@val,w
  2316     01C5  1D03               	skipz
  2317     01C6  29C8               	goto	u141_21
  2318     01C7  29C9               	goto	u141_20
  2319     01C8                     u141_21:
  2320     01C8  29D2               	goto	i1l1389
  2321     01C9                     u141_20:
  2322     01C9                     i1l1385:
  2323     01C9  3000               	movlw	0
  2324     01CA  00F3               	movwf	?i1___xxtofl+3
  2325     01CB  3000               	movlw	0
  2326     01CC  00F2               	movwf	?i1___xxtofl+2
  2327     01CD  3000               	movlw	0
  2328     01CE  00F1               	movwf	?i1___xxtofl+1
  2329     01CF  3000               	movlw	0
  2330     01D0  00F0               	movwf	?i1___xxtofl
  2331     01D1  2A56               	goto	i1l652
  2332     01D2                     i1l1389:
  2333     01D2  3096               	movlw	150
  2334     01D3  00F9               	movwf	i1___xxtofl@exp
  2335     01D4  29E2               	goto	i1l1393
  2336     01D5                     i1l1391:
  2337     01D5  3001               	movlw	1
  2338     01D6  00F4               	movwf	??i1___xxtofl
  2339     01D7  0874               	movf	??i1___xxtofl,w
  2340     01D8  07F9               	addwf	i1___xxtofl@exp,f
  2341     01D9  3001               	movlw	1
  2342     01DA                     u142_25:
  2343     01DA  1003               	clrc
  2344     01DB  0CFD               	rrf	i1___xxtofl@arg+3,f
  2345     01DC  0CFC               	rrf	i1___xxtofl@arg+2,f
  2346     01DD  0CFB               	rrf	i1___xxtofl@arg+1,f
  2347     01DE  0CFA               	rrf	i1___xxtofl@arg,f
  2348     01DF  3EFF               	addlw	-1
  2349     01E0  1D03               	skipz
  2350     01E1  29DA               	goto	u142_25
  2351     01E2                     i1l1393:
  2352     01E2  30FE               	movlw	254
  2353     01E3  057D               	andwf	i1___xxtofl@arg+3,w
  2354     01E4  1D03               	btfss	3,2
  2355     01E5  29E7               	goto	u143_21
  2356     01E6  29E8               	goto	u143_20
  2357     01E7                     u143_21:
  2358     01E7  29D5               	goto	i1l1391
  2359     01E8                     u143_20:
  2360     01E8  2A04               	goto	i1l656
  2361     01E9                     i1l1395:
  2362     01E9  3001               	movlw	1
  2363     01EA  00F4               	movwf	??i1___xxtofl
  2364     01EB  0874               	movf	??i1___xxtofl,w
  2365     01EC  07F9               	addwf	i1___xxtofl@exp,f
  2366     01ED                     i1l1397:
  2367     01ED  3001               	movlw	1
  2368     01EE  07FA               	addwf	i1___xxtofl@arg,f
  2369     01EF  3000               	movlw	0
  2370     01F0  1803               	skipnc
  2371     01F1  3001               	movlw	1
  2372     01F2  07FB               	addwf	i1___xxtofl@arg+1,f
  2373     01F3  3000               	movlw	0
  2374     01F4  1803               	skipnc
  2375     01F5  3001               	movlw	1
  2376     01F6  07FC               	addwf	i1___xxtofl@arg+2,f
  2377     01F7  3000               	movlw	0
  2378     01F8  1803               	skipnc
  2379     01F9  3001               	movlw	1
  2380     01FA  07FD               	addwf	i1___xxtofl@arg+3,f
  2381     01FB                     i1l1399:
  2382     01FB  3001               	movlw	1
  2383     01FC                     u144_25:
  2384     01FC  1003               	clrc
  2385     01FD  0CFD               	rrf	i1___xxtofl@arg+3,f
  2386     01FE  0CFC               	rrf	i1___xxtofl@arg+2,f
  2387     01FF  0CFB               	rrf	i1___xxtofl@arg+1,f
  2388     0200  0CFA               	rrf	i1___xxtofl@arg,f
  2389     0201  3EFF               	addlw	-1
  2390     0202  1D03               	skipz
  2391     0203  29FC               	goto	u144_25
  2392     0204                     i1l656:
  2393     0204  30FF               	movlw	255
  2394     0205  057D               	andwf	i1___xxtofl@arg+3,w
  2395     0206  1D03               	btfss	3,2
  2396     0207  2A09               	goto	u145_21
  2397     0208  2A0A               	goto	u145_20
  2398     0209                     u145_21:
  2399     0209  29E9               	goto	i1l1395
  2400     020A                     u145_20:
  2401     020A  2A16               	goto	i1l1403
  2402     020B                     i1l1401:
  2403     020B  3001               	movlw	1
  2404     020C  02F9               	subwf	i1___xxtofl@exp,f
  2405     020D  3001               	movlw	1
  2406     020E  00F4               	movwf	??i1___xxtofl
  2407     020F                     u146_25:
  2408     020F  1003               	clrc
  2409     0210  0DFA               	rlf	i1___xxtofl@arg,f
  2410     0211  0DFB               	rlf	i1___xxtofl@arg+1,f
  2411     0212  0DFC               	rlf	i1___xxtofl@arg+2,f
  2412     0213  0DFD               	rlf	i1___xxtofl@arg+3,f
  2413     0214  0BF4               	decfsz	??i1___xxtofl,f
  2414     0215  2A0F               	goto	u146_25
  2415     0216                     i1l1403:
  2416     0216  1BFC               	btfsc	i1___xxtofl@arg+2,7
  2417     0217  2A19               	goto	u147_21
  2418     0218  2A1A               	goto	u147_20
  2419     0219                     u147_21:
  2420     0219  2A20               	goto	i1l663
  2421     021A                     u147_20:
  2422     021A                     i1l1405:
  2423     021A  3002               	movlw	2
  2424     021B  0279               	subwf	i1___xxtofl@exp,w
  2425     021C  1803               	skipnc
  2426     021D  2A1F               	goto	u148_21
  2427     021E  2A20               	goto	u148_20
  2428     021F                     u148_21:
  2429     021F  2A0B               	goto	i1l1401
  2430     0220                     u148_20:
  2431     0220                     i1l663:
  2432     0220  1879               	btfsc	i1___xxtofl@exp,0
  2433     0221  2A23               	goto	u149_21
  2434     0222  2A24               	goto	u149_20
  2435     0223                     u149_21:
  2436     0223  2A2C               	goto	i1l664
  2437     0224                     u149_20:
  2438     0224                     i1l1407:
  2439     0224  30FF               	movlw	255
  2440     0225  05FA               	andwf	i1___xxtofl@arg,f
  2441     0226  30FF               	movlw	255
  2442     0227  05FB               	andwf	i1___xxtofl@arg+1,f
  2443     0228  307F               	movlw	127
  2444     0229  05FC               	andwf	i1___xxtofl@arg+2,f
  2445     022A  30FF               	movlw	255
  2446     022B  05FD               	andwf	i1___xxtofl@arg+3,f
  2447     022C                     i1l664:
  2448     022C  1003               	clrc
  2449     022D  0CF9               	rrf	i1___xxtofl@exp,f
  2450     022E                     i1l1409:
  2451     022E  0879               	movf	i1___xxtofl@exp,w
  2452     022F  00F4               	movwf	??i1___xxtofl
  2453     0230  01F5               	clrf	??i1___xxtofl+1
  2454     0231  01F6               	clrf	??i1___xxtofl+2
  2455     0232  01F7               	clrf	??i1___xxtofl+3
  2456     0233  3018               	movlw	24
  2457     0234                     u150_25:
  2458     0234  1003               	clrc
  2459     0235  0DF4               	rlf	??i1___xxtofl,f
  2460     0236  0DF5               	rlf	??i1___xxtofl+1,f
  2461     0237  0DF6               	rlf	??i1___xxtofl+2,f
  2462     0238  0DF7               	rlf	??i1___xxtofl+3,f
  2463     0239                     u150_20:
  2464     0239  3EFF               	addlw	-1
  2465     023A  1D03               	skipz
  2466     023B  2A34               	goto	u150_25
  2467     023C  0874               	movf	??i1___xxtofl,w
  2468     023D  04FA               	iorwf	i1___xxtofl@arg,f
  2469     023E  0875               	movf	??i1___xxtofl+1,w
  2470     023F  04FB               	iorwf	i1___xxtofl@arg+1,f
  2471     0240  0876               	movf	??i1___xxtofl+2,w
  2472     0241  04FC               	iorwf	i1___xxtofl@arg+2,f
  2473     0242  0877               	movf	??i1___xxtofl+3,w
  2474     0243  04FD               	iorwf	i1___xxtofl@arg+3,f
  2475     0244                     i1l1411:
  2476     0244  0878               	movf	i1___xxtofl@sign,w
  2477     0245  1903               	btfsc	3,2
  2478     0246  2A48               	goto	u151_21
  2479     0247  2A49               	goto	u151_20
  2480     0248                     u151_21:
  2481     0248  2A4E               	goto	i1l1417
  2482     0249                     u151_20:
  2483     0249                     i1l1413:
  2484     0249  1FF3               	btfss	i1___xxtofl@val+3,7
  2485     024A  2A4C               	goto	u152_21
  2486     024B  2A4D               	goto	u152_20
  2487     024C                     u152_21:
  2488     024C  2A4E               	goto	i1l1417
  2489     024D                     u152_20:
  2490     024D                     i1l1415:
  2491     024D  17FD               	bsf	i1___xxtofl@arg+3,7
  2492     024E                     i1l1417:
  2493     024E  087D               	movf	i1___xxtofl@arg+3,w
  2494     024F  00F3               	movwf	?i1___xxtofl+3
  2495     0250  087C               	movf	i1___xxtofl@arg+2,w
  2496     0251  00F2               	movwf	?i1___xxtofl+2
  2497     0252  087B               	movf	i1___xxtofl@arg+1,w
  2498     0253  00F1               	movwf	?i1___xxtofl+1
  2499     0254  087A               	movf	i1___xxtofl@arg,w
  2500     0255  00F0               	movwf	?i1___xxtofl
  2501     0256                     i1l652:
  2502     0256  0008               	return
  2503     0257                     __end_ofi1___xxtofl:
  2504                           
  2505                           	psect	text10
  2506     034C                     __ptext10:	
  2507 ;; *************** function i1___fltol *****************
  2508 ;; Defined at:
  2509 ;;		line 43 in file "C:\Program Files\Microchip\xc8\v2.40\pic\sources\c90\common\fltol.c"
  2510 ;; Parameters:    Size  Location     Type
  2511 ;;  f1              4    0[COMMON] unsigned char 
  2512 ;; Auto vars:     Size  Location     Type
  2513 ;;  exp1            1    9[COMMON] unsigned char 
  2514 ;;  sign1           1    8[COMMON] unsigned char 
  2515 ;; Return value:  Size  Location     Type
  2516 ;;                  4    0[COMMON] long 
  2517 ;; Registers used:
  2518 ;;		wreg, status,2, status,0
  2519 ;; Tracked objects:
  2520 ;;		On entry : 0/0
  2521 ;;		On exit  : 0/0
  2522 ;;		Unchanged: 0/0
  2523 ;; Data sizes:     COMMON   BANK0   BANK1   BANK3   BANK2
  2524 ;;      Params:         4       0       0       0       0
  2525 ;;      Locals:         2       0       0       0       0
  2526 ;;      Temps:          4       0       0       0       0
  2527 ;;      Totals:        10       0       0       0       0
  2528 ;;Total ram usage:       10 bytes
  2529 ;; Hardware stack levels used: 1
  2530 ;; This function calls:
  2531 ;;		Nothing
  2532 ;; This function is called by:
  2533 ;;		_isr
  2534 ;; This function uses a non-reentrant model
  2535 ;;
  2536                           
  2537     034C                     i1___fltol:	
  2538                           ;psect for function i1___fltol
  2539                           
  2540     034C                     i1l1341:	
  2541                           ;incstack = 0
  2542                           ; Regs used in i1___fltol: [wreg+status,2+status,0]
  2543                           
  2544     034C  1003               	clrc
  2545     034D  0D72               	rlf	i1___fltol@f1+2,w
  2546     034E  0D73               	rlf	i1___fltol@f1+3,w
  2547     034F  00F9               	movwf	i1___fltol@exp1
  2548     0350  0879               	movf	i1___fltol@exp1,w
  2549     0351  1D03               	btfss	3,2
  2550     0352  2B54               	goto	u129_21
  2551     0353  2B55               	goto	u129_20
  2552     0354                     u129_21:
  2553     0354  2B5E               	goto	i1l1347
  2554     0355                     u129_20:
  2555     0355                     i1l1343:
  2556     0355  3000               	movlw	0
  2557     0356  00F3               	movwf	?i1___fltol+3
  2558     0357  3000               	movlw	0
  2559     0358  00F2               	movwf	?i1___fltol+2
  2560     0359  3000               	movlw	0
  2561     035A  00F1               	movwf	?i1___fltol+1
  2562     035B  3000               	movlw	0
  2563     035C  00F0               	movwf	?i1___fltol
  2564     035D  2BC1               	goto	i1l403
  2565     035E                     i1l1347:
  2566     035E  0870               	movf	i1___fltol@f1,w
  2567     035F  00F4               	movwf	??i1___fltol
  2568     0360  0871               	movf	i1___fltol@f1+1,w
  2569     0361  00F5               	movwf	??i1___fltol+1
  2570     0362  0872               	movf	i1___fltol@f1+2,w
  2571     0363  00F6               	movwf	??i1___fltol+2
  2572     0364  0873               	movf	i1___fltol@f1+3,w
  2573     0365  00F7               	movwf	??i1___fltol+3
  2574     0366  301F               	movlw	31
  2575     0367                     u130_25:
  2576     0367  1003               	clrc
  2577     0368  0CF7               	rrf	??i1___fltol+3,f
  2578     0369  0CF6               	rrf	??i1___fltol+2,f
  2579     036A  0CF5               	rrf	??i1___fltol+1,f
  2580     036B  0CF4               	rrf	??i1___fltol,f
  2581     036C                     u130_20:
  2582     036C  3EFF               	addlw	-1
  2583     036D  1D03               	skipz
  2584     036E  2B67               	goto	u130_25
  2585     036F  0874               	movf	??i1___fltol,w
  2586     0370  00F8               	movwf	i1___fltol@sign1
  2587     0371                     i1l1349:
  2588     0371  17F2               	bsf	i1___fltol@f1+2,7
  2589     0372                     i1l1351:
  2590     0372  30FF               	movlw	255
  2591     0373  05F0               	andwf	i1___fltol@f1,f
  2592     0374  30FF               	movlw	255
  2593     0375  05F1               	andwf	i1___fltol@f1+1,f
  2594     0376  30FF               	movlw	255
  2595     0377  05F2               	andwf	i1___fltol@f1+2,f
  2596     0378  3000               	movlw	0
  2597     0379  05F3               	andwf	i1___fltol@f1+3,f
  2598     037A                     i1l1353:
  2599     037A  3096               	movlw	150
  2600     037B  02F9               	subwf	i1___fltol@exp1,f
  2601     037C                     i1l1355:
  2602     037C  1FF9               	btfss	i1___fltol@exp1,7
  2603     037D  2B7F               	goto	u131_21
  2604     037E  2B80               	goto	u131_20
  2605     037F                     u131_21:
  2606     037F  2B9A               	goto	i1l1365
  2607     0380                     u131_20:
  2608     0380                     i1l1357:
  2609     0380  0879               	movf	i1___fltol@exp1,w
  2610     0381  3A80               	xorlw	128
  2611     0382  3E97               	addlw	151
  2612     0383  1803               	skipnc
  2613     0384  2B86               	goto	u132_21
  2614     0385  2B87               	goto	u132_20
  2615     0386                     u132_21:
  2616     0386  2B88               	goto	i1l1363
  2617     0387                     u132_20:
  2618     0387  2B55               	goto	i1l1343
  2619     0388                     i1l1363:
  2620     0388  3001               	movlw	1
  2621     0389                     u133_25:
  2622     0389  1003               	clrc
  2623     038A  0CF3               	rrf	i1___fltol@f1+3,f
  2624     038B  0CF2               	rrf	i1___fltol@f1+2,f
  2625     038C  0CF1               	rrf	i1___fltol@f1+1,f
  2626     038D  0CF0               	rrf	i1___fltol@f1,f
  2627     038E  3EFF               	addlw	-1
  2628     038F  1D03               	skipz
  2629     0390  2B89               	goto	u133_25
  2630     0391  3001               	movlw	1
  2631     0392  00F4               	movwf	??i1___fltol
  2632     0393  0874               	movf	??i1___fltol,w
  2633     0394  07F9               	addwf	i1___fltol@exp1,f
  2634     0395  1D03               	btfss	3,2
  2635     0396  2B98               	goto	u134_21
  2636     0397  2B99               	goto	u134_20
  2637     0398                     u134_21:
  2638     0398  2B88               	goto	i1l1363
  2639     0399                     u134_20:
  2640     0399  2BB1               	goto	i1l1373
  2641     039A                     i1l1365:
  2642     039A  3020               	movlw	32
  2643     039B  0279               	subwf	i1___fltol@exp1,w
  2644     039C  1C03               	skipc
  2645     039D  2B9F               	goto	u135_21
  2646     039E  2BA0               	goto	u135_20
  2647     039F                     u135_21:
  2648     039F  2BAC               	goto	i1l410
  2649     03A0                     u135_20:
  2650     03A0  2B55               	goto	i1l1343
  2651     03A1                     i1l1371:
  2652     03A1  3001               	movlw	1
  2653     03A2  00F4               	movwf	??i1___fltol
  2654     03A3                     u136_25:
  2655     03A3  1003               	clrc
  2656     03A4  0DF0               	rlf	i1___fltol@f1,f
  2657     03A5  0DF1               	rlf	i1___fltol@f1+1,f
  2658     03A6  0DF2               	rlf	i1___fltol@f1+2,f
  2659     03A7  0DF3               	rlf	i1___fltol@f1+3,f
  2660     03A8  0BF4               	decfsz	??i1___fltol,f
  2661     03A9  2BA3               	goto	u136_25
  2662     03AA  3001               	movlw	1
  2663     03AB  02F9               	subwf	i1___fltol@exp1,f
  2664     03AC                     i1l410:
  2665     03AC  0879               	movf	i1___fltol@exp1,w
  2666     03AD  1D03               	btfss	3,2
  2667     03AE  2BB0               	goto	u137_21
  2668     03AF  2BB1               	goto	u137_20
  2669     03B0                     u137_21:
  2670     03B0  2BA1               	goto	i1l1371
  2671     03B1                     u137_20:
  2672     03B1                     i1l1373:
  2673     03B1  0878               	movf	i1___fltol@sign1,w
  2674     03B2  1903               	btfsc	3,2
  2675     03B3  2BB5               	goto	u138_21
  2676     03B4  2BB6               	goto	u138_20
  2677     03B5                     u138_21:
  2678     03B5  2BC1               	goto	i1l413
  2679     03B6                     u138_20:
  2680     03B6                     i1l1375:
  2681     03B6  09F0               	comf	i1___fltol@f1,f
  2682     03B7  09F1               	comf	i1___fltol@f1+1,f
  2683     03B8  09F2               	comf	i1___fltol@f1+2,f
  2684     03B9  09F3               	comf	i1___fltol@f1+3,f
  2685     03BA  0AF0               	incf	i1___fltol@f1,f
  2686     03BB  1903               	skipnz
  2687     03BC  0AF1               	incf	i1___fltol@f1+1,f
  2688     03BD  1903               	skipnz
  2689     03BE  0AF2               	incf	i1___fltol@f1+2,f
  2690     03BF  1903               	skipnz
  2691     03C0  0AF3               	incf	i1___fltol@f1+3,f
  2692     03C1                     i1l413:
  2693     03C1                     i1l403:
  2694     03C1  0008               	return
  2695     03C2                     __end_ofi1___fltol:
  2696                           
  2697                           	psect	text11
  2698     055D                     __ptext11:	
  2699 ;; *************** function _spiWrite *****************
  2700 ;; Defined at:
  2701 ;;		line 34 in file "SPI.c"
  2702 ;; Parameters:    Size  Location     Type
  2703 ;;  dat             1    wreg     unsigned char 
  2704 ;; Auto vars:     Size  Location     Type
  2705 ;;  dat             1    0[COMMON] unsigned char 
  2706 ;; Return value:  Size  Location     Type
  2707 ;;                  1    wreg      void 
  2708 ;; Registers used:
  2709 ;;		wreg
  2710 ;; Tracked objects:
  2711 ;;		On entry : 0/0
  2712 ;;		On exit  : 0/0
  2713 ;;		Unchanged: 0/0
  2714 ;; Data sizes:     COMMON   BANK0   BANK1   BANK3   BANK2
  2715 ;;      Params:         0       0       0       0       0
  2716 ;;      Locals:         1       0       0       0       0
  2717 ;;      Temps:          0       0       0       0       0
  2718 ;;      Totals:         1       0       0       0       0
  2719 ;;Total ram usage:        1 bytes
  2720 ;; Hardware stack levels used: 1
  2721 ;; This function calls:
  2722 ;;		Nothing
  2723 ;; This function is called by:
  2724 ;;		_isr
  2725 ;; This function uses a non-reentrant model
  2726 ;;
  2727                           
  2728     055D                     _spiWrite:	
  2729                           ;psect for function _spiWrite
  2730                           
  2731                           
  2732                           ;incstack = 0
  2733                           ; Regs used in _spiWrite: [wreg]
  2734                           ;spiWrite@dat stored from wreg
  2735     055D  00F0               	movwf	spiWrite@dat
  2736     055E                     i1l1239:
  2737                           
  2738                           ;SPI.c: 34: void spiWrite(char dat);SPI.c: 35: {;SPI.c: 36:     SSPBUF = dat;
  2739     055E  0870               	movf	spiWrite@dat,w
  2740     055F  1283               	bcf	3,5	;RP0=0, select bank0
  2741     0560  1303               	bcf	3,6	;RP1=0, select bank0
  2742     0561  0093               	movwf	19	;volatile
  2743     0562                     i1l26:
  2744     0562  0008               	return
  2745     0563                     __end_of_spiWrite:
  2746                           
  2747                           	psect	text12
  2748     03C2                     __ptext12:	
  2749 ;; *************** function ___awdiv *****************
  2750 ;; Defined at:
  2751 ;;		line 5 in file "C:\Program Files\Microchip\xc8\v2.40\pic\sources\c90\common\awdiv.c"
  2752 ;; Parameters:    Size  Location     Type
  2753 ;;  divisor         2    0[COMMON] int 
  2754 ;;  dividend        2    2[COMMON] int 
  2755 ;; Auto vars:     Size  Location     Type
  2756 ;;  quotient        2    7[COMMON] int 
  2757 ;;  sign            1    6[COMMON] unsigned char 
  2758 ;;  counter         1    5[COMMON] unsigned char 
  2759 ;; Return value:  Size  Location     Type
  2760 ;;                  2    0[COMMON] int 
  2761 ;; Registers used:
  2762 ;;		wreg, status,2, status,0
  2763 ;; Tracked objects:
  2764 ;;		On entry : 0/0
  2765 ;;		On exit  : 0/0
  2766 ;;		Unchanged: 0/0
  2767 ;; Data sizes:     COMMON   BANK0   BANK1   BANK3   BANK2
  2768 ;;      Params:         4       0       0       0       0
  2769 ;;      Locals:         4       0       0       0       0
  2770 ;;      Temps:          1       0       0       0       0
  2771 ;;      Totals:         9       0       0       0       0
  2772 ;;Total ram usage:        9 bytes
  2773 ;; Hardware stack levels used: 1
  2774 ;; This function calls:
  2775 ;;		Nothing
  2776 ;; This function is called by:
  2777 ;;		_isr
  2778 ;; This function uses a non-reentrant model
  2779 ;;
  2780                           
  2781     03C2                     ___awdiv:	
  2782                           ;psect for function ___awdiv
  2783                           
  2784     03C2                     i1l1297:	
  2785                           ;incstack = 0
  2786                           ; Regs used in ___awdiv: [wreg+status,2+status,0]
  2787                           
  2788     03C2  01F6               	clrf	___awdiv@sign
  2789     03C3                     i1l1299:
  2790     03C3  1FF1               	btfss	___awdiv@divisor+1,7
  2791     03C4  2BC6               	goto	u119_21
  2792     03C5  2BC7               	goto	u119_20
  2793     03C6                     u119_21:
  2794     03C6  2BCE               	goto	i1l1305
  2795     03C7                     u119_20:
  2796     03C7                     i1l1301:
  2797     03C7  09F0               	comf	___awdiv@divisor,f
  2798     03C8  09F1               	comf	___awdiv@divisor+1,f
  2799     03C9  0AF0               	incf	___awdiv@divisor,f
  2800     03CA  1903               	skipnz
  2801     03CB  0AF1               	incf	___awdiv@divisor+1,f
  2802     03CC                     i1l1303:
  2803     03CC  01F6               	clrf	___awdiv@sign
  2804     03CD  0AF6               	incf	___awdiv@sign,f
  2805     03CE                     i1l1305:
  2806     03CE  1FF3               	btfss	___awdiv@dividend+1,7
  2807     03CF  2BD1               	goto	u120_21
  2808     03D0  2BD2               	goto	u120_20
  2809     03D1                     u120_21:
  2810     03D1  2BDB               	goto	i1l1311
  2811     03D2                     u120_20:
  2812     03D2                     i1l1307:
  2813     03D2  09F2               	comf	___awdiv@dividend,f
  2814     03D3  09F3               	comf	___awdiv@dividend+1,f
  2815     03D4  0AF2               	incf	___awdiv@dividend,f
  2816     03D5  1903               	skipnz
  2817     03D6  0AF3               	incf	___awdiv@dividend+1,f
  2818     03D7                     i1l1309:
  2819     03D7  3001               	movlw	1
  2820     03D8  00F4               	movwf	??___awdiv
  2821     03D9  0874               	movf	??___awdiv,w
  2822     03DA  06F6               	xorwf	___awdiv@sign,f
  2823     03DB                     i1l1311:
  2824     03DB  01F7               	clrf	___awdiv@quotient
  2825     03DC  01F8               	clrf	___awdiv@quotient+1
  2826     03DD                     i1l1313:
  2827     03DD  0870               	movf	___awdiv@divisor,w
  2828     03DE  0471               	iorwf	___awdiv@divisor+1,w
  2829     03DF  1903               	btfsc	3,2
  2830     03E0  2BE2               	goto	u121_21
  2831     03E1  2BE3               	goto	u121_20
  2832     03E2                     u121_21:
  2833     03E2  2C1A               	goto	i1l1333
  2834     03E3                     u121_20:
  2835     03E3                     i1l1315:
  2836     03E3  01F5               	clrf	___awdiv@counter
  2837     03E4  0AF5               	incf	___awdiv@counter,f
  2838     03E5  2BF1               	goto	i1l1321
  2839     03E6                     i1l1317:
  2840     03E6  3001               	movlw	1
  2841     03E7                     u122_25:
  2842     03E7  1003               	clrc
  2843     03E8  0DF0               	rlf	___awdiv@divisor,f
  2844     03E9  0DF1               	rlf	___awdiv@divisor+1,f
  2845     03EA  3EFF               	addlw	-1
  2846     03EB  1D03               	skipz
  2847     03EC  2BE7               	goto	u122_25
  2848     03ED                     i1l1319:
  2849     03ED  3001               	movlw	1
  2850     03EE  00F4               	movwf	??___awdiv
  2851     03EF  0874               	movf	??___awdiv,w
  2852     03F0  07F5               	addwf	___awdiv@counter,f
  2853     03F1                     i1l1321:
  2854     03F1  1FF1               	btfss	___awdiv@divisor+1,7
  2855     03F2  2BF4               	goto	u123_21
  2856     03F3  2BF5               	goto	u123_20
  2857     03F4                     u123_21:
  2858     03F4  2BE6               	goto	i1l1317
  2859     03F5                     u123_20:
  2860     03F5                     i1l1323:
  2861     03F5  3001               	movlw	1
  2862     03F6                     u124_25:
  2863     03F6  1003               	clrc
  2864     03F7  0DF7               	rlf	___awdiv@quotient,f
  2865     03F8  0DF8               	rlf	___awdiv@quotient+1,f
  2866     03F9  3EFF               	addlw	-1
  2867     03FA  1D03               	skipz
  2868     03FB  2BF6               	goto	u124_25
  2869     03FC  0871               	movf	___awdiv@divisor+1,w
  2870     03FD  0273               	subwf	___awdiv@dividend+1,w
  2871     03FE  1D03               	skipz
  2872     03FF  2C02               	goto	u125_25
  2873     0400  0870               	movf	___awdiv@divisor,w
  2874     0401  0272               	subwf	___awdiv@dividend,w
  2875     0402                     u125_25:
  2876     0402  1C03               	skipc
  2877     0403  2C05               	goto	u125_21
  2878     0404  2C06               	goto	u125_20
  2879     0405                     u125_21:
  2880     0405  2C0D               	goto	i1l1329
  2881     0406                     u125_20:
  2882     0406                     i1l1325:
  2883     0406  0870               	movf	___awdiv@divisor,w
  2884     0407  02F2               	subwf	___awdiv@dividend,f
  2885     0408  0871               	movf	___awdiv@divisor+1,w
  2886     0409  1C03               	skipc
  2887     040A  03F3               	decf	___awdiv@dividend+1,f
  2888     040B  02F3               	subwf	___awdiv@dividend+1,f
  2889     040C                     i1l1327:
  2890     040C  1477               	bsf	___awdiv@quotient,0
  2891     040D                     i1l1329:
  2892     040D  3001               	movlw	1
  2893     040E                     u126_25:
  2894     040E  1003               	clrc
  2895     040F  0CF1               	rrf	___awdiv@divisor+1,f
  2896     0410  0CF0               	rrf	___awdiv@divisor,f
  2897     0411  3EFF               	addlw	-1
  2898     0412  1D03               	skipz
  2899     0413  2C0E               	goto	u126_25
  2900     0414                     i1l1331:
  2901     0414  3001               	movlw	1
  2902     0415  02F5               	subwf	___awdiv@counter,f
  2903     0416  1D03               	btfss	3,2
  2904     0417  2C19               	goto	u127_21
  2905     0418  2C1A               	goto	u127_20
  2906     0419                     u127_21:
  2907     0419  2BF5               	goto	i1l1323
  2908     041A                     u127_20:
  2909     041A                     i1l1333:
  2910     041A  0876               	movf	___awdiv@sign,w
  2911     041B  1903               	btfsc	3,2
  2912     041C  2C1E               	goto	u128_21
  2913     041D  2C1F               	goto	u128_20
  2914     041E                     u128_21:
  2915     041E  2C24               	goto	i1l1337
  2916     041F                     u128_20:
  2917     041F                     i1l1335:
  2918     041F  09F7               	comf	___awdiv@quotient,f
  2919     0420  09F8               	comf	___awdiv@quotient+1,f
  2920     0421  0AF7               	incf	___awdiv@quotient,f
  2921     0422  1903               	skipnz
  2922     0423  0AF8               	incf	___awdiv@quotient+1,f
  2923     0424                     i1l1337:
  2924     0424  0878               	movf	___awdiv@quotient+1,w
  2925     0425  00F1               	movwf	?___awdiv+1
  2926     0426  0877               	movf	___awdiv@quotient,w
  2927     0427  00F0               	movwf	?___awdiv
  2928     0428                     i1l370:
  2929     0428  0008               	return
  2930     0429                     __end_of___awdiv:
  2931     007E                     btemp	set	126	;btemp
  2932     007E                     wtemp0	set	126
  2933                           
  2934                           	psect	idloc
  2935                           
  2936                           ;Config register IDLOC0 @ 0x2000
  2937                           ;	unspecified, using default values
  2938     2000                     	org	8192
  2939     2000  3FFF               	dw	16383
  2940                           
  2941                           ;Config register IDLOC1 @ 0x2001
  2942                           ;	unspecified, using default values
  2943     2001                     	org	8193
  2944     2001  3FFF               	dw	16383
  2945                           
  2946                           ;Config register IDLOC2 @ 0x2002
  2947                           ;	unspecified, using default values
  2948     2002                     	org	8194
  2949     2002  3FFF               	dw	16383
  2950                           
  2951                           ;Config register IDLOC3 @ 0x2003
  2952                           ;	unspecified, using default values
  2953     2003                     	org	8195
  2954     2003  3FFF               	dw	16383
  2955                           
  2956                           	psect	config
  2957                           
  2958                           ;Config register CONFIG1 @ 0x2007
  2959                           ;	Oscillator Selection bits
  2960                           ;	FOSC = EXTRC_NOCLKOUT, RCIO oscillator: I/O function on RA6/OSC2/CLKOUT pin, RC on RA7
      +                          /OSC1/CLKIN
  2961                           ;	Watchdog Timer Enable bit
  2962                           ;	WDTE = OFF, WDT disabled and can be enabled by SWDTEN bit of the WDTCON register
  2963                           ;	Power-up Timer Enable bit
  2964                           ;	PWRTE = OFF, PWRT disabled
  2965                           ;	RE3/MCLR pin function select bit
  2966                           ;	MCLRE = OFF, RE3/MCLR pin function is digital input, MCLR internally tied to VDD
  2967                           ;	Code Protection bit
  2968                           ;	CP = OFF, Program memory code protection is disabled
  2969                           ;	Data Code Protection bit
  2970                           ;	CPD = OFF, Data memory code protection is disabled
  2971                           ;	Brown Out Reset Selection bits
  2972                           ;	BOREN = OFF, BOR disabled
  2973                           ;	Internal External Switchover bit
  2974                           ;	IESO = OFF, Internal/External Switchover mode is disabled
  2975                           ;	Fail-Safe Clock Monitor Enabled bit
  2976                           ;	FCMEN = OFF, Fail-Safe Clock Monitor is disabled
  2977                           ;	Low Voltage Programming Enable bit
  2978                           ;	LVP = OFF, RB3 pin has digital I/O, HV on MCLR must be used for programming
  2979                           ;	In-Circuit Debugger Mode bit
  2980                           ;	DEBUG = 0x1, unprogrammed default
  2981     2007                     	org	8199
  2982     2007  20D6               	dw	8406
  2983                           
  2984                           ;Config register CONFIG2 @ 0x2008
  2985                           ;	Brown-out Reset Selection bit
  2986                           ;	BOR4V = BOR40V, Brown-out Reset set to 4.0V
  2987                           ;	Flash Program Memory Self Write Enable bits
  2988                           ;	WRT = OFF, Write protection off
  2989     2008                     	org	8200
  2990     2008  3FFF               	dw	16383

Data Sizes:
    Strings     0
    Constant    0
    Data        0
    BSS         13
    Persistent  0
    Stack       0

Auto Spaces:
    Space          Size  Autos    Used
    COMMON           14     14      14
    BANK0            80     57      70
    BANK1            80      6       6
    BANK3            96      0       0
    BANK2            96      0       0

Pointer List with Targets:

    None.

Critical Paths under _main in COMMON

    None.

Critical Paths under _isr in COMMON

    _isr->i1___xxtofl

Critical Paths under _main in BANK0

    _main->_map
    _setup->_spiInit
    _map->___xxtofl
    ___xxtofl->___lwdiv
    ___lwdiv->___wmul

Critical Paths under _isr in BANK0

    None.

Critical Paths under _main in BANK1

    None.

Critical Paths under _isr in BANK1

    None.

Critical Paths under _main in BANK3

    None.

Critical Paths under _isr in BANK3

    None.

Critical Paths under _main in BANK2

    None.

Critical Paths under _isr in BANK2

    None.

Call Graph Tables:

 ---------------------------------------------------------------------------------
 (Depth) Function   	        Calls       Base Space   Used Autos Params    Refs
 ---------------------------------------------------------------------------------
 (0) _main                                                33    33      0    4531
                                             54 BANK0      3     3      0
                                              0 BANK1      6     6      0
                            ___fltol
                           ___xxtofl
                                _map
                              _setup
 ---------------------------------------------------------------------------------
 (1) _setup                                                1     1      0     456
                                             10 BANK0      1     1      0
                            _spiInit
 ---------------------------------------------------------------------------------
 (2) _spiInit                                              4     1      3     456
                                              6 BANK0      4     1      3
 ---------------------------------------------------------------------------------
 (1) _map                                                 20    10     10    2721
                                             34 BANK0     20    10     10
                            ___fltol
                            ___lwdiv
                             ___wmul
                           ___xxtofl
 ---------------------------------------------------------------------------------
 (2) ___xxtofl                                            14    10      4     711
                                             20 BANK0     14    10      4
                            ___fltol (ARG)
                            ___lwdiv (ARG)
                             ___wmul (ARG)
 ---------------------------------------------------------------------------------
 (2) ___wmul                                               6     2      4     316
                                              6 BANK0      6     2      4
 ---------------------------------------------------------------------------------
 (2) ___lwdiv                                              8     4      4     421
                                             12 BANK0      8     4      4
                             ___wmul (ARG)
 ---------------------------------------------------------------------------------
 (2) ___fltol                                             10     6      4     572
                                              6 BANK0     10     6      4
 ---------------------------------------------------------------------------------
 Estimated maximum stack depth 2
 ---------------------------------------------------------------------------------
 (Depth) Function   	        Calls       Base Space   Used Autos Params    Refs
 ---------------------------------------------------------------------------------
 (3) _isr                                                  6     6      0    1077
                                              0 BANK0      6     6      0
                            ___awdiv
                           _spiWrite
                          i1___fltol
                         i1___xxtofl
 ---------------------------------------------------------------------------------
 (4) i1___xxtofl                                          14    10      4     348
                                              0 COMMON    14    10      4
 ---------------------------------------------------------------------------------
 (4) i1___fltol                                           10     6      4     255
                                              0 COMMON    10     6      4
 ---------------------------------------------------------------------------------
 (4) _spiWrite                                             1     1      0      22
                                              0 COMMON     1     1      0
 ---------------------------------------------------------------------------------
 (4) ___awdiv                                              9     5      4     452
                                              0 COMMON     9     5      4
 ---------------------------------------------------------------------------------
 Estimated maximum stack depth 4
 ---------------------------------------------------------------------------------

 Call Graph Graphs:

 _main (ROOT)
   ___fltol
   ___xxtofl
     ___fltol (ARG)
     ___lwdiv (ARG)
       ___wmul (ARG)
     ___wmul (ARG)
   _map
     ___fltol
     ___lwdiv
     ___wmul
     ___xxtofl
   _setup
     _spiInit

 _isr (ROOT)
   ___awdiv
   _spiWrite
   i1___fltol
   i1___xxtofl

 Address spaces:
Name               Size   Autos  Total    Cost      Usage
BITCOMMON            E      0       0       0        0.0%
EEDATA             100      0       0       0        0.0%
NULL                 0      0       0       0        0.0%
CODE                 0      0       0       0        0.0%
COMMON               E      E       E       1      100.0%
BITSFR0              0      0       0       1        0.0%
SFR0                 0      0       0       1        0.0%
BITSFR1              0      0       0       2        0.0%
SFR1                 0      0       0       2        0.0%
STACK                0      0       0       2        0.0%
ABS                  0      0      5A       3        0.0%
BITBANK0            50      0       0       4        0.0%
BITSFR3              0      0       0       4        0.0%
SFR3                 0      0       0       4        0.0%
BANK0               50     39      46       5       87.5%
BITSFR2              0      0       0       5        0.0%
SFR2                 0      0       0       5        0.0%
BITBANK1            50      0       0       6        0.0%
BANK1               50      6       6       7        7.5%
BITBANK3            60      0       0       8        0.0%
BANK3               60      0       0       9        0.0%
BITBANK2            60      0       0      10        0.0%
BANK2               60      0       0      11        0.0%
DATA                 0      0      5A      12        0.0%


Microchip Technology PIC Macro Assembler V2.40 build 20220703182018 
Symbol Table                                                                                   Tue Aug 01 23:08:47 2023

                      _i 0063              _SSPSTATbits 0094                       l16 0557  
                     l17 055C             ___awdiv@sign 0076      ___wmul@multiplicand 0028  
             i1___xxtofl 019F                      l113 0034                      l131 048E  
                    l117 0040                      l128 0517                      l217 0526  
                    l410 0336                      l403 034B                      l219 053E  
                    l413 034B                      l650 0109                      l652 019E  
                    l663 0168                      l664 0174                      l656 014C  
                    l489 04D4                      _RB0 0030                      _RB1 0031  
                    _map 0429                      _isr 0257                      _val 005D  
           i1___fltol@f1 0070             ___fltol@exp1 002F                     l1501 053A  
                   l1511 02E8                     l1521 030A                     l1513 02FB  
                   l1505 02D4                     l1601 018C                     l1515 02FC  
                   l1507 02DF                     l1603 0191                     l1611 04D5  
                   l1517 0304                     l1541 048F                     l1605 0195  
                   l1621 04E1                     l1613 04D9                     l1701 006E  
                   l1535 032B                     l1527 0312                     l1519 0306  
                   l1551 04A7                     l1543 0493                     l1607 0196  
                   l1631 04E8                     l1623 04E2                     l1615 04DA  
                   l1703 007B                     l1537 033B                     l1529 0324  
                   l1561 04CA                     l1553 04AB                     l1545 0499  
                   l1481 0542                     l1641 04FC                     l1633 04EB  
                   l1625 04E5                     l1617 04DE                     l1539 0340  
                   l1555 04BC                     l1547 049C                     l1563 04D0  
                   l1491 0518                     l1571 00F1                     l1483 054B  
                   l1651 0507                     l1643 04FD                     l1635 04EC  
                   l1627 04E6                     l1619 04DF                     l1557 04C2  
                   l1549 04A3                     l1493 051C                     l1581 011D  
                   l1573 0101                     l1485 054F                     l1661 0516  
                   l1653 0508                     l1645 04FE                     l1637 04F7  
                   l1629 04E7                     l1559 04C3                     l1495 0520  
                   l1591 0153                     l1583 012A                     l1575 0111  
                   l1567 00E8                     l1663 0429                     l1487 0551  
                   l1655 050F                     l1647 04FF                     l1639 04FB  
                   l1671 002C                     l1497 052D                     l1593 015E  
                   l1585 0131                     l1569 00ED                     l1489 0556  
                   l1657 0512                     l1649 0505                     l1673 002E  
                   l1499 0534                     l1595 0162                     l1587 0135  
                   l1579 011A                     l1659 0515                     l1683 0044  
                   l1667 0024                     l1597 016C                     l1589 0143  
                   l1685 0046                     l1677 0038                     l1669 0029  
                   l1599 0176                     l1695 005C                     l1687 0054  
                   l1679 003C                     l1697 0067                     l1689 005A  
                   l1699 0068                     ?_map 0042                     ?_isr 0070  
                   u2000 0034                     u2001 0033                     u2010 0038  
                   u2011 0037                     u2020 0040                     u2021 003F  
                   u2030 0044                     u2031 0043                     u2040 005A  
                   u2041 0059                     u2050 007B                     u2051 007A  
                   u2055 0077                     u2067 004E                     u1700 02F6  
                   u2077 050C                     u1710 030A                     u1711 0309  
                   u1720 0311                     u1640 054B                     u1721 0310  
                   u1705 02F1                     u1641 054A                     u1810 04AB  
                   u1650 0520                     u1811 04AA                     u1651 051F  
                   u1740 0323                     u1900 0130                     u1741 0322  
                   u1805 049D                     u1901 012F                     u1750 032A  
                   u1830 04BC                     u1751 0329                     u1735 0313  
                   u1831 04BB                     u1680 053A                     u1920 0152  
                   u1825 04AC                     u1681 0539                     u1665 0527  
                   u1921 0151                     u1770 033B                     u1690 02DF  
                   u1850 04D0                     u1771 033A                     u1691 02DE  
                   u1851 04CF                     u1835 04B8                     u1675 052E  
                   u1915 0144                     u1780 0340                     u1940 0162  
                   u1860 00ED                     u1781 033F                     u1765 032D  
                   u1845 04C4                     u1941 0161                     u1861 00EC  
                   u1790 0499                     u1950 0168                     u1870 00F1  
                   u1791 0498                     u1951 0167                     u1935 0157  
                   u1871 00F0                     u1960 016C                     u1880 0111  
                   u1961 016B                     u1881 0110                     u1970 0181  
                   u1980 0191                     u1981 0190                     u1990 0195  
                   u1991 0194                     u1975 017C                     u1895 0122  
                   i1l26 0562                     _WPUB 0095                     _main 0024  
                   btemp 007E                     start 000E                    ??_map 004C  
                  ??_isr 0020            ___fltol@sign1 002E                    ?_main 0070  
        __end_of___awdiv 0429          __end_of___fltol 034C                    _ANSEL 0188  
        ___awdiv@divisor 0070          __end_of___lwdiv 04D5                    i1l106 02CD  
                  i1l410 03AC                    i1l403 03C1                    i1l413 03C1  
                  i1l370 0428                    i1l650 01C1                    i1l652 0256  
                  i1l663 0220                    i1l664 022C                    i1l656 0204  
        ___awdiv@counter 0075                    _PORTD 0008                    _TRISB 0086  
                  _TRISD 0088                    _SSPIF 0063                    _setup 04D5  
                  pclath 000A          __end_of_spiInit 055D           i1___fltol@exp1 0079  
                  status 0003                    wtemp0 007E          __initialization 0011  
           __end_of_main 00E5                   ??_main 0056              ?i1___xxtofl 0070  
                 _ADRESH 001E         ___awdiv@dividend 0072                   ?_setup 0070  
                 _ANSELH 0189                   i1l1301 03C7                   i1l1311 03DB  
                 i1l1303 03CC                   i1l1321 03F1                   i1l1313 03DD  
                 i1l1305 03CE                   i1l1401 020B                   i1l1331 0414  
                 i1l1323 03F5                   i1l1315 03E3                   i1l1307 03D2  
                 i1l1411 0244                   i1l1403 0216                   i1l1325 0406  
                 i1l1317 03E6                   i1l1333 041A                   i1l1309 03D7  
                 i1l1341 034C                   i1l1413 0249                   i1l1405 021A  
                 i1l1421 0257                   i1l1335 041F                   i1l1327 040C  
                 i1l1319 03ED                   i1l1239 055E                   i1l1351 0372  
                 i1l1343 0355                   i1l1415 024D                   i1l1407 0224  
                 i1l1431 027E                   i1l1423 025B                   u120_20 03D2  
                 i1l1337 0424                   i1l1329 040D                   u120_21 03D1  
                 i1l1353 037A                   i1l1417 024E                   i1l1409 022E  
                 i1l1441 02CC                   i1l1433 0295                   i1l1425 026E  
                 i1l1371 03A1                   i1l1363 0388                   i1l1355 037C  
                 i1l1347 035E                   i1l1435 029E                   i1l1427 0271  
                 i1l1373 03B1                   i1l1357 0380                   i1l1365 039A  
                 i1l1349 0371                   i1l1381 01A9                   i1l1437 02BC  
                 i1l1429 0275                   i1l1375 03B6                   i1l1391 01D5  
                 i1l1383 01B9                   i1l1439 02C5                   u121_20 03E3  
                 u121_21 03E2                   i1l1297 03C2                   i1l1393 01E2  
                 i1l1385 01C9                   i1l1377 01A0                   i1l1299 03C3  
                 i1l1395 01E9                   i1l1379 01A5                   i1l1397 01ED  
                 i1l1389 01D2                   i1l1399 01FB                   u130_20 036C  
                 u122_25 03E7                   u130_25 0367                   u123_20 03F5  
                 u131_20 0380                   u123_21 03F4                   u131_21 037F  
                 u132_20 0387                   u140_20 01A9                   u132_21 0386  
                 u140_21 01A8                   u124_25 03F6                   u125_20 0406  
                 u141_20 01C9                   u125_21 0405                   u141_21 01C8  
                 u125_25 0402                   u133_25 0389                   u134_20 0399  
                 u150_20 0239                   u134_21 0398                   u126_25 040E  
                 u150_25 0234                   u142_25 01DA                   u127_20 041A  
                 u119_20 03C7                   u135_20 03A0                   u151_20 0249  
                 u143_20 01E8                   u127_21 0419                   u119_21 03C6  
                 u135_21 039F                   u151_21 0248                   u143_21 01E7  
                 u128_20 041F                   u152_20 024D                   u128_21 041E  
                 u152_21 024C                   u136_25 03A3                   u144_25 01FC  
                 u137_20 03B1                   u129_20 0355                   u145_20 020A  
                 u153_20 025B                   u137_21 03B0                   u129_21 0354  
                 u145_21 0209                   u153_21 025A                   u138_20 03B6  
                 u154_20 0275                   u138_21 03B5                   u154_21 0274  
                 u146_25 020F                   u147_20 021A                   u139_20 01A5  
                 u155_20 027E                   u147_21 0219                   u139_21 01A4  
                 u155_21 027D                   u148_20 0220                   u156_20 029E  
                 u148_21 021F                   u156_21 029D                   u149_20 0224  
                 u157_20 02C5                   u149_21 0223                   u157_21 02C4  
                 _TRISC3 043B                   _TRISC5 043D                   _SSPCON 0014  
                 _SSPBUF 0013         __end_of___xxtofl 019F                   ___wmul 0518  
              ??___awdiv 0074                ??___fltol 002A                ??___lwdiv 0030  
       ___awdiv@quotient 0077        __end_ofi1___fltol 03C2                   saved_w 007E  
       __end_of_spiWrite 0563          i1___fltol@sign1 0078                ??_spiInit 0029  
           ___xxtofl@arg 003E             ___xxtofl@exp 003D             ___xxtofl@val 0034  
__end_of__initialization 0020               ___fltol@f1 0026           __pcstackCOMMON 0070  
          __end_of_setup 0518           _OPTION_REGbits 0081                  ??_setup 002A  
             __pbssBANK0 0059           i1___xxtofl@arg 007A           i1___xxtofl@exp 0079  
         i1___xxtofl@val 0070               __pmaintext 0024                  ?___wmul 0026  
             __pintentry 0004                ?___xxtofl 0034                  _SSPSTAT 0094  
              ?_spiWrite 0070                  ___awdiv 03C2                  ___fltol 02D4  
                ___lwdiv 048F             ??i1___xxtofl 0074                  __ptext1 04D5  
                __ptext2 053F                  __ptext3 0429                  __ptext4 00E5  
                __ptext5 0518                  __ptext6 048F                  __ptext7 02D4  
                __ptext8 0257                  __ptext9 019F               ??___xxtofl 0038  
                _spiInit 053F                  _valpot0 0061                  _valpot1 005F  
                _varvolt 0059     end_of_initialization 0020       __end_ofi1___xxtofl 0257  
             ??_spiWrite 0070                _PORTBbits 0006            ___xxtofl@sign 003C  
              _TRISAbits 0085                i1___fltol 034C              spiWrite@dat 0070  
         __end_of___wmul 053F      start_initialization 0011              __end_of_map 048F  
            __end_of_isr 02D4               ?i1___fltol 0070                 ??___wmul 002A  
              ___latbits 0002            __pcstackBANK0 0020            __pcstackBANK1 00A0  
        i1___xxtofl@sign 0078                _main$1110 00A4                _main$1111 00A0  
       ___lwdiv@dividend 002E                 ?___awdiv 0070                 ?___fltol 0026  
               ?___lwdiv 002C                 ?_spiInit 0026              ??i1___fltol 0074  
       ___lwdiv@quotient 0032     spiInit@sTransmitEdge 0028        interrupt_function 0004  
         ___wmul@product 002A                 _PIE1bits 008C       spiInit@sDataSample 0026  
               _PIR1bits 000C                map@maxsal 004A                map@maxval 0046  
              map@minsal 0048                map@minval 0044               _ADCON0bits 001F  
             _ADCON1bits 009F        ___wmul@multiplier 0026                map@valmap 0052  
              map@varmap 0042                 ___xxtofl 00E5          ___lwdiv@divisor 002C  
        ___lwdiv@counter 0031                 __ptext10 034C                 __ptext11 055D  
               __ptext12 03C2                 _temporal 0065                 _spiWrite 055D  
           spiInit@sType 0029        spiInit@sClockIdle 0027               _INTCONbits 000B  
               intlevel1 0000               _OSCCONbits 008F  
