

Microchip MPLAB XC8 Assembler V2.40 build 20220703182018 
                                                                                               Tue Jul 25 10:33:49 2023

Microchip MPLAB XC8 C Compiler v2.40 (Free license) build 20220703182018 Og1 
     1                           	processor	16F887
     2                           	pagewidth 120
     3                           	opt	flic
     4                           	psect	strings,global,class=STRING,delta=2,noexec
     5                           	psect	cinit,global,class=CODE,merge=1,delta=2
     6                           	psect	bssBANK0,global,class=BANK0,space=1,delta=1,noexec
     7                           	psect	bssBANK3,global,class=BANK3,space=1,delta=1,noexec
     8                           	psect	cstackBANK3,global,class=BANK3,space=1,delta=1,noexec
     9                           	psect	cstackBANK1,global,class=BANK1,space=1,delta=1,noexec
    10                           	psect	cstackCOMMON,global,class=COMMON,space=1,delta=1,noexec
    11                           	psect	cstackBANK0,global,class=BANK0,space=1,delta=1,noexec
    12                           	psect	maintext,global,class=CODE,split=1,delta=2
    13                           	psect	text1,local,class=CODE,merge=1,delta=2,group=1
    14                           	psect	text2,local,class=CODE,merge=1,delta=2,group=1
    15                           	psect	text3,local,class=CODE,merge=1,delta=2,group=2
    16                           	psect	text4,local,class=CODE,merge=1,delta=2,group=2
    17                           	psect	text5,local,class=CODE,merge=1,delta=2,group=1
    18                           	psect	text6,local,class=CODE,merge=1,delta=2,group=2
    19                           	psect	text7,local,class=CODE,merge=1,delta=2,group=2
    20                           	psect	text8,local,class=CODE,merge=1,delta=2,group=2
    21                           	psect	text9,local,class=CODE,merge=1,delta=2,group=2
    22                           	psect	text10,local,class=CODE,merge=1,delta=2,group=2
    23                           	psect	text11,local,class=CODE,merge=1,delta=2,group=2
    24                           	psect	text12,local,class=CODE,merge=1,delta=2,group=2
    25                           	psect	text13,local,class=CODE,merge=1,delta=2,group=2
    26                           	psect	text14,local,class=CODE,merge=1,delta=2,group=2
    27                           	psect	text15,local,class=CODE,merge=1,delta=2,group=2
    28                           	psect	text16,local,class=CODE,merge=1,delta=2,group=2
    29                           	psect	text17,local,class=CODE,merge=1,delta=2,group=2
    30                           	psect	text18,local,class=CODE,merge=1,delta=2,group=2
    31                           	psect	text19,local,class=CODE,merge=1,delta=2,group=2
    32                           	psect	text20,local,class=CODE,merge=1,delta=2,group=2
    33                           	psect	text21,local,class=CODE,merge=1,delta=2,group=2
    34                           	psect	text22,local,class=CODE,merge=1,delta=2
    35                           	psect	text23,local,class=CODE,merge=1,delta=2,group=2
    36                           	psect	text24,local,class=CODE,merge=1,delta=2
    37                           	psect	intentry,global,class=CODE,delta=2
    38                           	psect	text25,local,class=CODE,merge=1,delta=2
    39                           	psect	text26,local,class=CODE,merge=1,delta=2
    40                           	psect	idloc,global,abs,ovrld,class=IDLOC,space=5,delta=2,noexec
    41                           	psect	config,global,abs,ovrld,class=CONFIG,space=4,delta=2,noexec
    42                           	dabs	1,0x7E,2
    43     0000                     
    44                           ; Version 2.40
    45                           ; Generated 17/11/2021 GMT
    46                           ; 
    47                           ; Copyright © 2021, Microchip Technology Inc. and its subsidiaries ("Microchip")
    48                           ; All rights reserved.
    49                           ; 
    50                           ; This software is developed by Microchip Technology Inc. and its subsidiaries ("Microch
      +                          ip").
    51                           ; 
    52                           ; Redistribution and use in source and binary forms, with or without modification, are
    53                           ; permitted provided that the following conditions are met:
    54                           ; 
    55                           ;     1. Redistributions of source code must retain the above copyright notice, this lis
      +                          t of
    56                           ;        conditions and the following disclaimer.
    57                           ; 
    58                           ;     2. Redistributions in binary form must reproduce the above copyright notice, this 
      +                          list
    59                           ;        of conditions and the following disclaimer in the documentation and/or other
    60                           ;        materials provided with the distribution. Publication is not required when
    61                           ;        this file is used in an embedded application.
    62                           ; 
    63                           ;     3. Microchip's name may not be used to endorse or promote products derived from th
      +                          is
    64                           ;        software without specific prior written permission.
    65                           ; 
    66                           ; THIS SOFTWARE IS PROVIDED BY MICROCHIP "AS IS" AND ANY EXPRESS OR IMPLIED WARRANTIES,
    67                           ; INCLUDING, BUT NOT LIMITED TO, THE IMPLIED WARRANTIES OF MERCHANTABILITY AND FITNESS F
      +                          OR
    68                           ; PURPOSE ARE DISCLAIMED.  IN NO EVENT SHALL MICROCHIP BE LIABLE FOR ANY DIRECT, INDIREC
      +                          T,
    69                           ; INCIDENTAL, SPECIAL, EXEMPLARY, OR CONSEQUENTIAL DAMAGES (INCLUDING BUT NOT LIMITED TO
    70                           ; PROCUREMENT OF SUBSTITUTE GOODS OR SERVICES; LOSS OF USE, DATA OR PROFITS; OR BUSINESS
    71                           ; INTERRUPTION) HOWSOEVER CAUSED AND ON ANY THEORY OF LIABILITY, WHETHER IN CONTRACT, ST
      +                          RICT
    72                           ; LIABILITY, OR TORT (INCLUDING NEGLIGENCE OR OTHERWISE) ARISING IN ANY WAY OUT OF THE U
      +                          SE OF
    73                           ; THIS SOFTWARE, EVEN IF ADVISED OF THE POSSIBILITY OF SUCH DAMAGE.
    74                           ; 
    75                           ; 
    76                           ; Code-generator required, PIC16F887 Definitions
    77                           ; 
    78                           ; SFR Addresses
    79     0000                     	;# 
    80     0001                     	;# 
    81     0002                     	;# 
    82     0003                     	;# 
    83     0004                     	;# 
    84     0005                     	;# 
    85     0006                     	;# 
    86     0007                     	;# 
    87     0008                     	;# 
    88     0009                     	;# 
    89     000A                     	;# 
    90     000B                     	;# 
    91     000C                     	;# 
    92     000D                     	;# 
    93     000E                     	;# 
    94     000E                     	;# 
    95     000F                     	;# 
    96     0010                     	;# 
    97     0011                     	;# 
    98     0012                     	;# 
    99     0013                     	;# 
   100     0014                     	;# 
   101     0015                     	;# 
   102     0015                     	;# 
   103     0016                     	;# 
   104     0017                     	;# 
   105     0018                     	;# 
   106     0019                     	;# 
   107     001A                     	;# 
   108     001B                     	;# 
   109     001B                     	;# 
   110     001C                     	;# 
   111     001D                     	;# 
   112     001E                     	;# 
   113     001F                     	;# 
   114     0081                     	;# 
   115     0085                     	;# 
   116     0086                     	;# 
   117     0087                     	;# 
   118     0088                     	;# 
   119     0089                     	;# 
   120     008C                     	;# 
   121     008D                     	;# 
   122     008E                     	;# 
   123     008F                     	;# 
   124     0090                     	;# 
   125     0091                     	;# 
   126     0092                     	;# 
   127     0093                     	;# 
   128     0093                     	;# 
   129     0093                     	;# 
   130     0094                     	;# 
   131     0095                     	;# 
   132     0096                     	;# 
   133     0097                     	;# 
   134     0098                     	;# 
   135     0099                     	;# 
   136     009A                     	;# 
   137     009B                     	;# 
   138     009C                     	;# 
   139     009D                     	;# 
   140     009E                     	;# 
   141     009F                     	;# 
   142     0105                     	;# 
   143     0107                     	;# 
   144     0108                     	;# 
   145     0109                     	;# 
   146     010C                     	;# 
   147     010C                     	;# 
   148     010D                     	;# 
   149     010E                     	;# 
   150     010F                     	;# 
   151     0185                     	;# 
   152     0187                     	;# 
   153     0188                     	;# 
   154     0189                     	;# 
   155     018C                     	;# 
   156     018D                     	;# 
   157     0000                     	;# 
   158     0001                     	;# 
   159     0002                     	;# 
   160     0003                     	;# 
   161     0004                     	;# 
   162     0005                     	;# 
   163     0006                     	;# 
   164     0007                     	;# 
   165     0008                     	;# 
   166     0009                     	;# 
   167     000A                     	;# 
   168     000B                     	;# 
   169     000C                     	;# 
   170     000D                     	;# 
   171     000E                     	;# 
   172     000E                     	;# 
   173     000F                     	;# 
   174     0010                     	;# 
   175     0011                     	;# 
   176     0012                     	;# 
   177     0013                     	;# 
   178     0014                     	;# 
   179     0015                     	;# 
   180     0015                     	;# 
   181     0016                     	;# 
   182     0017                     	;# 
   183     0018                     	;# 
   184     0019                     	;# 
   185     001A                     	;# 
   186     001B                     	;# 
   187     001B                     	;# 
   188     001C                     	;# 
   189     001D                     	;# 
   190     001E                     	;# 
   191     001F                     	;# 
   192     0081                     	;# 
   193     0085                     	;# 
   194     0086                     	;# 
   195     0087                     	;# 
   196     0088                     	;# 
   197     0089                     	;# 
   198     008C                     	;# 
   199     008D                     	;# 
   200     008E                     	;# 
   201     008F                     	;# 
   202     0090                     	;# 
   203     0091                     	;# 
   204     0092                     	;# 
   205     0093                     	;# 
   206     0093                     	;# 
   207     0093                     	;# 
   208     0094                     	;# 
   209     0095                     	;# 
   210     0096                     	;# 
   211     0097                     	;# 
   212     0098                     	;# 
   213     0099                     	;# 
   214     009A                     	;# 
   215     009B                     	;# 
   216     009C                     	;# 
   217     009D                     	;# 
   218     009E                     	;# 
   219     009F                     	;# 
   220     0105                     	;# 
   221     0107                     	;# 
   222     0108                     	;# 
   223     0109                     	;# 
   224     010C                     	;# 
   225     010C                     	;# 
   226     010D                     	;# 
   227     010E                     	;# 
   228     010F                     	;# 
   229     0185                     	;# 
   230     0187                     	;# 
   231     0188                     	;# 
   232     0189                     	;# 
   233     018C                     	;# 
   234     018D                     	;# 
   235     0000                     	;# 
   236     0001                     	;# 
   237     0002                     	;# 
   238     0003                     	;# 
   239     0004                     	;# 
   240     0005                     	;# 
   241     0006                     	;# 
   242     0007                     	;# 
   243     0008                     	;# 
   244     0009                     	;# 
   245     000A                     	;# 
   246     000B                     	;# 
   247     000C                     	;# 
   248     000D                     	;# 
   249     000E                     	;# 
   250     000E                     	;# 
   251     000F                     	;# 
   252     0010                     	;# 
   253     0011                     	;# 
   254     0012                     	;# 
   255     0013                     	;# 
   256     0014                     	;# 
   257     0015                     	;# 
   258     0015                     	;# 
   259     0016                     	;# 
   260     0017                     	;# 
   261     0018                     	;# 
   262     0019                     	;# 
   263     001A                     	;# 
   264     001B                     	;# 
   265     001B                     	;# 
   266     001C                     	;# 
   267     001D                     	;# 
   268     001E                     	;# 
   269     001F                     	;# 
   270     0081                     	;# 
   271     0085                     	;# 
   272     0086                     	;# 
   273     0087                     	;# 
   274     0088                     	;# 
   275     0089                     	;# 
   276     008C                     	;# 
   277     008D                     	;# 
   278     008E                     	;# 
   279     008F                     	;# 
   280     0090                     	;# 
   281     0091                     	;# 
   282     0092                     	;# 
   283     0093                     	;# 
   284     0093                     	;# 
   285     0093                     	;# 
   286     0094                     	;# 
   287     0095                     	;# 
   288     0096                     	;# 
   289     0097                     	;# 
   290     0098                     	;# 
   291     0099                     	;# 
   292     009A                     	;# 
   293     009B                     	;# 
   294     009C                     	;# 
   295     009D                     	;# 
   296     009E                     	;# 
   297     009F                     	;# 
   298     0105                     	;# 
   299     0107                     	;# 
   300     0108                     	;# 
   301     0109                     	;# 
   302     010C                     	;# 
   303     010C                     	;# 
   304     010D                     	;# 
   305     010E                     	;# 
   306     010F                     	;# 
   307     0185                     	;# 
   308     0187                     	;# 
   309     0188                     	;# 
   310     0189                     	;# 
   311     018C                     	;# 
   312     018D                     	;# 
   313                           
   314                           	psect	strings
   315     1800                     __pstrings:
   316     1800                     stringtab:
   317     1800                     __stringtab:
   318     1800                     stringcode:	
   319                           ;	String table - string pointers are 1 byte each
   320                           
   321     1800                     stringdir:
   322     1800  3018               	movlw	high stringdir
   323     1801  008A               	movwf	10
   324     1802  0804               	movf	4,w
   325     1803  0A84               	incf	4,f
   326     1804  0782               	addwf	2,f
   327     1805                     __stringbase:
   328     1805  3400               	retlw	0
   329     1806                     __end_of__stringtab:
   330     1806                     __powers_:
   331     1806  3400               	retlw	0
   332     1807  3400               	retlw	0
   333     1808  3480               	retlw	128
   334     1809  343F               	retlw	63
   335     180A  3400               	retlw	0
   336     180B  3400               	retlw	0
   337     180C  3420               	retlw	32
   338     180D  3441               	retlw	65
   339     180E  3400               	retlw	0
   340     180F  3400               	retlw	0
   341     1810  34C8               	retlw	200
   342     1811  3442               	retlw	66
   343     1812  3400               	retlw	0
   344     1813  3400               	retlw	0
   345     1814  347A               	retlw	122
   346     1815  3444               	retlw	68
   347     1816  3400               	retlw	0
   348     1817  3440               	retlw	64
   349     1818  341C               	retlw	28
   350     1819  3446               	retlw	70
   351     181A  3400               	retlw	0
   352     181B  3450               	retlw	80
   353     181C  34C3               	retlw	195
   354     181D  3447               	retlw	71
   355     181E  3400               	retlw	0
   356     181F  3424               	retlw	36
   357     1820  3474               	retlw	116
   358     1821  3449               	retlw	73
   359     1822  3480               	retlw	128
   360     1823  3496               	retlw	150
   361     1824  3418               	retlw	24
   362     1825  344B               	retlw	75
   363     1826  3420               	retlw	32
   364     1827  34BC               	retlw	188
   365     1828  34BE               	retlw	190
   366     1829  344C               	retlw	76
   367     182A  3428               	retlw	40
   368     182B  346B               	retlw	107
   369     182C  346E               	retlw	110
   370     182D  344E               	retlw	78
   371     182E  34F9               	retlw	249
   372     182F  3402               	retlw	2
   373     1830  3415               	retlw	21
   374     1831  3450               	retlw	80
   375     1832  34EC               	retlw	236
   376     1833  3478               	retlw	120
   377     1834  34AD               	retlw	173
   378     1835  3460               	retlw	96
   379     1836  34CA               	retlw	202
   380     1837  34F2               	retlw	242
   381     1838  3449               	retlw	73
   382     1839  3471               	retlw	113
   383     183A                     __end_of__powers_:
   384     183A                     __npowers_:
   385     183A  3400               	retlw	0
   386     183B  3400               	retlw	0
   387     183C  3480               	retlw	128
   388     183D  343F               	retlw	63
   389     183E  34CD               	retlw	205
   390     183F  34CC               	retlw	204
   391     1840  34CC               	retlw	204
   392     1841  343D               	retlw	61
   393     1842  340A               	retlw	10
   394     1843  34D7               	retlw	215
   395     1844  3423               	retlw	35
   396     1845  343C               	retlw	60
   397     1846  346F               	retlw	111
   398     1847  3412               	retlw	18
   399     1848  3483               	retlw	131
   400     1849  343A               	retlw	58
   401     184A  3417               	retlw	23
   402     184B  34B7               	retlw	183
   403     184C  34D1               	retlw	209
   404     184D  3438               	retlw	56
   405     184E  34AC               	retlw	172
   406     184F  34C5               	retlw	197
   407     1850  3427               	retlw	39
   408     1851  3437               	retlw	55
   409     1852  34BD               	retlw	189
   410     1853  3437               	retlw	55
   411     1854  3486               	retlw	134
   412     1855  3435               	retlw	53
   413     1856  3495               	retlw	149
   414     1857  34BF               	retlw	191
   415     1858  34D6               	retlw	214
   416     1859  3433               	retlw	51
   417     185A  3477               	retlw	119
   418     185B  34CC               	retlw	204
   419     185C  342B               	retlw	43
   420     185D  3432               	retlw	50
   421     185E  345F               	retlw	95
   422     185F  3470               	retlw	112
   423     1860  3489               	retlw	137
   424     1861  3430               	retlw	48
   425     1862  34FF               	retlw	255
   426     1863  34E6               	retlw	230
   427     1864  34DB               	retlw	219
   428     1865  342E               	retlw	46
   429     1866  3408               	retlw	8
   430     1867  34E5               	retlw	229
   431     1868  343C               	retlw	60
   432     1869  341E               	retlw	30
   433     186A  3460               	retlw	96
   434     186B  3442               	retlw	66
   435     186C  34A2               	retlw	162
   436     186D  340D               	retlw	13
   437     186E                     __end_of__npowers_:
   438     186E                     _dpowers:
   439     186E  3401               	retlw	1
   440     186F  3400               	retlw	0
   441     1870  3400               	retlw	0
   442     1871  3400               	retlw	0
   443     1872  340A               	retlw	10
   444     1873  3400               	retlw	0
   445     1874  3400               	retlw	0
   446     1875  3400               	retlw	0
   447     1876  3464               	retlw	100
   448     1877  3400               	retlw	0
   449     1878  3400               	retlw	0
   450     1879  3400               	retlw	0
   451     187A  34E8               	retlw	232
   452     187B  3403               	retlw	3
   453     187C  3400               	retlw	0
   454     187D  3400               	retlw	0
   455     187E  3410               	retlw	16
   456     187F  3427               	retlw	39
   457     1880  3400               	retlw	0
   458     1881  3400               	retlw	0
   459     1882  34A0               	retlw	160
   460     1883  3486               	retlw	134
   461     1884  3401               	retlw	1
   462     1885  3400               	retlw	0
   463     1886  3440               	retlw	64
   464     1887  3442               	retlw	66
   465     1888  340F               	retlw	15
   466     1889  3400               	retlw	0
   467     188A  3480               	retlw	128
   468     188B  3496               	retlw	150
   469     188C  3498               	retlw	152
   470     188D  3400               	retlw	0
   471     188E  3400               	retlw	0
   472     188F  34E1               	retlw	225
   473     1890  34F5               	retlw	245
   474     1891  3405               	retlw	5
   475     1892  3400               	retlw	0
   476     1893  34CA               	retlw	202
   477     1894  349A               	retlw	154
   478     1895  343B               	retlw	59
   479     1896                     __end_of_dpowers:
   480     000B                     _INTCONbits	set	11
   481     0009                     _PORTE	set	9
   482     0008                     _PORTD	set	8
   483     001F                     _ADCON0bits	set	31
   484     000C                     _PIR1bits	set	12
   485     0008                     _PORTDbits	set	8
   486     001E                     _ADRESH	set	30
   487     0043                     _RD3	set	67
   488     0047                     _RD7	set	71
   489     0046                     _RD6	set	70
   490     0045                     _RD5	set	69
   491     0044                     _RD4	set	68
   492     008C                     _PIE1bits	set	140
   493     009F                     _ADCON1bits	set	159
   494     008F                     _OSCCONbits	set	143
   495     0095                     _WPUB	set	149
   496     0081                     _OPTION_REGbits	set	129
   497     0089                     _TRISE	set	137
   498     0088                     _TRISD	set	136
   499     0087                     _TRISC	set	135
   500     0086                     _TRISB	set	134
   501     0085                     _TRISA	set	133
   502     0189                     _ANSELH	set	393
   503     0188                     _ANSEL	set	392
   504     1896                     STR_1:
   505     1896  3476               	retlw	118	;'v'
   506     1897  346F               	retlw	111	;'o'
   507     1898  346C               	retlw	108	;'l'
   508     1899  3474               	retlw	116	;'t'
   509     189A  343D               	retlw	61	;'='
   510     189B  3420               	retlw	32	;' '
   511     189C  3425               	retlw	37	;'%'
   512     189D  3466               	retlw	102	;'f'
   513     189E  3400               	retlw	0
   514                           
   515                           	psect	cinit
   516     0011                     start_initialization:	
   517                           ; #config settings
   518                           
   519     0011                     __initialization:
   520                           
   521                           ; Clear objects allocated to BANK0
   522     0011  1283               	bcf	3,5	;RP0=0, select bank0
   523     0012  1303               	bcf	3,6	;RP1=0, select bank0
   524     0013  01E4               	clrf	__pbssBANK0& (0+127)
   525     0014  01E5               	clrf	(__pbssBANK0+1)& (0+127)
   526     0015  01E6               	clrf	(__pbssBANK0+2)& (0+127)
   527     0016  01E7               	clrf	(__pbssBANK0+3)& (0+127)
   528     0017  01E8               	clrf	(__pbssBANK0+4)& (0+127)
   529     0018  01E9               	clrf	(__pbssBANK0+5)& (0+127)
   530                           
   531                           ; Clear objects allocated to BANK3
   532     0019  1683               	bsf	3,5	;RP0=1, select bank3
   533     001A  1703               	bsf	3,6	;RP1=1, select bank3
   534     001B  01A8               	clrf	__pbssBANK3& (0+127)
   535     001C  01A9               	clrf	(__pbssBANK3+1)& (0+127)
   536     001D  01AA               	clrf	(__pbssBANK3+2)& (0+127)
   537     001E  01AB               	clrf	(__pbssBANK3+3)& (0+127)
   538     001F  01AC               	clrf	(__pbssBANK3+4)& (0+127)
   539     0020  01AD               	clrf	(__pbssBANK3+5)& (0+127)
   540     0021                     end_of_initialization:	
   541                           ;End of C runtime variable initialization code
   542                           
   543     0021                     __end_of__initialization:
   544     0021  0183               	clrf	3
   545     0022  120A  118A  2EE5   	ljmp	_main	;jump to C main() function
   546                           
   547                           	psect	bssBANK0
   548     0064                     __pbssBANK0:
   549     0064                     _val:
   550     0064                     	ds	2
   551     0066                     _valpot1:
   552     0066                     	ds	2
   553     0068                     _valpot0:
   554     0068                     	ds	2
   555                           
   556                           	psect	bssBANK3
   557     01A8                     __pbssBANK3:
   558     01A8                     _varvolt:
   559     01A8                     	ds	4
   560     01AC                     _i:
   561     01AC                     	ds	2
   562                           
   563                           	psect	cstackBANK3
   564     0190                     __pcstackBANK3:
   565     0190                     main@s:
   566                           
   567                           ; 20 bytes @ 0x0
   568     0190                     	ds	20
   569     01A4                     main@varvolt2:
   570                           
   571                           ; 4 bytes @ 0x14
   572     01A4                     	ds	4
   573                           
   574                           	psect	cstackBANK1
   575     00A0                     __pcstackBANK1:
   576     00A0                     ?___fltol:
   577     00A0                     ?___fladd:	
   578                           ; 4 bytes @ 0x0
   579                           
   580     00A0                     ___fltol@f1:	
   581                           ; 4 bytes @ 0x0
   582                           
   583     00A0                     ___fladd@b:	
   584                           ; 4 bytes @ 0x0
   585                           
   586     00A0                     ___fldiv@rem:	
   587                           ; 4 bytes @ 0x0
   588                           
   589                           
   590                           ; 4 bytes @ 0x0
   591     00A0                     	ds	4
   592     00A4                     ??___fltol:
   593     00A4                     ___fldiv@sign:	
   594                           ; 1 bytes @ 0x4
   595                           
   596     00A4                     ___fladd@a:	
   597                           ; 1 bytes @ 0x4
   598                           
   599                           
   600                           ; 4 bytes @ 0x4
   601     00A4                     	ds	1
   602     00A5                     ___fldiv@new_exp:
   603                           
   604                           ; 2 bytes @ 0x5
   605     00A5                     	ds	2
   606     00A7                     ___fldiv@grs:
   607                           
   608                           ; 4 bytes @ 0x7
   609     00A7                     	ds	1
   610     00A8                     ??___fladd:
   611     00A8                     ___fltol@sign1:	
   612                           ; 1 bytes @ 0x8
   613                           
   614                           
   615                           ; 1 bytes @ 0x8
   616     00A8                     	ds	1
   617     00A9                     ___fltol@exp1:
   618                           
   619                           ; 1 bytes @ 0x9
   620     00A9                     	ds	2
   621     00AB                     ___fldiv@bexp:
   622                           
   623                           ; 1 bytes @ 0xB
   624     00AB                     	ds	1
   625     00AC                     ___fldiv@aexp:
   626                           
   627                           ; 1 bytes @ 0xC
   628     00AC                     	ds	4
   629     00B0                     ___fladd@signs:
   630                           
   631                           ; 1 bytes @ 0x10
   632     00B0                     	ds	1
   633     00B1                     ___fladd@aexp:
   634                           
   635                           ; 1 bytes @ 0x11
   636     00B1                     	ds	1
   637     00B2                     ___fladd@bexp:
   638                           
   639                           ; 1 bytes @ 0x12
   640     00B2                     	ds	1
   641     00B3                     ___fladd@grs:
   642                           
   643                           ; 1 bytes @ 0x13
   644     00B3                     	ds	1
   645     00B4                     ?___flsub:
   646     00B4                     ___flsub@a:	
   647                           ; 4 bytes @ 0x14
   648                           
   649                           
   650                           ; 4 bytes @ 0x14
   651     00B4                     	ds	4
   652     00B8                     ___flsub@b:
   653                           
   654                           ; 4 bytes @ 0x18
   655     00B8                     	ds	4
   656     00BC                     ?_sprintf:
   657     00BC                     sprintf@f:	
   658                           ; 2 bytes @ 0x1C
   659                           
   660                           
   661                           ; 1 bytes @ 0x1C
   662     00BC                     	ds	5
   663     00C1                     ??_sprintf:
   664                           
   665                           ; 1 bytes @ 0x21
   666     00C1                     	ds	5
   667     00C6                     _sprintf$1038:
   668                           
   669                           ; 4 bytes @ 0x26
   670     00C6                     	ds	4
   671     00CA                     sprintf@ap:
   672                           
   673                           ; 1 bytes @ 0x2A
   674     00CA                     	ds	1
   675     00CB                     sprintf@flag:
   676                           
   677                           ; 2 bytes @ 0x2B
   678     00CB                     	ds	2
   679     00CD                     sprintf@prec:
   680                           
   681                           ; 2 bytes @ 0x2D
   682     00CD                     	ds	2
   683     00CF                     sprintf@val:
   684                           
   685                           ; 4 bytes @ 0x2F
   686     00CF                     	ds	4
   687     00D3                     sprintf@eexp:
   688                           
   689                           ; 2 bytes @ 0x33
   690     00D3                     	ds	2
   691     00D5                     sprintf@sp:
   692                           
   693                           ; 1 bytes @ 0x35
   694     00D5                     	ds	1
   695     00D6                     sprintf@tmpval:
   696                           
   697                           ; 4 bytes @ 0x36
   698     00D6                     	ds	4
   699     00DA                     sprintf@fval:
   700                           
   701                           ; 4 bytes @ 0x3A
   702     00DA                     	ds	4
   703     00DE                     sprintf@c:
   704                           
   705                           ; 1 bytes @ 0x3E
   706     00DE                     	ds	1
   707     00DF                     ??_main:
   708                           
   709                           ; 1 bytes @ 0x3F
   710     00DF                     	ds	3
   711                           
   712                           	psect	cstackCOMMON
   713     0070                     __pcstackCOMMON:
   714     0070                     ?_setup:
   715     0070                     ?_isr:	
   716                           ; 1 bytes @ 0x0
   717                           
   718     0070                     ?_main:	
   719                           ; 1 bytes @ 0x0
   720                           
   721     0070                     ?i1___awdiv:	
   722                           ; 1 bytes @ 0x0
   723                           
   724     0070                     ?i1___xxtofl:	
   725                           ; 2 bytes @ 0x0
   726                           
   727     0070                     i1___awdiv@divisor:	
   728                           ; 4 bytes @ 0x0
   729                           
   730     0070                     i1___xxtofl@val:	
   731                           ; 2 bytes @ 0x0
   732                           
   733                           
   734                           ; 4 bytes @ 0x0
   735     0070                     	ds	2
   736     0072                     i1___awdiv@dividend:
   737                           
   738                           ; 2 bytes @ 0x2
   739     0072                     	ds	2
   740     0074                     ??i1___awdiv:
   741     0074                     ??i1___xxtofl:	
   742                           ; 1 bytes @ 0x4
   743                           
   744                           
   745                           ; 1 bytes @ 0x4
   746     0074                     	ds	1
   747     0075                     i1___awdiv@counter:
   748                           
   749                           ; 1 bytes @ 0x5
   750     0075                     	ds	1
   751     0076                     i1___awdiv@sign:
   752                           
   753                           ; 1 bytes @ 0x6
   754     0076                     	ds	1
   755     0077                     i1___awdiv@quotient:
   756                           
   757                           ; 2 bytes @ 0x7
   758     0077                     	ds	1
   759     0078                     i1___xxtofl@sign:
   760                           
   761                           ; 1 bytes @ 0x8
   762     0078                     	ds	1
   763     0079                     i1___xxtofl@exp:
   764                           
   765                           ; 1 bytes @ 0x9
   766     0079                     	ds	1
   767     007A                     i1___xxtofl@arg:
   768                           
   769                           ; 4 bytes @ 0xA
   770     007A                     	ds	4
   771                           
   772                           	psect	cstackBANK0
   773     0020                     __pcstackBANK0:
   774     0020                     ??_isr:
   775                           
   776                           ; 1 bytes @ 0x0
   777     0020                     	ds	6
   778     0026                     ?___fleq:
   779     0026                     ?___flge:	
   780                           ; 1 bit 
   781                           
   782     0026                     ??_setup:	
   783                           ; 1 bit 
   784                           
   785     0026                     ?__Umul8_16:	
   786                           ; 1 bytes @ 0x6
   787                           
   788     0026                     ?___wmul:	
   789                           ; 2 bytes @ 0x6
   790                           
   791     0026                     ?___awmod:	
   792                           ; 2 bytes @ 0x6
   793                           
   794     0026                     ?___lwmod:	
   795                           ; 2 bytes @ 0x6
   796                           
   797     0026                     ?__tdiv_to_l_:	
   798                           ; 2 bytes @ 0x6
   799                           
   800     0026                     ?__div_to_l_:	
   801                           ; 4 bytes @ 0x6
   802                           
   803     0026                     ?___lldiv:	
   804                           ; 4 bytes @ 0x6
   805                           
   806     0026                     ?___flneg:	
   807                           ; 4 bytes @ 0x6
   808                           
   809     0026                     ?___llmod:	
   810                           ; 4 bytes @ 0x6
   811                           
   812     0026                     ?___xxtofl:	
   813                           ; 4 bytes @ 0x6
   814                           
   815     0026                     __Umul8_16@multiplicand:	
   816                           ; 4 bytes @ 0x6
   817                           
   818     0026                     ___wmul@multiplier:	
   819                           ; 1 bytes @ 0x6
   820                           
   821     0026                     ___awmod@divisor:	
   822                           ; 2 bytes @ 0x6
   823                           
   824     0026                     ___lwmod@divisor:	
   825                           ; 2 bytes @ 0x6
   826                           
   827     0026                     ___lldiv@divisor:	
   828                           ; 2 bytes @ 0x6
   829                           
   830     0026                     __div_to_l_@f1:	
   831                           ; 4 bytes @ 0x6
   832                           
   833     0026                     ___fleq@ff1:	
   834                           ; 4 bytes @ 0x6
   835                           
   836     0026                     ___flge@ff1:	
   837                           ; 4 bytes @ 0x6
   838                           
   839     0026                     ___flneg@f1:	
   840                           ; 4 bytes @ 0x6
   841                           
   842     0026                     __tdiv_to_l_@f1:	
   843                           ; 4 bytes @ 0x6
   844                           
   845     0026                     ___llmod@divisor:	
   846                           ; 4 bytes @ 0x6
   847                           
   848     0026                     ___xxtofl@val:	
   849                           ; 4 bytes @ 0x6
   850                           
   851                           
   852                           ; 4 bytes @ 0x6
   853     0026                     	ds	2
   854     0028                     ??__Umul8_16:
   855     0028                     ___wmul@multiplicand:	
   856                           ; 1 bytes @ 0x8
   857                           
   858     0028                     ___awmod@dividend:	
   859                           ; 2 bytes @ 0x8
   860                           
   861     0028                     ___lwmod@dividend:	
   862                           ; 2 bytes @ 0x8
   863                           
   864                           
   865                           ; 2 bytes @ 0x8
   866     0028                     	ds	2
   867     002A                     ??___wmul:
   868     002A                     ??___awmod:	
   869                           ; 1 bytes @ 0xA
   870                           
   871     002A                     ??___flneg:	
   872                           ; 1 bytes @ 0xA
   873                           
   874     002A                     ??___lwmod:	
   875                           ; 1 bytes @ 0xA
   876                           
   877     002A                     ??___xxtofl:	
   878                           ; 1 bytes @ 0xA
   879                           
   880     002A                     ___wmul@product:	
   881                           ; 1 bytes @ 0xA
   882                           
   883     002A                     __Umul8_16@product:	
   884                           ; 2 bytes @ 0xA
   885                           
   886     002A                     ___lldiv@dividend:	
   887                           ; 2 bytes @ 0xA
   888                           
   889     002A                     __div_to_l_@f2:	
   890                           ; 4 bytes @ 0xA
   891                           
   892     002A                     ___fleq@ff2:	
   893                           ; 4 bytes @ 0xA
   894                           
   895     002A                     ___flge@ff2:	
   896                           ; 4 bytes @ 0xA
   897                           
   898     002A                     __tdiv_to_l_@f2:	
   899                           ; 4 bytes @ 0xA
   900                           
   901     002A                     ___llmod@dividend:	
   902                           ; 4 bytes @ 0xA
   903                           
   904                           
   905                           ; 4 bytes @ 0xA
   906     002A                     	ds	1
   907     002B                     ___awmod@counter:
   908     002B                     ___lwmod@counter:	
   909                           ; 1 bytes @ 0xB
   910                           
   911                           
   912                           ; 1 bytes @ 0xB
   913     002B                     	ds	1
   914     002C                     ?___lwdiv:
   915     002C                     ___awmod@sign:	
   916                           ; 2 bytes @ 0xC
   917                           
   918     002C                     ___lwdiv@divisor:	
   919                           ; 1 bytes @ 0xC
   920                           
   921     002C                     __Umul8_16@word_mpld:	
   922                           ; 2 bytes @ 0xC
   923                           
   924                           
   925                           ; 2 bytes @ 0xC
   926     002C                     	ds	1
   927     002D                     ?___awdiv:
   928     002D                     ___awdiv@divisor:	
   929                           ; 2 bytes @ 0xD
   930                           
   931                           
   932                           ; 2 bytes @ 0xD
   933     002D                     	ds	1
   934     002E                     ??__tdiv_to_l_:
   935     002E                     ??__div_to_l_:	
   936                           ; 1 bytes @ 0xE
   937                           
   938     002E                     ??___lldiv:	
   939                           ; 1 bytes @ 0xE
   940                           
   941     002E                     ??___fleq:	
   942                           ; 1 bytes @ 0xE
   943                           
   944     002E                     ??___flge:	
   945                           ; 1 bytes @ 0xE
   946                           
   947     002E                     ??___llmod:	
   948                           ; 1 bytes @ 0xE
   949                           
   950     002E                     __Umul8_16@multiplier:	
   951                           ; 1 bytes @ 0xE
   952                           
   953     002E                     ___xxtofl@sign:	
   954                           ; 1 bytes @ 0xE
   955                           
   956     002E                     ___lwdiv@dividend:	
   957                           ; 1 bytes @ 0xE
   958                           
   959                           
   960                           ; 2 bytes @ 0xE
   961     002E                     	ds	1
   962     002F                     ___llmod@counter:
   963     002F                     ___xxtofl@exp:	
   964                           ; 1 bytes @ 0xF
   965                           
   966     002F                     ___awdiv@dividend:	
   967                           ; 1 bytes @ 0xF
   968                           
   969     002F                     ___lldiv@quotient:	
   970                           ; 2 bytes @ 0xF
   971                           
   972     002F                     __div_to_l_@quot:	
   973                           ; 4 bytes @ 0xF
   974                           
   975                           
   976                           ; 4 bytes @ 0xF
   977     002F                     	ds	1
   978     0030                     ??___lwdiv:
   979     0030                     ___xxtofl@arg:	
   980                           ; 1 bytes @ 0x10
   981                           
   982                           
   983                           ; 4 bytes @ 0x10
   984     0030                     	ds	1
   985     0031                     ??___awdiv:
   986     0031                     ___lwdiv@quotient:	
   987                           ; 1 bytes @ 0x11
   988                           
   989     0031                     __tdiv_to_l_@quot:	
   990                           ; 2 bytes @ 0x11
   991                           
   992                           
   993                           ; 4 bytes @ 0x11
   994     0031                     	ds	1
   995     0032                     ___awdiv@counter:
   996                           
   997                           ; 1 bytes @ 0x12
   998     0032                     	ds	1
   999     0033                     ___lldiv@counter:
  1000     0033                     ___awdiv@sign:	
  1001                           ; 1 bytes @ 0x13
  1002                           
  1003     0033                     __div_to_l_@cntr:	
  1004                           ; 1 bytes @ 0x13
  1005                           
  1006     0033                     ___lwdiv@counter:	
  1007                           ; 1 bytes @ 0x13
  1008                           
  1009                           
  1010                           ; 1 bytes @ 0x13
  1011     0033                     	ds	1
  1012     0034                     __div_to_l_@exp1:
  1013     0034                     ___awdiv@quotient:	
  1014                           ; 1 bytes @ 0x14
  1015                           
  1016                           
  1017                           ; 2 bytes @ 0x14
  1018     0034                     	ds	1
  1019     0035                     __tdiv_to_l_@cntr:
  1020                           
  1021                           ; 1 bytes @ 0x15
  1022     0035                     	ds	1
  1023     0036                     ?___flmul:
  1024     0036                     __tdiv_to_l_@exp1:	
  1025                           ; 4 bytes @ 0x16
  1026                           
  1027     0036                     ___flmul@b:	
  1028                           ; 1 bytes @ 0x16
  1029                           
  1030                           
  1031                           ; 4 bytes @ 0x16
  1032     0036                     	ds	4
  1033     003A                     ___flmul@a:
  1034                           
  1035                           ; 4 bytes @ 0x1A
  1036     003A                     	ds	4
  1037     003E                     ??___flmul:
  1038                           
  1039                           ; 1 bytes @ 0x1E
  1040     003E                     	ds	5
  1041     0043                     ___flmul@sign:
  1042                           
  1043                           ; 1 bytes @ 0x23
  1044     0043                     	ds	1
  1045     0044                     ___flmul@grs:
  1046                           
  1047                           ; 4 bytes @ 0x24
  1048     0044                     	ds	4
  1049     0048                     ___flmul@aexp:
  1050                           
  1051                           ; 1 bytes @ 0x28
  1052     0048                     	ds	1
  1053     0049                     ___flmul@bexp:
  1054                           
  1055                           ; 1 bytes @ 0x29
  1056     0049                     	ds	1
  1057     004A                     ___flmul@prod:
  1058                           
  1059                           ; 4 bytes @ 0x2A
  1060     004A                     	ds	4
  1061     004E                     ___flmul@temp:
  1062                           
  1063                           ; 2 bytes @ 0x2E
  1064     004E                     	ds	2
  1065     0050                     ?_fround:
  1066     0050                     ?_scale:	
  1067                           ; 4 bytes @ 0x30
  1068                           
  1069     0050                     ?___fldiv:	
  1070                           ; 4 bytes @ 0x30
  1071                           
  1072     0050                     ___fldiv@a:	
  1073                           ; 4 bytes @ 0x30
  1074                           
  1075                           
  1076                           ; 4 bytes @ 0x30
  1077     0050                     	ds	4
  1078     0054                     ??_fround:
  1079     0054                     ??_scale:	
  1080                           ; 1 bytes @ 0x34
  1081                           
  1082     0054                     ___fldiv@b:	
  1083                           ; 1 bytes @ 0x34
  1084                           
  1085                           
  1086                           ; 4 bytes @ 0x34
  1087     0054                     	ds	4
  1088     0058                     ??___fldiv:
  1089                           
  1090                           ; 1 bytes @ 0x38
  1091     0058                     	ds	3
  1092     005B                     _fround$1036:
  1093                           
  1094                           ; 4 bytes @ 0x3B
  1095     005B                     	ds	3
  1096     005E                     _scale$1037:
  1097                           
  1098                           ; 4 bytes @ 0x3E
  1099     005E                     	ds	1
  1100     005F                     _fround$1035:
  1101                           
  1102                           ; 4 bytes @ 0x3F
  1103     005F                     	ds	3
  1104     0062                     scale@scl:
  1105                           
  1106                           ; 1 bytes @ 0x42
  1107     0062                     	ds	1
  1108     0063                     fround@prec:
  1109                           
  1110                           ; 1 bytes @ 0x43
  1111     0063                     	ds	1
  1112     0064                     ??___flsub:
  1113                           
  1114                           	psect	maintext
  1115     06E5                     __pmaintext:	
  1116                           ; 1 bytes @ 0x44
  1117 ;;
  1118 ;;Main: autosize = 0, tempsize = 3, incstack = 0, save=0
  1119 ;;
  1120 ;; *************** function _main *****************
  1121 ;; Defined at:
  1122 ;;		line 57 in file "Lab2.c"
  1123 ;; Parameters:    Size  Location     Type
  1124 ;;		None
  1125 ;; Auto vars:     Size  Location     Type
  1126 ;;  s              20    0[BANK3 ] unsigned char [20]
  1127 ;;  varvolt2        4   20[BANK3 ] float 
  1128 ;;  f               4    0        float 
  1129 ;; Return value:  Size  Location     Type
  1130 ;;                  1    wreg      void 
  1131 ;; Registers used:
  1132 ;;		wreg, fsr0l, fsr0h, status,2, status,0, btemp+1, pclath, cstack
  1133 ;; Tracked objects:
  1134 ;;		On entry : B00/0
  1135 ;;		On exit  : 0/0
  1136 ;;		Unchanged: 0/0
  1137 ;; Data sizes:     COMMON   BANK0   BANK1   BANK3   BANK2
  1138 ;;      Params:         0       0       0       0       0
  1139 ;;      Locals:         0       0       0      24       0
  1140 ;;      Temps:          0       0       3       0       0
  1141 ;;      Totals:         0       0       3      24       0
  1142 ;;Total ram usage:       27 bytes
  1143 ;; Hardware stack levels required when called: 6
  1144 ;; This function calls:
  1145 ;;		___fldiv
  1146 ;;		___flmul
  1147 ;;		_setup
  1148 ;;		_sprintf
  1149 ;; This function is called by:
  1150 ;;		Startup code after reset
  1151 ;; This function uses a non-reentrant model
  1152 ;;
  1153                           
  1154     06E5                     _main:	
  1155                           ;psect for function _main
  1156                           
  1157     06E5                     l4213:	
  1158                           ;incstack = 0
  1159                           ; Regs used in _main: [wreg-fsr0h+status,2+status,0+btemp+1+pclath+cstack]
  1160                           
  1161                           
  1162                           ;Lab2.c: 65:  setup();
  1163     06E5  160A  158A  232B  120A  118A  	fcall	_setup
  1164     06EA                     l4215:
  1165                           
  1166                           ;Lab2.c: 66:  ADCON0bits.GO =1;
  1167     06EA  1283               	bcf	3,5	;RP0=0, select bank0
  1168     06EB  1303               	bcf	3,6	;RP1=0, select bank0
  1169     06EC  149F               	bsf	31,1	;volatile
  1170     06ED                     l4217:
  1171                           
  1172                           ;Lab2.c: 67:  i=0;
  1173     06ED  1683               	bsf	3,5	;RP0=1, select bank3
  1174     06EE  1703               	bsf	3,6	;RP1=1, select bank3
  1175     06EF  01AC               	clrf	_i^(0+384)
  1176     06F0  01AD               	clrf	(_i+1)^(0+384)
  1177     06F1                     l4219:
  1178                           
  1179                           ;Lab2.c: 72:      if (ADCON0bits.GO ==0){
  1180     06F1  1283               	bcf	3,5	;RP0=0, select bank0
  1181     06F2  1303               	bcf	3,6	;RP1=0, select bank0
  1182     06F3  189F               	btfsc	31,1	;volatile
  1183     06F4  2EF6               	goto	u7381
  1184     06F5  2EF7               	goto	u7380
  1185     06F6                     u7381:
  1186     06F6  2F24               	goto	l4235
  1187     06F7                     u7380:
  1188     06F7                     l4221:
  1189                           
  1190                           ;Lab2.c: 73:            for (i=0;i<=2;i++){
  1191     06F7  1683               	bsf	3,5	;RP0=1, select bank3
  1192     06F8  1703               	bsf	3,6	;RP1=1, select bank3
  1193     06F9  01AC               	clrf	_i^(0+384)
  1194     06FA  01AD               	clrf	(_i+1)^(0+384)
  1195     06FB                     l4227:
  1196                           
  1197                           ;Lab2.c: 74:            ADCON0bits.CHS = i;
  1198     06FB  1683               	bsf	3,5	;RP0=1, select bank3
  1199     06FC  1703               	bsf	3,6	;RP1=1, select bank3
  1200     06FD  082C               	movf	_i^(0+384),w
  1201     06FE  1683               	bsf	3,5	;RP0=1, select bank1
  1202     06FF  1303               	bcf	3,6	;RP1=0, select bank1
  1203     0700  00DF               	movwf	??_main^(0+128)
  1204     0701  0DDF               	rlf	??_main^(0+128),f
  1205     0702  0DDF               	rlf	??_main^(0+128),f
  1206     0703  1283               	bcf	3,5	;RP0=0, select bank0
  1207     0704  1303               	bcf	3,6	;RP1=0, select bank0
  1208     0705  081F               	movf	31,w	;volatile
  1209     0706  1683               	bsf	3,5	;RP0=1, select bank1
  1210     0707  1303               	bcf	3,6	;RP1=0, select bank1
  1211     0708  065F               	xorwf	??_main^(0+128),w
  1212     0709  39C3               	andlw	-61
  1213     070A  065F               	xorwf	??_main^(0+128),w
  1214     070B  1283               	bcf	3,5	;RP0=0, select bank0
  1215     070C  1303               	bcf	3,6	;RP1=0, select bank0
  1216     070D  009F               	movwf	31	;volatile
  1217     070E                     l4229:
  1218                           
  1219                           ;Lab2.c: 75:            ADCON0bits.GO =1;
  1220     070E  149F               	bsf	31,1	;volatile
  1221     070F                     l4231:
  1222                           
  1223                           ;Lab2.c: 76:         }
  1224     070F  3001               	movlw	1
  1225     0710  1683               	bsf	3,5	;RP0=1, select bank3
  1226     0711  1703               	bsf	3,6	;RP1=1, select bank3
  1227     0712  07AC               	addwf	_i^(0+384),f
  1228     0713  1803               	skipnc
  1229     0714  0AAD               	incf	(_i+1)^(0+384),f
  1230     0715  3000               	movlw	0
  1231     0716  07AD               	addwf	(_i+1)^(0+384),f
  1232     0717                     l4233:
  1233     0717  082D               	movf	(_i+1)^(0+384),w
  1234     0718  3A80               	xorlw	128
  1235     0719  00FF               	movwf	btemp+1
  1236     071A  3080               	movlw	128
  1237     071B  027F               	subwf	btemp+1,w
  1238     071C  1D03               	skipz
  1239     071D  2F20               	goto	u7395
  1240     071E  3003               	movlw	3
  1241     071F  022C               	subwf	_i^(0+384),w
  1242     0720                     u7395:
  1243     0720  1C03               	skipc
  1244     0721  2F23               	goto	u7391
  1245     0722  2F24               	goto	u7390
  1246     0723                     u7391:
  1247     0723  2EFB               	goto	l4227
  1248     0724                     u7390:
  1249     0724                     l4235:
  1250     0724                     l4237:
  1251                           
  1252                           ;Lab2.c: 82: float varvolt2 = (varvolt*5)/255 ;
  1253     0724  3043               	movlw	67
  1254     0725  1283               	bcf	3,5	;RP0=0, select bank0
  1255     0726  1303               	bcf	3,6	;RP1=0, select bank0
  1256     0727  00D3               	movwf	___fldiv@a+3
  1257     0728  307F               	movlw	127
  1258     0729  00D2               	movwf	___fldiv@a+2
  1259     072A  3000               	movlw	0
  1260     072B  00D1               	movwf	___fldiv@a+1
  1261     072C  3000               	movlw	0
  1262     072D  00D0               	movwf	___fldiv@a
  1263     072E  3040               	movlw	64
  1264     072F  00B9               	movwf	___flmul@b+3
  1265     0730  30A0               	movlw	160
  1266     0731  00B8               	movwf	___flmul@b+2
  1267     0732  3000               	movlw	0
  1268     0733  00B7               	movwf	___flmul@b+1
  1269     0734  3000               	movlw	0
  1270     0735  00B6               	movwf	___flmul@b
  1271     0736  1683               	bsf	3,5	;RP0=1, select bank3
  1272     0737  1703               	bsf	3,6	;RP1=1, select bank3
  1273     0738  082B               	movf	(_varvolt+3)^(0+384),w
  1274     0739  1283               	bcf	3,5	;RP0=0, select bank0
  1275     073A  1303               	bcf	3,6	;RP1=0, select bank0
  1276     073B  00BD               	movwf	___flmul@a+3
  1277     073C  1683               	bsf	3,5	;RP0=1, select bank3
  1278     073D  1703               	bsf	3,6	;RP1=1, select bank3
  1279     073E  082A               	movf	(_varvolt+2)^(0+384),w
  1280     073F  1283               	bcf	3,5	;RP0=0, select bank0
  1281     0740  1303               	bcf	3,6	;RP1=0, select bank0
  1282     0741  00BC               	movwf	___flmul@a+2
  1283     0742  1683               	bsf	3,5	;RP0=1, select bank3
  1284     0743  1703               	bsf	3,6	;RP1=1, select bank3
  1285     0744  0829               	movf	(_varvolt+1)^(0+384),w
  1286     0745  1283               	bcf	3,5	;RP0=0, select bank0
  1287     0746  1303               	bcf	3,6	;RP1=0, select bank0
  1288     0747  00BB               	movwf	___flmul@a+1
  1289     0748  1683               	bsf	3,5	;RP0=1, select bank3
  1290     0749  1703               	bsf	3,6	;RP1=1, select bank3
  1291     074A  0828               	movf	_varvolt^(0+384),w
  1292     074B  1283               	bcf	3,5	;RP0=0, select bank0
  1293     074C  1303               	bcf	3,6	;RP1=0, select bank0
  1294     074D  00BA               	movwf	___flmul@a
  1295     074E  120A  158A  2158  120A  118A  	fcall	___flmul
  1296     0753  1283               	bcf	3,5	;RP0=0, select bank0
  1297     0754  1303               	bcf	3,6	;RP1=0, select bank0
  1298     0755  0839               	movf	?___flmul+3,w
  1299     0756  00D7               	movwf	___fldiv@b+3
  1300     0757  0838               	movf	?___flmul+2,w
  1301     0758  00D6               	movwf	___fldiv@b+2
  1302     0759  0837               	movf	?___flmul+1,w
  1303     075A  00D5               	movwf	___fldiv@b+1
  1304     075B  0836               	movf	?___flmul,w
  1305     075C  00D4               	movwf	___fldiv@b
  1306     075D  160A  118A  256E  120A  118A  	fcall	___fldiv
  1307     0762  1283               	bcf	3,5	;RP0=0, select bank0
  1308     0763  1303               	bcf	3,6	;RP1=0, select bank0
  1309     0764  0853               	movf	?___fldiv+3,w
  1310     0765  1683               	bsf	3,5	;RP0=1, select bank3
  1311     0766  1703               	bsf	3,6	;RP1=1, select bank3
  1312     0767  00A7               	movwf	(main@varvolt2+3)^(0+384)
  1313     0768  1283               	bcf	3,5	;RP0=0, select bank0
  1314     0769  1303               	bcf	3,6	;RP1=0, select bank0
  1315     076A  0852               	movf	?___fldiv+2,w
  1316     076B  1683               	bsf	3,5	;RP0=1, select bank3
  1317     076C  1703               	bsf	3,6	;RP1=1, select bank3
  1318     076D  00A6               	movwf	(main@varvolt2+2)^(0+384)
  1319     076E  1283               	bcf	3,5	;RP0=0, select bank0
  1320     076F  1303               	bcf	3,6	;RP1=0, select bank0
  1321     0770  0851               	movf	?___fldiv+1,w
  1322     0771  1683               	bsf	3,5	;RP0=1, select bank3
  1323     0772  1703               	bsf	3,6	;RP1=1, select bank3
  1324     0773  00A5               	movwf	(main@varvolt2+1)^(0+384)
  1325     0774  1283               	bcf	3,5	;RP0=0, select bank0
  1326     0775  1303               	bcf	3,6	;RP1=0, select bank0
  1327     0776  0850               	movf	?___fldiv,w
  1328     0777  1683               	bsf	3,5	;RP0=1, select bank3
  1329     0778  1703               	bsf	3,6	;RP1=1, select bank3
  1330     0779  00A4               	movwf	main@varvolt2^(0+384)
  1331     077A                     l4239:
  1332                           
  1333                           ;Lab2.c: 84:         sprintf(s, "volt= %f", varvolt2);
  1334     077A  3091               	movlw	(low ((STR_1-__stringbase)| (0+32768)))& (0+255)
  1335     077B  1683               	bsf	3,5	;RP0=1, select bank1
  1336     077C  1303               	bcf	3,6	;RP1=0, select bank1
  1337     077D  00BC               	movwf	sprintf@f^(0+128)
  1338     077E  1683               	bsf	3,5	;RP0=1, select bank3
  1339     077F  1703               	bsf	3,6	;RP1=1, select bank3
  1340     0780  0827               	movf	(main@varvolt2+3)^(0+384),w
  1341     0781  1683               	bsf	3,5	;RP0=1, select bank1
  1342     0782  1303               	bcf	3,6	;RP1=0, select bank1
  1343     0783  00C0               	movwf	((?_sprintf+3)^(0+128)+1)
  1344     0784  1683               	bsf	3,5	;RP0=1, select bank3
  1345     0785  1703               	bsf	3,6	;RP1=1, select bank3
  1346     0786  0826               	movf	(main@varvolt2+2)^(0+384),w
  1347     0787  1683               	bsf	3,5	;RP0=1, select bank1
  1348     0788  1303               	bcf	3,6	;RP1=0, select bank1
  1349     0789  00BF               	movwf	((?_sprintf+2)^(0+128)+1)
  1350     078A  1683               	bsf	3,5	;RP0=1, select bank3
  1351     078B  1703               	bsf	3,6	;RP1=1, select bank3
  1352     078C  0825               	movf	(main@varvolt2+1)^(0+384),w
  1353     078D  1683               	bsf	3,5	;RP0=1, select bank1
  1354     078E  1303               	bcf	3,6	;RP1=0, select bank1
  1355     078F  00BE               	movwf	((?_sprintf+1)^(0+128)+1)
  1356     0790  1683               	bsf	3,5	;RP0=1, select bank3
  1357     0791  1703               	bsf	3,6	;RP1=1, select bank3
  1358     0792  0824               	movf	main@varvolt2^(0+384),w
  1359     0793  1683               	bsf	3,5	;RP0=1, select bank1
  1360     0794  1303               	bcf	3,6	;RP1=0, select bank1
  1361     0795  00BD               	movwf	(?_sprintf^(0+128)+1)
  1362     0796  3090               	movlw	(low (main@s| (0+256)))& (0+255)
  1363     0797  120A  118A  2025  120A  118A  	fcall	_sprintf
  1364     079C                     l4241:
  1365                           
  1366                           ;Lab2.c: 86:     _delay((unsigned long)((2000)*(8000000/4000.0)));
  1367     079C  3015               	movlw	21
  1368     079D  1683               	bsf	3,5	;RP0=1, select bank1
  1369     079E  1303               	bcf	3,6	;RP1=0, select bank1
  1370     079F  00E1               	movwf	(??_main^(0+128)+2)
  1371     07A0  304B               	movlw	75
  1372     07A1  00E0               	movwf	(??_main^(0+128)+1)
  1373     07A2  30BD               	movlw	189
  1374     07A3  00DF               	movwf	??_main^(0+128)
  1375     07A4                     u7407:
  1376     07A4  0BDF               	decfsz	??_main^(0+128),f
  1377     07A5  2FA4               	goto	u7407
  1378     07A6  0BE0               	decfsz	(??_main^(0+128)+1),f
  1379     07A7  2FA4               	goto	u7407
  1380     07A8  0BE1               	decfsz	(??_main^(0+128)+2),f
  1381     07A9  2FA4               	goto	u7407
  1382     07AA  2FAB               	nop2
  1383     07AB  2EF1               	goto	l4219
  1384     07AC  120A  118A  280E   	ljmp	start
  1385     07AF                     __end_of_main:
  1386                           
  1387                           	psect	text1
  1388     0025                     __ptext1:	
  1389 ;; *************** function _sprintf *****************
  1390 ;; Defined at:
  1391 ;;		line 505 in file "C:\Program Files\Microchip\xc8\v2.40\pic\sources\c90\common\doprnt.c"
  1392 ;; Parameters:    Size  Location     Type
  1393 ;;  sp              1    wreg     PTR unsigned char 
  1394 ;;		 -> main@s(20), 
  1395 ;;  f               1   28[BANK1 ] PTR const unsigned char 
  1396 ;;		 -> STR_1(9), 
  1397 ;; Auto vars:     Size  Location     Type
  1398 ;;  sp              1   53[BANK1 ] PTR unsigned char 
  1399 ;;		 -> main@s(20), 
  1400 ;;  fval            4   58[BANK1 ] PTR unsigned char 
  1401 ;;  tmpval          4   54[BANK1 ] struct .
  1402 ;;  val             4   47[BANK1 ] unsigned long 
  1403 ;;  eexp            2   51[BANK1 ] int 
  1404 ;;  prec            2   45[BANK1 ] int 
  1405 ;;  flag            2   43[BANK1 ] unsigned short 
  1406 ;;  cp              2    0        PTR const unsigned char 
  1407 ;;  len             2    0        unsigned int 
  1408 ;;  width           2    0        int 
  1409 ;;  c               1   62[BANK1 ] unsigned char 
  1410 ;;  ap              1   42[BANK1 ] PTR void [1]
  1411 ;;		 -> ?_sprintf(2), 
  1412 ;;  d               1    0        unsigned char 
  1413 ;; Return value:  Size  Location     Type
  1414 ;;                  2   28[BANK1 ] int 
  1415 ;; Registers used:
  1416 ;;		wreg, fsr0l, fsr0h, status,2, status,0, btemp+1, pclath, cstack
  1417 ;; Tracked objects:
  1418 ;;		On entry : 0/0
  1419 ;;		On exit  : 0/0
  1420 ;;		Unchanged: 0/0
  1421 ;; Data sizes:     COMMON   BANK0   BANK1   BANK3   BANK2
  1422 ;;      Params:         0       0       5       0       0
  1423 ;;      Locals:         0       0      25       0       0
  1424 ;;      Temps:          0       0       5       0       0
  1425 ;;      Totals:         0       0      35       0       0
  1426 ;;Total ram usage:       35 bytes
  1427 ;; Hardware stack levels used: 1
  1428 ;; Hardware stack levels required when called: 5
  1429 ;; This function calls:
  1430 ;;		___awdiv
  1431 ;;		___fladd
  1432 ;;		___fleq
  1433 ;;		___flge
  1434 ;;		___flmul
  1435 ;;		___flneg
  1436 ;;		___flsub
  1437 ;;		___fltol
  1438 ;;		___lldiv
  1439 ;;		___llmod
  1440 ;;		___wmul
  1441 ;;		___xxtofl
  1442 ;;		__div_to_l_
  1443 ;;		__tdiv_to_l_
  1444 ;;		_fround
  1445 ;;		_scale
  1446 ;; This function is called by:
  1447 ;;		_main
  1448 ;; This function uses a non-reentrant model
  1449 ;;
  1450                           
  1451     0025                     _sprintf:	
  1452                           ;psect for function _sprintf
  1453                           
  1454                           
  1455                           ;incstack = 0
  1456                           ; Regs used in _sprintf: [wreg-fsr0h+status,2+status,0+btemp+1+pclath+cstack]
  1457                           ;sprintf@sp stored from wreg
  1458     0025  1683               	bsf	3,5	;RP0=1, select bank1
  1459     0026  1303               	bcf	3,6	;RP1=0, select bank1
  1460     0027  00D5               	movwf	sprintf@sp^(0+128)
  1461     0028                     l3899:
  1462                           
  1463                           ;C:\Program Files\Microchip\xc8\v2.40\pic\sources\c90\common\doprnt.c: 505: sprintf(char
      +                           * sp, const char * f, ...);C:\Program Files\Microchip\xc8\v2.40\pic\sources\c90\common\
      +                          doprnt.c: 506: {;C:\Program Files\Microchip\xc8\v2.40\pic\sources\c90\common\doprnt.c: 5
      +                          07:  va_list ap;;C:\Program Files\Microchip\xc8\v2.40\pic\sources\c90\common\doprnt.c: 5
      +                          12:  char c;;C:\Program Files\Microchip\xc8\v2.40\pic\sources\c90\common\doprnt.c: 514: 
      +                           int width;;C:\Program Files\Microchip\xc8\v2.40\pic\sources\c90\common\doprnt.c: 517:  
      +                          int prec;
  1464     0028  30BD               	movlw	(low ((?_sprintf| 0+1)))& (0+255)
  1465     0029  00CA               	movwf	sprintf@ap^(0+128)
  1466                           
  1467                           ;C:\Program Files\Microchip\xc8\v2.40\pic\sources\c90\common\doprnt.c: 553:  while((c = 
      +                          *f++)) {
  1468     002A  2ED0               	goto	l4059
  1469     002B                     l3901:
  1470                           
  1471                           ;C:\Program Files\Microchip\xc8\v2.40\pic\sources\c90\common\doprnt.c: 555:   if(c != '%
      +                          ')
  1472     002B  3025               	movlw	37
  1473     002C  065E               	xorwf	sprintf@c^(0+128),w
  1474     002D  1903               	btfsc	3,2
  1475     002E  2830               	goto	u6811
  1476     002F  2831               	goto	u6810
  1477     0030                     u6811:
  1478     0030  283B               	goto	l3907
  1479     0031                     u6810:
  1480     0031                     l3903:
  1481                           
  1482                           ;C:\Program Files\Microchip\xc8\v2.40\pic\sources\c90\common\doprnt.c: 557:   {;C:\Progr
      +                          am Files\Microchip\xc8\v2.40\pic\sources\c90\common\doprnt.c: 558:    ((*sp++ = (c)));
  1483     0031  0855               	movf	sprintf@sp^(0+128),w
  1484     0032  0084               	movwf	4
  1485     0033  085E               	movf	sprintf@c^(0+128),w
  1486     0034  1783               	bsf	3,7	;select IRP bank2
  1487     0035  0080               	movwf	0
  1488     0036                     l3905:
  1489     0036  3001               	movlw	1
  1490     0037  00C1               	movwf	??_sprintf^(0+128)
  1491     0038  0841               	movf	??_sprintf^(0+128),w
  1492     0039  07D5               	addwf	sprintf@sp^(0+128),f
  1493                           
  1494                           ;C:\Program Files\Microchip\xc8\v2.40\pic\sources\c90\common\doprnt.c: 559:    continue;
  1495     003A  2ED0               	goto	l4059
  1496     003B                     l3907:
  1497                           
  1498                           ;C:\Program Files\Microchip\xc8\v2.40\pic\sources\c90\common\doprnt.c: 565:   flag = 0;
  1499     003B  01CB               	clrf	sprintf@flag^(0+128)
  1500     003C  01CC               	clrf	(sprintf@flag+1)^(0+128)
  1501                           
  1502                           ;C:\Program Files\Microchip\xc8\v2.40\pic\sources\c90\common\doprnt.c: 661:   switch(c =
      +                           *f++) {
  1503     003D  2840               	goto	l3911
  1504     003E                     l253:	
  1505                           ;C:\Program Files\Microchip\xc8\v2.40\pic\sources\c90\common\doprnt.c: 688:   case 'f':
  1506                           
  1507                           
  1508                           ;C:\Program Files\Microchip\xc8\v2.40\pic\sources\c90\common\doprnt.c: 689:    flag |= 0
      +                          x400;
  1509     003E  154C               	bsf	(sprintf@flag^(0+128)+1),2
  1510                           
  1511                           ;C:\Program Files\Microchip\xc8\v2.40\pic\sources\c90\common\doprnt.c: 690:    break;
  1512     003F  285A               	goto	l3913
  1513     0040                     l3911:
  1514     0040  3001               	movlw	1
  1515     0041  07BC               	addwf	sprintf@f^(0+128),f
  1516     0042  30FF               	movlw	-1
  1517     0043  073C               	addwf	sprintf@f^(0+128),w
  1518     0044  0084               	movwf	4
  1519     0045  160A  158A  2000  120A  118A  	fcall	stringdir
  1520     004A  00DE               	movwf	sprintf@c^(0+128)
  1521     004B  00C1               	movwf	??_sprintf^(0+128)
  1522     004C  01C2               	clrf	(??_sprintf^(0+128)+1)
  1523                           
  1524                           ; Switch on 2 bytes has been partitioned into a top level switch of size 1, and 1 sub-sw
      +                          itches
  1525                           ; Switch size 1, requested type "simple"
  1526                           ; Number of cases is 1, Range of values is 0 to 0
  1527                           ; switch strategies available:
  1528                           ; Name         Instructions Cycles
  1529                           ; simple_byte            4     3 (average)
  1530                           ; direct_byte           11     8 (fixed)
  1531                           ; jumptable            260     6 (fixed)
  1532                           ;	Chosen strategy is simple_byte
  1533     004D  0842               	movf	(??_sprintf+1)^(0+128),w
  1534     004E  3A00               	xorlw	0	; case 0
  1535     004F  1903               	skipnz
  1536     0050  2852               	goto	l4273
  1537     0051  2ED0               	goto	l4059
  1538     0052                     l4273:
  1539                           
  1540                           ; Switch size 1, requested type "simple"
  1541                           ; Number of cases is 2, Range of values is 0 to 102
  1542                           ; switch strategies available:
  1543                           ; Name         Instructions Cycles
  1544                           ; simple_byte            7     4 (average)
  1545                           ; jumptable            260     6 (fixed)
  1546                           ;	Chosen strategy is simple_byte
  1547     0052  0841               	movf	??_sprintf^(0+128),w
  1548     0053  3A00               	xorlw	0	; case 0
  1549     0054  1903               	skipnz
  1550     0055  2EE0               	goto	l4061
  1551     0056  3A66               	xorlw	102	; case 102
  1552     0057  1903               	skipnz
  1553     0058  283E               	goto	l253
  1554     0059  2ED0               	goto	l4059
  1555     005A                     l3913:
  1556                           
  1557                           ;C:\Program Files\Microchip\xc8\v2.40\pic\sources\c90\common\doprnt.c: 851:   if(flag & 
      +                          (0x700)) {
  1558     005A  3000               	movlw	0
  1559     005B  054B               	andwf	sprintf@flag^(0+128),w
  1560     005C  00C1               	movwf	??_sprintf^(0+128)
  1561     005D  3007               	movlw	7
  1562     005E  054C               	andwf	(sprintf@flag+1)^(0+128),w
  1563     005F  00C2               	movwf	(??_sprintf+1)^(0+128)
  1564     0060  0841               	movf	??_sprintf^(0+128),w
  1565     0061  0442               	iorwf	(??_sprintf^(0+128)+1),w
  1566     0062  1903               	btfsc	3,2
  1567     0063  2865               	goto	u6821
  1568     0064  2866               	goto	u6820
  1569     0065                     u6821:
  1570     0065  2EBE               	goto	l4053
  1571     0066                     u6820:
  1572     0066                     l3915:
  1573                           
  1574                           ;C:\Program Files\Microchip\xc8\v2.40\pic\sources\c90\common\doprnt.c: 855:     prec = 6
      +                          ;
  1575     0066  3006               	movlw	6
  1576     0067  00CD               	movwf	sprintf@prec^(0+128)
  1577     0068  3000               	movlw	0
  1578     0069  00CE               	movwf	(sprintf@prec^(0+128)+1)
  1579     006A                     l3917:
  1580                           
  1581                           ;C:\Program Files\Microchip\xc8\v2.40\pic\sources\c90\common\doprnt.c: 856:    fval = (*
      +                          (double *)__va_arg((*(double **)ap), (double)0));
  1582     006A  084A               	movf	sprintf@ap^(0+128),w
  1583     006B  0084               	movwf	4
  1584     006C  1383               	bcf	3,7	;select IRP bank0
  1585     006D  0800               	movf	0,w
  1586     006E  00DA               	movwf	sprintf@fval^(0+128)
  1587     006F  0A84               	incf	4,f
  1588     0070  0800               	movf	0,w
  1589     0071  00DB               	movwf	(sprintf@fval+1)^(0+128)
  1590     0072  0A84               	incf	4,f
  1591     0073  0800               	movf	0,w
  1592     0074  00DC               	movwf	(sprintf@fval+2)^(0+128)
  1593     0075  0A84               	incf	4,f
  1594     0076  0800               	movf	0,w
  1595     0077  00DD               	movwf	(sprintf@fval+3)^(0+128)
  1596     0078                     l3919:
  1597     0078  3004               	movlw	4
  1598     0079  00C1               	movwf	??_sprintf^(0+128)
  1599     007A  0841               	movf	??_sprintf^(0+128),w
  1600     007B  07CA               	addwf	sprintf@ap^(0+128),f
  1601     007C                     l3921:
  1602                           
  1603                           ;C:\Program Files\Microchip\xc8\v2.40\pic\sources\c90\common\doprnt.c: 857:    if(fval <
      +                           0.0) {
  1604     007C  085D               	movf	(sprintf@fval+3)^(0+128),w
  1605     007D  1283               	bcf	3,5	;RP0=0, select bank0
  1606     007E  1303               	bcf	3,6	;RP1=0, select bank0
  1607     007F  00A9               	movwf	___flge@ff1+3
  1608     0080  1683               	bsf	3,5	;RP0=1, select bank1
  1609     0081  1303               	bcf	3,6	;RP1=0, select bank1
  1610     0082  085C               	movf	(sprintf@fval+2)^(0+128),w
  1611     0083  1283               	bcf	3,5	;RP0=0, select bank0
  1612     0084  1303               	bcf	3,6	;RP1=0, select bank0
  1613     0085  00A8               	movwf	___flge@ff1+2
  1614     0086  1683               	bsf	3,5	;RP0=1, select bank1
  1615     0087  1303               	bcf	3,6	;RP1=0, select bank1
  1616     0088  085B               	movf	(sprintf@fval+1)^(0+128),w
  1617     0089  1283               	bcf	3,5	;RP0=0, select bank0
  1618     008A  1303               	bcf	3,6	;RP1=0, select bank0
  1619     008B  00A7               	movwf	___flge@ff1+1
  1620     008C  1683               	bsf	3,5	;RP0=1, select bank1
  1621     008D  1303               	bcf	3,6	;RP1=0, select bank1
  1622     008E  085A               	movf	sprintf@fval^(0+128),w
  1623     008F  1283               	bcf	3,5	;RP0=0, select bank0
  1624     0090  1303               	bcf	3,6	;RP1=0, select bank0
  1625     0091  00A6               	movwf	___flge@ff1
  1626     0092  3000               	movlw	0
  1627     0093  00AD               	movwf	___flge@ff2+3
  1628     0094  3000               	movlw	0
  1629     0095  00AC               	movwf	___flge@ff2+2
  1630     0096  3000               	movlw	0
  1631     0097  00AB               	movwf	___flge@ff2+1
  1632     0098  3000               	movlw	0
  1633     0099  00AA               	movwf	___flge@ff2
  1634     009A  160A  158A  25ED  120A  118A  	fcall	___flge
  1635     009F  1803               	btfsc	3,0
  1636     00A0  28A2               	goto	u6831
  1637     00A1  28A3               	goto	u6830
  1638     00A2                     u6831:
  1639     00A2  28DC               	goto	l3927
  1640     00A3                     u6830:
  1641     00A3                     l3923:
  1642                           
  1643                           ;C:\Program Files\Microchip\xc8\v2.40\pic\sources\c90\common\doprnt.c: 858:     fval = -
      +                          fval;
  1644     00A3  1683               	bsf	3,5	;RP0=1, select bank1
  1645     00A4  1303               	bcf	3,6	;RP1=0, select bank1
  1646     00A5  085D               	movf	(sprintf@fval+3)^(0+128),w
  1647     00A6  1283               	bcf	3,5	;RP0=0, select bank0
  1648     00A7  1303               	bcf	3,6	;RP1=0, select bank0
  1649     00A8  00A9               	movwf	___flneg@f1+3
  1650     00A9  1683               	bsf	3,5	;RP0=1, select bank1
  1651     00AA  1303               	bcf	3,6	;RP1=0, select bank1
  1652     00AB  085C               	movf	(sprintf@fval+2)^(0+128),w
  1653     00AC  1283               	bcf	3,5	;RP0=0, select bank0
  1654     00AD  1303               	bcf	3,6	;RP1=0, select bank0
  1655     00AE  00A8               	movwf	___flneg@f1+2
  1656     00AF  1683               	bsf	3,5	;RP0=1, select bank1
  1657     00B0  1303               	bcf	3,6	;RP1=0, select bank1
  1658     00B1  085B               	movf	(sprintf@fval+1)^(0+128),w
  1659     00B2  1283               	bcf	3,5	;RP0=0, select bank0
  1660     00B3  1303               	bcf	3,6	;RP1=0, select bank0
  1661     00B4  00A7               	movwf	___flneg@f1+1
  1662     00B5  1683               	bsf	3,5	;RP0=1, select bank1
  1663     00B6  1303               	bcf	3,6	;RP1=0, select bank1
  1664     00B7  085A               	movf	sprintf@fval^(0+128),w
  1665     00B8  1283               	bcf	3,5	;RP0=0, select bank0
  1666     00B9  1303               	bcf	3,6	;RP1=0, select bank0
  1667     00BA  00A6               	movwf	___flneg@f1
  1668     00BB  160A  158A  22CE  120A  118A  	fcall	___flneg
  1669     00C0  1283               	bcf	3,5	;RP0=0, select bank0
  1670     00C1  1303               	bcf	3,6	;RP1=0, select bank0
  1671     00C2  0829               	movf	?___flneg+3,w
  1672     00C3  1683               	bsf	3,5	;RP0=1, select bank1
  1673     00C4  1303               	bcf	3,6	;RP1=0, select bank1
  1674     00C5  00DD               	movwf	(sprintf@fval+3)^(0+128)
  1675     00C6  1283               	bcf	3,5	;RP0=0, select bank0
  1676     00C7  1303               	bcf	3,6	;RP1=0, select bank0
  1677     00C8  0828               	movf	?___flneg+2,w
  1678     00C9  1683               	bsf	3,5	;RP0=1, select bank1
  1679     00CA  1303               	bcf	3,6	;RP1=0, select bank1
  1680     00CB  00DC               	movwf	(sprintf@fval+2)^(0+128)
  1681     00CC  1283               	bcf	3,5	;RP0=0, select bank0
  1682     00CD  1303               	bcf	3,6	;RP1=0, select bank0
  1683     00CE  0827               	movf	?___flneg+1,w
  1684     00CF  1683               	bsf	3,5	;RP0=1, select bank1
  1685     00D0  1303               	bcf	3,6	;RP1=0, select bank1
  1686     00D1  00DB               	movwf	(sprintf@fval+1)^(0+128)
  1687     00D2  1283               	bcf	3,5	;RP0=0, select bank0
  1688     00D3  1303               	bcf	3,6	;RP1=0, select bank0
  1689     00D4  0826               	movf	?___flneg,w
  1690     00D5  1683               	bsf	3,5	;RP0=1, select bank1
  1691     00D6  1303               	bcf	3,6	;RP1=0, select bank1
  1692     00D7  00DA               	movwf	sprintf@fval^(0+128)
  1693     00D8                     l3925:
  1694                           
  1695                           ;C:\Program Files\Microchip\xc8\v2.40\pic\sources\c90\common\doprnt.c: 859:     flag |= 
      +                          0x03;
  1696     00D8  3003               	movlw	3
  1697     00D9  04CB               	iorwf	sprintf@flag^(0+128),f
  1698     00DA  3000               	movlw	0
  1699     00DB  04CC               	iorwf	(sprintf@flag+1)^(0+128),f
  1700     00DC                     l3927:
  1701                           
  1702                           ;C:\Program Files\Microchip\xc8\v2.40\pic\sources\c90\common\doprnt.c: 861:    eexp = 0;
  1703     00DC  1683               	bsf	3,5	;RP0=1, select bank1
  1704     00DD  1303               	bcf	3,6	;RP1=0, select bank1
  1705     00DE  01D3               	clrf	sprintf@eexp^(0+128)
  1706     00DF  01D4               	clrf	(sprintf@eexp+1)^(0+128)
  1707     00E0                     l3929:
  1708                           
  1709                           ;C:\Program Files\Microchip\xc8\v2.40\pic\sources\c90\common\doprnt.c: 862:    if( fval!
      +                          =0) {
  1710     00E0  085D               	movf	(sprintf@fval+3)^(0+128),w
  1711     00E1  1283               	bcf	3,5	;RP0=0, select bank0
  1712     00E2  1303               	bcf	3,6	;RP1=0, select bank0
  1713     00E3  00A9               	movwf	___fleq@ff1+3
  1714     00E4  1683               	bsf	3,5	;RP0=1, select bank1
  1715     00E5  1303               	bcf	3,6	;RP1=0, select bank1
  1716     00E6  085C               	movf	(sprintf@fval+2)^(0+128),w
  1717     00E7  1283               	bcf	3,5	;RP0=0, select bank0
  1718     00E8  1303               	bcf	3,6	;RP1=0, select bank0
  1719     00E9  00A8               	movwf	___fleq@ff1+2
  1720     00EA  1683               	bsf	3,5	;RP0=1, select bank1
  1721     00EB  1303               	bcf	3,6	;RP1=0, select bank1
  1722     00EC  085B               	movf	(sprintf@fval+1)^(0+128),w
  1723     00ED  1283               	bcf	3,5	;RP0=0, select bank0
  1724     00EE  1303               	bcf	3,6	;RP1=0, select bank0
  1725     00EF  00A7               	movwf	___fleq@ff1+1
  1726     00F0  1683               	bsf	3,5	;RP0=1, select bank1
  1727     00F1  1303               	bcf	3,6	;RP1=0, select bank1
  1728     00F2  085A               	movf	sprintf@fval^(0+128),w
  1729     00F3  1283               	bcf	3,5	;RP0=0, select bank0
  1730     00F4  1303               	bcf	3,6	;RP1=0, select bank0
  1731     00F5  00A6               	movwf	___fleq@ff1
  1732     00F6  3000               	movlw	0
  1733     00F7  00AD               	movwf	___fleq@ff2+3
  1734     00F8  3000               	movlw	0
  1735     00F9  00AC               	movwf	___fleq@ff2+2
  1736     00FA  3000               	movlw	0
  1737     00FB  00AB               	movwf	___fleq@ff2+1
  1738     00FC  3000               	movlw	0
  1739     00FD  00AA               	movwf	___fleq@ff2
  1740     00FE  120A  118A  27AF  120A  118A  	fcall	___fleq
  1741     0103  1803               	btfsc	3,0
  1742     0104  2906               	goto	u6841
  1743     0105  2907               	goto	u6840
  1744     0106                     u6841:
  1745     0106  2A33               	goto	l3955
  1746     0107                     u6840:
  1747     0107                     l3931:
  1748                           
  1749                           ;C:\Program Files\Microchip\xc8\v2.40\pic\sources\c90\common\doprnt.c: 863:     (void)(*
      +                          (&eexp) = (unsigned char)((*(unsigned long *)&fval >> 23) & 255) - 126);
  1750     0107  1003               	clrc
  1751     0108  1683               	bsf	3,5	;RP0=1, select bank1
  1752     0109  1303               	bcf	3,6	;RP1=0, select bank1
  1753     010A  0D5C               	rlf	(sprintf@fval+2)^(0+128),w
  1754     010B  0D5D               	rlf	(sprintf@fval+3)^(0+128),w
  1755     010C  3E82               	addlw	130
  1756     010D  00D3               	movwf	sprintf@eexp^(0+128)
  1757     010E  30FF               	movlw	255
  1758     010F  1803               	skipnc
  1759     0110  3000               	movlw	0
  1760     0111  00D4               	movwf	(sprintf@eexp^(0+128)+1)
  1761     0112                     l3933:
  1762                           
  1763                           ;C:\Program Files\Microchip\xc8\v2.40\pic\sources\c90\common\doprnt.c: 864:     eexp--;
  1764     0112  30FF               	movlw	255
  1765     0113  07D3               	addwf	sprintf@eexp^(0+128),f
  1766     0114  1803               	skipnc
  1767     0115  0AD4               	incf	(sprintf@eexp+1)^(0+128),f
  1768     0116  30FF               	movlw	255
  1769     0117  07D4               	addwf	(sprintf@eexp+1)^(0+128),f
  1770     0118                     l3935:
  1771                           
  1772                           ;C:\Program Files\Microchip\xc8\v2.40\pic\sources\c90\common\doprnt.c: 865:     eexp *= 
      +                          3;
  1773     0118  3003               	movlw	3
  1774     0119  1283               	bcf	3,5	;RP0=0, select bank0
  1775     011A  1303               	bcf	3,6	;RP1=0, select bank0
  1776     011B  00A6               	movwf	___wmul@multiplier
  1777     011C  3000               	movlw	0
  1778     011D  00A7               	movwf	___wmul@multiplier+1
  1779     011E  1683               	bsf	3,5	;RP0=1, select bank1
  1780     011F  1303               	bcf	3,6	;RP1=0, select bank1
  1781     0120  0854               	movf	(sprintf@eexp+1)^(0+128),w
  1782     0121  1283               	bcf	3,5	;RP0=0, select bank0
  1783     0122  1303               	bcf	3,6	;RP1=0, select bank0
  1784     0123  00A9               	movwf	___wmul@multiplicand+1
  1785     0124  1683               	bsf	3,5	;RP0=1, select bank1
  1786     0125  1303               	bcf	3,6	;RP1=0, select bank1
  1787     0126  0853               	movf	sprintf@eexp^(0+128),w
  1788     0127  1283               	bcf	3,5	;RP0=0, select bank0
  1789     0128  1303               	bcf	3,6	;RP1=0, select bank0
  1790     0129  00A8               	movwf	___wmul@multiplicand
  1791     012A  160A  158A  22DB  120A  118A  	fcall	___wmul
  1792     012F  1283               	bcf	3,5	;RP0=0, select bank0
  1793     0130  1303               	bcf	3,6	;RP1=0, select bank0
  1794     0131  0827               	movf	?___wmul+1,w
  1795     0132  1683               	bsf	3,5	;RP0=1, select bank1
  1796     0133  1303               	bcf	3,6	;RP1=0, select bank1
  1797     0134  00D4               	movwf	(sprintf@eexp+1)^(0+128)
  1798     0135  1283               	bcf	3,5	;RP0=0, select bank0
  1799     0136  1303               	bcf	3,6	;RP1=0, select bank0
  1800     0137  0826               	movf	?___wmul,w
  1801     0138  1683               	bsf	3,5	;RP0=1, select bank1
  1802     0139  1303               	bcf	3,6	;RP1=0, select bank1
  1803     013A  00D3               	movwf	sprintf@eexp^(0+128)
  1804     013B                     l3937:
  1805                           
  1806                           ;C:\Program Files\Microchip\xc8\v2.40\pic\sources\c90\common\doprnt.c: 866:     eexp /= 
      +                          10;
  1807     013B  300A               	movlw	10
  1808     013C  1283               	bcf	3,5	;RP0=0, select bank0
  1809     013D  1303               	bcf	3,6	;RP1=0, select bank0
  1810     013E  00AD               	movwf	___awdiv@divisor
  1811     013F  3000               	movlw	0
  1812     0140  00AE               	movwf	___awdiv@divisor+1
  1813     0141  1683               	bsf	3,5	;RP0=1, select bank1
  1814     0142  1303               	bcf	3,6	;RP1=0, select bank1
  1815     0143  0854               	movf	(sprintf@eexp+1)^(0+128),w
  1816     0144  1283               	bcf	3,5	;RP0=0, select bank0
  1817     0145  1303               	bcf	3,6	;RP1=0, select bank0
  1818     0146  00B0               	movwf	___awdiv@dividend+1
  1819     0147  1683               	bsf	3,5	;RP0=1, select bank1
  1820     0148  1303               	bcf	3,6	;RP1=0, select bank1
  1821     0149  0853               	movf	sprintf@eexp^(0+128),w
  1822     014A  1283               	bcf	3,5	;RP0=0, select bank0
  1823     014B  1303               	bcf	3,6	;RP1=0, select bank0
  1824     014C  00AF               	movwf	___awdiv@dividend
  1825     014D  160A  158A  2584  120A  118A  	fcall	___awdiv
  1826     0152  1283               	bcf	3,5	;RP0=0, select bank0
  1827     0153  1303               	bcf	3,6	;RP1=0, select bank0
  1828     0154  082E               	movf	?___awdiv+1,w
  1829     0155  1683               	bsf	3,5	;RP0=1, select bank1
  1830     0156  1303               	bcf	3,6	;RP1=0, select bank1
  1831     0157  00D4               	movwf	(sprintf@eexp+1)^(0+128)
  1832     0158  1283               	bcf	3,5	;RP0=0, select bank0
  1833     0159  1303               	bcf	3,6	;RP1=0, select bank0
  1834     015A  082D               	movf	?___awdiv,w
  1835     015B  1683               	bsf	3,5	;RP0=1, select bank1
  1836     015C  1303               	bcf	3,6	;RP1=0, select bank1
  1837     015D  00D3               	movwf	sprintf@eexp^(0+128)
  1838     015E                     l3939:
  1839                           
  1840                           ;C:\Program Files\Microchip\xc8\v2.40\pic\sources\c90\common\doprnt.c: 867:     if(eexp 
      +                          < 0)
  1841     015E  1FD4               	btfss	(sprintf@eexp+1)^(0+128),7
  1842     015F  2961               	goto	u6851
  1843     0160  2962               	goto	u6850
  1844     0161                     u6851:
  1845     0161  2968               	goto	l3943
  1846     0162                     u6850:
  1847     0162                     l3941:
  1848                           
  1849                           ;C:\Program Files\Microchip\xc8\v2.40\pic\sources\c90\common\doprnt.c: 868:      eexp--;
  1850     0162  30FF               	movlw	255
  1851     0163  07D3               	addwf	sprintf@eexp^(0+128),f
  1852     0164  1803               	skipnc
  1853     0165  0AD4               	incf	(sprintf@eexp+1)^(0+128),f
  1854     0166  30FF               	movlw	255
  1855     0167  07D4               	addwf	(sprintf@eexp+1)^(0+128),f
  1856     0168                     l3943:
  1857                           
  1858                           ;C:\Program Files\Microchip\xc8\v2.40\pic\sources\c90\common\doprnt.c: 872:     tmpval.i
      +                          nteg = scale(-eexp);
  1859     0168  0353               	decf	sprintf@eexp^(0+128),w
  1860     0169  3AFF               	xorlw	255
  1861     016A  120A  158A  249D  120A  118A  	fcall	_scale
  1862     016F  1283               	bcf	3,5	;RP0=0, select bank0
  1863     0170  1303               	bcf	3,6	;RP1=0, select bank0
  1864     0171  0853               	movf	?_scale+3,w
  1865     0172  1683               	bsf	3,5	;RP0=1, select bank1
  1866     0173  1303               	bcf	3,6	;RP1=0, select bank1
  1867     0174  00D9               	movwf	(sprintf@tmpval+3)^(0+128)
  1868     0175  1283               	bcf	3,5	;RP0=0, select bank0
  1869     0176  1303               	bcf	3,6	;RP1=0, select bank0
  1870     0177  0852               	movf	?_scale+2,w
  1871     0178  1683               	bsf	3,5	;RP0=1, select bank1
  1872     0179  1303               	bcf	3,6	;RP1=0, select bank1
  1873     017A  00D8               	movwf	(sprintf@tmpval+2)^(0+128)
  1874     017B  1283               	bcf	3,5	;RP0=0, select bank0
  1875     017C  1303               	bcf	3,6	;RP1=0, select bank0
  1876     017D  0851               	movf	?_scale+1,w
  1877     017E  1683               	bsf	3,5	;RP0=1, select bank1
  1878     017F  1303               	bcf	3,6	;RP1=0, select bank1
  1879     0180  00D7               	movwf	(sprintf@tmpval+1)^(0+128)
  1880     0181  1283               	bcf	3,5	;RP0=0, select bank0
  1881     0182  1303               	bcf	3,6	;RP1=0, select bank0
  1882     0183  0850               	movf	?_scale,w
  1883     0184  1683               	bsf	3,5	;RP0=1, select bank1
  1884     0185  1303               	bcf	3,6	;RP1=0, select bank1
  1885     0186  00D6               	movwf	sprintf@tmpval^(0+128)
  1886     0187                     l3945:
  1887                           
  1888                           ;C:\Program Files\Microchip\xc8\v2.40\pic\sources\c90\common\doprnt.c: 873:     tmpval.i
      +                          nteg *= fval;
  1889     0187  085D               	movf	(sprintf@fval+3)^(0+128),w
  1890     0188  1283               	bcf	3,5	;RP0=0, select bank0
  1891     0189  1303               	bcf	3,6	;RP1=0, select bank0
  1892     018A  00B9               	movwf	___flmul@b+3
  1893     018B  1683               	bsf	3,5	;RP0=1, select bank1
  1894     018C  1303               	bcf	3,6	;RP1=0, select bank1
  1895     018D  085C               	movf	(sprintf@fval+2)^(0+128),w
  1896     018E  1283               	bcf	3,5	;RP0=0, select bank0
  1897     018F  1303               	bcf	3,6	;RP1=0, select bank0
  1898     0190  00B8               	movwf	___flmul@b+2
  1899     0191  1683               	bsf	3,5	;RP0=1, select bank1
  1900     0192  1303               	bcf	3,6	;RP1=0, select bank1
  1901     0193  085B               	movf	(sprintf@fval+1)^(0+128),w
  1902     0194  1283               	bcf	3,5	;RP0=0, select bank0
  1903     0195  1303               	bcf	3,6	;RP1=0, select bank0
  1904     0196  00B7               	movwf	___flmul@b+1
  1905     0197  1683               	bsf	3,5	;RP0=1, select bank1
  1906     0198  1303               	bcf	3,6	;RP1=0, select bank1
  1907     0199  085A               	movf	sprintf@fval^(0+128),w
  1908     019A  1283               	bcf	3,5	;RP0=0, select bank0
  1909     019B  1303               	bcf	3,6	;RP1=0, select bank0
  1910     019C  00B6               	movwf	___flmul@b
  1911     019D  1683               	bsf	3,5	;RP0=1, select bank1
  1912     019E  1303               	bcf	3,6	;RP1=0, select bank1
  1913     019F  0859               	movf	(sprintf@tmpval+3)^(0+128),w
  1914     01A0  1283               	bcf	3,5	;RP0=0, select bank0
  1915     01A1  1303               	bcf	3,6	;RP1=0, select bank0
  1916     01A2  00BD               	movwf	___flmul@a+3
  1917     01A3  1683               	bsf	3,5	;RP0=1, select bank1
  1918     01A4  1303               	bcf	3,6	;RP1=0, select bank1
  1919     01A5  0858               	movf	(sprintf@tmpval+2)^(0+128),w
  1920     01A6  1283               	bcf	3,5	;RP0=0, select bank0
  1921     01A7  1303               	bcf	3,6	;RP1=0, select bank0
  1922     01A8  00BC               	movwf	___flmul@a+2
  1923     01A9  1683               	bsf	3,5	;RP0=1, select bank1
  1924     01AA  1303               	bcf	3,6	;RP1=0, select bank1
  1925     01AB  0857               	movf	(sprintf@tmpval+1)^(0+128),w
  1926     01AC  1283               	bcf	3,5	;RP0=0, select bank0
  1927     01AD  1303               	bcf	3,6	;RP1=0, select bank0
  1928     01AE  00BB               	movwf	___flmul@a+1
  1929     01AF  1683               	bsf	3,5	;RP0=1, select bank1
  1930     01B0  1303               	bcf	3,6	;RP1=0, select bank1
  1931     01B1  0856               	movf	sprintf@tmpval^(0+128),w
  1932     01B2  1283               	bcf	3,5	;RP0=0, select bank0
  1933     01B3  1303               	bcf	3,6	;RP1=0, select bank0
  1934     01B4  00BA               	movwf	___flmul@a
  1935     01B5  120A  158A  2158  120A  118A  	fcall	___flmul
  1936     01BA  1283               	bcf	3,5	;RP0=0, select bank0
  1937     01BB  1303               	bcf	3,6	;RP1=0, select bank0
  1938     01BC  0839               	movf	?___flmul+3,w
  1939     01BD  1683               	bsf	3,5	;RP0=1, select bank1
  1940     01BE  1303               	bcf	3,6	;RP1=0, select bank1
  1941     01BF  00D9               	movwf	(sprintf@tmpval+3)^(0+128)
  1942     01C0  1283               	bcf	3,5	;RP0=0, select bank0
  1943     01C1  1303               	bcf	3,6	;RP1=0, select bank0
  1944     01C2  0838               	movf	?___flmul+2,w
  1945     01C3  1683               	bsf	3,5	;RP0=1, select bank1
  1946     01C4  1303               	bcf	3,6	;RP1=0, select bank1
  1947     01C5  00D8               	movwf	(sprintf@tmpval+2)^(0+128)
  1948     01C6  1283               	bcf	3,5	;RP0=0, select bank0
  1949     01C7  1303               	bcf	3,6	;RP1=0, select bank0
  1950     01C8  0837               	movf	?___flmul+1,w
  1951     01C9  1683               	bsf	3,5	;RP0=1, select bank1
  1952     01CA  1303               	bcf	3,6	;RP1=0, select bank1
  1953     01CB  00D7               	movwf	(sprintf@tmpval+1)^(0+128)
  1954     01CC  1283               	bcf	3,5	;RP0=0, select bank0
  1955     01CD  1303               	bcf	3,6	;RP1=0, select bank0
  1956     01CE  0836               	movf	?___flmul,w
  1957     01CF  1683               	bsf	3,5	;RP0=1, select bank1
  1958     01D0  1303               	bcf	3,6	;RP1=0, select bank1
  1959     01D1  00D6               	movwf	sprintf@tmpval^(0+128)
  1960     01D2                     l3947:
  1961                           
  1962                           ;C:\Program Files\Microchip\xc8\v2.40\pic\sources\c90\common\doprnt.c: 874:     if(tmpva
      +                          l.integ < 1.0)
  1963     01D2  0859               	movf	(sprintf@tmpval+3)^(0+128),w
  1964     01D3  1283               	bcf	3,5	;RP0=0, select bank0
  1965     01D4  1303               	bcf	3,6	;RP1=0, select bank0
  1966     01D5  00A9               	movwf	___flge@ff1+3
  1967     01D6  1683               	bsf	3,5	;RP0=1, select bank1
  1968     01D7  1303               	bcf	3,6	;RP1=0, select bank1
  1969     01D8  0858               	movf	(sprintf@tmpval+2)^(0+128),w
  1970     01D9  1283               	bcf	3,5	;RP0=0, select bank0
  1971     01DA  1303               	bcf	3,6	;RP1=0, select bank0
  1972     01DB  00A8               	movwf	___flge@ff1+2
  1973     01DC  1683               	bsf	3,5	;RP0=1, select bank1
  1974     01DD  1303               	bcf	3,6	;RP1=0, select bank1
  1975     01DE  0857               	movf	(sprintf@tmpval+1)^(0+128),w
  1976     01DF  1283               	bcf	3,5	;RP0=0, select bank0
  1977     01E0  1303               	bcf	3,6	;RP1=0, select bank0
  1978     01E1  00A7               	movwf	___flge@ff1+1
  1979     01E2  1683               	bsf	3,5	;RP0=1, select bank1
  1980     01E3  1303               	bcf	3,6	;RP1=0, select bank1
  1981     01E4  0856               	movf	sprintf@tmpval^(0+128),w
  1982     01E5  1283               	bcf	3,5	;RP0=0, select bank0
  1983     01E6  1303               	bcf	3,6	;RP1=0, select bank0
  1984     01E7  00A6               	movwf	___flge@ff1
  1985     01E8  303F               	movlw	63
  1986     01E9  00AD               	movwf	___flge@ff2+3
  1987     01EA  3080               	movlw	128
  1988     01EB  00AC               	movwf	___flge@ff2+2
  1989     01EC  3000               	movlw	0
  1990     01ED  00AB               	movwf	___flge@ff2+1
  1991     01EE  3000               	movlw	0
  1992     01EF  00AA               	movwf	___flge@ff2
  1993     01F0  160A  158A  25ED  120A  118A  	fcall	___flge
  1994     01F5  1803               	btfsc	3,0
  1995     01F6  29F8               	goto	u6861
  1996     01F7  29F9               	goto	u6860
  1997     01F8                     u6861:
  1998     01F8  2A02               	goto	l3951
  1999     01F9                     u6860:
  2000     01F9                     l3949:
  2001                           
  2002                           ;C:\Program Files\Microchip\xc8\v2.40\pic\sources\c90\common\doprnt.c: 875:      eexp--;
  2003     01F9  30FF               	movlw	255
  2004     01FA  1683               	bsf	3,5	;RP0=1, select bank1
  2005     01FB  1303               	bcf	3,6	;RP1=0, select bank1
  2006     01FC  07D3               	addwf	sprintf@eexp^(0+128),f
  2007     01FD  1803               	skipnc
  2008     01FE  0AD4               	incf	(sprintf@eexp+1)^(0+128),f
  2009     01FF  30FF               	movlw	255
  2010     0200  07D4               	addwf	(sprintf@eexp+1)^(0+128),f
  2011     0201  2A33               	goto	l3955
  2012     0202                     l3951:
  2013     0202  1683               	bsf	3,5	;RP0=1, select bank1
  2014     0203  1303               	bcf	3,6	;RP1=0, select bank1
  2015     0204  0859               	movf	(sprintf@tmpval+3)^(0+128),w
  2016     0205  1283               	bcf	3,5	;RP0=0, select bank0
  2017     0206  1303               	bcf	3,6	;RP1=0, select bank0
  2018     0207  00A9               	movwf	___flge@ff1+3
  2019     0208  1683               	bsf	3,5	;RP0=1, select bank1
  2020     0209  1303               	bcf	3,6	;RP1=0, select bank1
  2021     020A  0858               	movf	(sprintf@tmpval+2)^(0+128),w
  2022     020B  1283               	bcf	3,5	;RP0=0, select bank0
  2023     020C  1303               	bcf	3,6	;RP1=0, select bank0
  2024     020D  00A8               	movwf	___flge@ff1+2
  2025     020E  1683               	bsf	3,5	;RP0=1, select bank1
  2026     020F  1303               	bcf	3,6	;RP1=0, select bank1
  2027     0210  0857               	movf	(sprintf@tmpval+1)^(0+128),w
  2028     0211  1283               	bcf	3,5	;RP0=0, select bank0
  2029     0212  1303               	bcf	3,6	;RP1=0, select bank0
  2030     0213  00A7               	movwf	___flge@ff1+1
  2031     0214  1683               	bsf	3,5	;RP0=1, select bank1
  2032     0215  1303               	bcf	3,6	;RP1=0, select bank1
  2033     0216  0856               	movf	sprintf@tmpval^(0+128),w
  2034     0217  1283               	bcf	3,5	;RP0=0, select bank0
  2035     0218  1303               	bcf	3,6	;RP1=0, select bank0
  2036     0219  00A6               	movwf	___flge@ff1
  2037     021A  3041               	movlw	65
  2038     021B  00AD               	movwf	___flge@ff2+3
  2039     021C  3020               	movlw	32
  2040     021D  00AC               	movwf	___flge@ff2+2
  2041     021E  3000               	movlw	0
  2042     021F  00AB               	movwf	___flge@ff2+1
  2043     0220  3000               	movlw	0
  2044     0221  00AA               	movwf	___flge@ff2
  2045     0222  160A  158A  25ED  120A  118A  	fcall	___flge
  2046     0227  1C03               	btfss	3,0
  2047     0228  2A2A               	goto	u6871
  2048     0229  2A2B               	goto	u6870
  2049     022A                     u6871:
  2050     022A  2A33               	goto	l3955
  2051     022B                     u6870:
  2052     022B                     l3953:
  2053                           
  2054                           ;C:\Program Files\Microchip\xc8\v2.40\pic\sources\c90\common\doprnt.c: 877:      eexp++;
  2055     022B  3001               	movlw	1
  2056     022C  1683               	bsf	3,5	;RP0=1, select bank1
  2057     022D  1303               	bcf	3,6	;RP1=0, select bank1
  2058     022E  07D3               	addwf	sprintf@eexp^(0+128),f
  2059     022F  1803               	skipnc
  2060     0230  0AD4               	incf	(sprintf@eexp+1)^(0+128),f
  2061     0231  3000               	movlw	0
  2062     0232  07D4               	addwf	(sprintf@eexp+1)^(0+128),f
  2063     0233                     l3955:
  2064     0233                     l3957:	
  2065                           ;C:\Program Files\Microchip\xc8\v2.40\pic\sources\c90\common\doprnt.c: 1138:      if(pre
      +                          c <= 12)
  2066                           
  2067                           
  2068                           ;C:\Program Files\Microchip\xc8\v2.40\pic\sources\c90\common\doprnt.c: 1139:       fval 
      +                          += fround((unsigned int)prec);
  2069     0233  3006               	movlw	6
  2070     0234  160A  118A  2109  120A  118A  	fcall	_fround
  2071     0239  1283               	bcf	3,5	;RP0=0, select bank0
  2072     023A  1303               	bcf	3,6	;RP1=0, select bank0
  2073     023B  0853               	movf	?_fround+3,w
  2074     023C  1683               	bsf	3,5	;RP0=1, select bank1
  2075     023D  1303               	bcf	3,6	;RP1=0, select bank1
  2076     023E  00A3               	movwf	(___fladd@b+3)^(0+128)
  2077     023F  1283               	bcf	3,5	;RP0=0, select bank0
  2078     0240  1303               	bcf	3,6	;RP1=0, select bank0
  2079     0241  0852               	movf	?_fround+2,w
  2080     0242  1683               	bsf	3,5	;RP0=1, select bank1
  2081     0243  1303               	bcf	3,6	;RP1=0, select bank1
  2082     0244  00A2               	movwf	(___fladd@b+2)^(0+128)
  2083     0245  1283               	bcf	3,5	;RP0=0, select bank0
  2084     0246  1303               	bcf	3,6	;RP1=0, select bank0
  2085     0247  0851               	movf	?_fround+1,w
  2086     0248  1683               	bsf	3,5	;RP0=1, select bank1
  2087     0249  1303               	bcf	3,6	;RP1=0, select bank1
  2088     024A  00A1               	movwf	(___fladd@b+1)^(0+128)
  2089     024B  1283               	bcf	3,5	;RP0=0, select bank0
  2090     024C  1303               	bcf	3,6	;RP1=0, select bank0
  2091     024D  0850               	movf	?_fround,w
  2092     024E  1683               	bsf	3,5	;RP0=1, select bank1
  2093     024F  1303               	bcf	3,6	;RP1=0, select bank1
  2094     0250  00A0               	movwf	___fladd@b^(0+128)
  2095     0251  085D               	movf	(sprintf@fval+3)^(0+128),w
  2096     0252  00A7               	movwf	(___fladd@a+3)^(0+128)
  2097     0253  085C               	movf	(sprintf@fval+2)^(0+128),w
  2098     0254  00A6               	movwf	(___fladd@a+2)^(0+128)
  2099     0255  085B               	movf	(sprintf@fval+1)^(0+128),w
  2100     0256  00A5               	movwf	(___fladd@a+1)^(0+128)
  2101     0257  085A               	movf	sprintf@fval^(0+128),w
  2102     0258  00A4               	movwf	___fladd@a^(0+128)
  2103     0259  160A  118A  2316  120A  118A  	fcall	___fladd
  2104     025E  1683               	bsf	3,5	;RP0=1, select bank1
  2105     025F  1303               	bcf	3,6	;RP1=0, select bank1
  2106     0260  0823               	movf	(?___fladd+3)^(0+128),w
  2107     0261  00DD               	movwf	(sprintf@fval+3)^(0+128)
  2108     0262  0822               	movf	(?___fladd+2)^(0+128),w
  2109     0263  00DC               	movwf	(sprintf@fval+2)^(0+128)
  2110     0264  0821               	movf	(?___fladd+1)^(0+128),w
  2111     0265  00DB               	movwf	(sprintf@fval+1)^(0+128)
  2112     0266  0820               	movf	?___fladd^(0+128),w
  2113     0267  00DA               	movwf	sprintf@fval^(0+128)
  2114     0268                     l3959:
  2115                           
  2116                           ;C:\Program Files\Microchip\xc8\v2.40\pic\sources\c90\common\doprnt.c: 1142:     if((eex
      +                          p > 9)||(fval != 0 && (unsigned long)fval == 0 && eexp > 1)) {
  2117     0268  0854               	movf	(sprintf@eexp+1)^(0+128),w
  2118     0269  3A80               	xorlw	128
  2119     026A  00FF               	movwf	btemp+1
  2120     026B  3080               	movlw	128
  2121     026C  027F               	subwf	btemp+1,w
  2122     026D  1D03               	skipz
  2123     026E  2A71               	goto	u6885
  2124     026F  300A               	movlw	10
  2125     0270  0253               	subwf	sprintf@eexp^(0+128),w
  2126     0271                     u6885:
  2127     0271  1803               	skipnc
  2128     0272  2A74               	goto	u6881
  2129     0273  2A75               	goto	u6880
  2130     0274                     u6881:
  2131     0274  2AC4               	goto	l3967
  2132     0275                     u6880:
  2133     0275                     l3961:
  2134     0275  1683               	bsf	3,5	;RP0=1, select bank1
  2135     0276  1303               	bcf	3,6	;RP1=0, select bank1
  2136     0277  085D               	movf	(sprintf@fval+3)^(0+128),w
  2137     0278  1283               	bcf	3,5	;RP0=0, select bank0
  2138     0279  1303               	bcf	3,6	;RP1=0, select bank0
  2139     027A  00A9               	movwf	___fleq@ff1+3
  2140     027B  1683               	bsf	3,5	;RP0=1, select bank1
  2141     027C  1303               	bcf	3,6	;RP1=0, select bank1
  2142     027D  085C               	movf	(sprintf@fval+2)^(0+128),w
  2143     027E  1283               	bcf	3,5	;RP0=0, select bank0
  2144     027F  1303               	bcf	3,6	;RP1=0, select bank0
  2145     0280  00A8               	movwf	___fleq@ff1+2
  2146     0281  1683               	bsf	3,5	;RP0=1, select bank1
  2147     0282  1303               	bcf	3,6	;RP1=0, select bank1
  2148     0283  085B               	movf	(sprintf@fval+1)^(0+128),w
  2149     0284  1283               	bcf	3,5	;RP0=0, select bank0
  2150     0285  1303               	bcf	3,6	;RP1=0, select bank0
  2151     0286  00A7               	movwf	___fleq@ff1+1
  2152     0287  1683               	bsf	3,5	;RP0=1, select bank1
  2153     0288  1303               	bcf	3,6	;RP1=0, select bank1
  2154     0289  085A               	movf	sprintf@fval^(0+128),w
  2155     028A  1283               	bcf	3,5	;RP0=0, select bank0
  2156     028B  1303               	bcf	3,6	;RP1=0, select bank0
  2157     028C  00A6               	movwf	___fleq@ff1
  2158     028D  3000               	movlw	0
  2159     028E  00AD               	movwf	___fleq@ff2+3
  2160     028F  3000               	movlw	0
  2161     0290  00AC               	movwf	___fleq@ff2+2
  2162     0291  3000               	movlw	0
  2163     0292  00AB               	movwf	___fleq@ff2+1
  2164     0293  3000               	movlw	0
  2165     0294  00AA               	movwf	___fleq@ff2
  2166     0295  120A  118A  27AF  120A  118A  	fcall	___fleq
  2167     029A  1803               	btfsc	3,0
  2168     029B  2A9D               	goto	u6891
  2169     029C  2A9E               	goto	u6890
  2170     029D                     u6891:
  2171     029D  2B70               	goto	l3981
  2172     029E                     u6890:
  2173     029E                     l3963:
  2174     029E  1683               	bsf	3,5	;RP0=1, select bank1
  2175     029F  1303               	bcf	3,6	;RP1=0, select bank1
  2176     02A0  085D               	movf	(sprintf@fval+3)^(0+128),w
  2177     02A1  00A3               	movwf	(___fltol@f1+3)^(0+128)
  2178     02A2  085C               	movf	(sprintf@fval+2)^(0+128),w
  2179     02A3  00A2               	movwf	(___fltol@f1+2)^(0+128)
  2180     02A4  085B               	movf	(sprintf@fval+1)^(0+128),w
  2181     02A5  00A1               	movwf	(___fltol@f1+1)^(0+128)
  2182     02A6  085A               	movf	sprintf@fval^(0+128),w
  2183     02A7  00A0               	movwf	___fltol@f1^(0+128)
  2184     02A8  120A  158A  2026  120A  118A  	fcall	___fltol
  2185     02AD  1683               	bsf	3,5	;RP0=1, select bank1
  2186     02AE  1303               	bcf	3,6	;RP1=0, select bank1
  2187     02AF  0823               	movf	(?___fltol+3)^(0+128),w
  2188     02B0  0422               	iorwf	(?___fltol+2)^(0+128),w
  2189     02B1  0421               	iorwf	(?___fltol+1)^(0+128),w
  2190     02B2  0420               	iorwf	?___fltol^(0+128),w
  2191     02B3  1D03               	skipz
  2192     02B4  2AB6               	goto	u6901
  2193     02B5  2AB7               	goto	u6900
  2194     02B6                     u6901:
  2195     02B6  2B70               	goto	l3981
  2196     02B7                     u6900:
  2197     02B7                     l3965:
  2198     02B7  0854               	movf	(sprintf@eexp+1)^(0+128),w
  2199     02B8  3A80               	xorlw	128
  2200     02B9  00FF               	movwf	btemp+1
  2201     02BA  3080               	movlw	128
  2202     02BB  027F               	subwf	btemp+1,w
  2203     02BC  1D03               	skipz
  2204     02BD  2AC0               	goto	u6915
  2205     02BE  3002               	movlw	2
  2206     02BF  0253               	subwf	sprintf@eexp^(0+128),w
  2207     02C0                     u6915:
  2208     02C0  1C03               	skipc
  2209     02C1  2AC3               	goto	u6911
  2210     02C2  2AC4               	goto	u6910
  2211     02C3                     u6911:
  2212     02C3  2B70               	goto	l3981
  2213     02C4                     u6910:
  2214     02C4                     l3967:
  2215                           
  2216                           ;C:\Program Files\Microchip\xc8\v2.40\pic\sources\c90\common\doprnt.c: 1146:      if(tmp
      +                          val.integ < 4.294967296){
  2217     02C4  1683               	bsf	3,5	;RP0=1, select bank1
  2218     02C5  1303               	bcf	3,6	;RP1=0, select bank1
  2219     02C6  0859               	movf	(sprintf@tmpval+3)^(0+128),w
  2220     02C7  1283               	bcf	3,5	;RP0=0, select bank0
  2221     02C8  1303               	bcf	3,6	;RP1=0, select bank0
  2222     02C9  00A9               	movwf	___flge@ff1+3
  2223     02CA  1683               	bsf	3,5	;RP0=1, select bank1
  2224     02CB  1303               	bcf	3,6	;RP1=0, select bank1
  2225     02CC  0858               	movf	(sprintf@tmpval+2)^(0+128),w
  2226     02CD  1283               	bcf	3,5	;RP0=0, select bank0
  2227     02CE  1303               	bcf	3,6	;RP1=0, select bank0
  2228     02CF  00A8               	movwf	___flge@ff1+2
  2229     02D0  1683               	bsf	3,5	;RP0=1, select bank1
  2230     02D1  1303               	bcf	3,6	;RP1=0, select bank1
  2231     02D2  0857               	movf	(sprintf@tmpval+1)^(0+128),w
  2232     02D3  1283               	bcf	3,5	;RP0=0, select bank0
  2233     02D4  1303               	bcf	3,6	;RP1=0, select bank0
  2234     02D5  00A7               	movwf	___flge@ff1+1
  2235     02D6  1683               	bsf	3,5	;RP0=1, select bank1
  2236     02D7  1303               	bcf	3,6	;RP1=0, select bank1
  2237     02D8  0856               	movf	sprintf@tmpval^(0+128),w
  2238     02D9  1283               	bcf	3,5	;RP0=0, select bank0
  2239     02DA  1303               	bcf	3,6	;RP1=0, select bank0
  2240     02DB  00A6               	movwf	___flge@ff1
  2241     02DC  3040               	movlw	64
  2242     02DD  00AD               	movwf	___flge@ff2+3
  2243     02DE  3089               	movlw	137
  2244     02DF  00AC               	movwf	___flge@ff2+2
  2245     02E0  3070               	movlw	112
  2246     02E1  00AB               	movwf	___flge@ff2+1
  2247     02E2  305F               	movlw	95
  2248     02E3  00AA               	movwf	___flge@ff2
  2249     02E4  160A  158A  25ED  120A  118A  	fcall	___flge
  2250     02E9  1803               	btfsc	3,0
  2251     02EA  2AEC               	goto	u6921
  2252     02EB  2AED               	goto	u6920
  2253     02EC                     u6921:
  2254     02EC  2AF6               	goto	l3971
  2255     02ED                     u6920:
  2256     02ED                     l3969:
  2257                           
  2258                           ;C:\Program Files\Microchip\xc8\v2.40\pic\sources\c90\common\doprnt.c: 1147:       eexp 
      +                          -= (sizeof dpowers/sizeof dpowers[0])-1;
  2259     02ED  30F7               	movlw	247
  2260     02EE  1683               	bsf	3,5	;RP0=1, select bank1
  2261     02EF  1303               	bcf	3,6	;RP1=0, select bank1
  2262     02F0  07D3               	addwf	sprintf@eexp^(0+128),f
  2263     02F1  1803               	skipnc
  2264     02F2  0AD4               	incf	(sprintf@eexp+1)^(0+128),f
  2265     02F3  30FF               	movlw	255
  2266     02F4  07D4               	addwf	(sprintf@eexp+1)^(0+128),f
  2267                           
  2268                           ;C:\Program Files\Microchip\xc8\v2.40\pic\sources\c90\common\doprnt.c: 1148:      }else{
  2269     02F5  2AFE               	goto	l3973
  2270     02F6                     l3971:
  2271                           
  2272                           ;C:\Program Files\Microchip\xc8\v2.40\pic\sources\c90\common\doprnt.c: 1149:       eexp 
      +                          -= (sizeof dpowers/sizeof dpowers[0])-2;
  2273     02F6  30F8               	movlw	248
  2274     02F7  1683               	bsf	3,5	;RP0=1, select bank1
  2275     02F8  1303               	bcf	3,6	;RP1=0, select bank1
  2276     02F9  07D3               	addwf	sprintf@eexp^(0+128),f
  2277     02FA  1803               	skipnc
  2278     02FB  0AD4               	incf	(sprintf@eexp+1)^(0+128),f
  2279     02FC  30FF               	movlw	255
  2280     02FD  07D4               	addwf	(sprintf@eexp+1)^(0+128),f
  2281     02FE                     l3973:
  2282                           
  2283                           ;C:\Program Files\Microchip\xc8\v2.40\pic\sources\c90\common\doprnt.c: 1152:      val = 
      +                          ((sizeof(double)== 3) ? _tdiv_to_l_(fval,tmpval.integ) : _div_to_l_(fval,tmpval.integ));
  2284     02FE  0853               	movf	sprintf@eexp^(0+128),w
  2285     02FF  120A  158A  249D  120A  118A  	fcall	_scale
  2286     0304  1283               	bcf	3,5	;RP0=0, select bank0
  2287     0305  1303               	bcf	3,6	;RP1=0, select bank0
  2288     0306  0853               	movf	?_scale+3,w
  2289     0307  1683               	bsf	3,5	;RP0=1, select bank1
  2290     0308  1303               	bcf	3,6	;RP1=0, select bank1
  2291     0309  00D9               	movwf	(sprintf@tmpval+3)^(0+128)
  2292     030A  1283               	bcf	3,5	;RP0=0, select bank0
  2293     030B  1303               	bcf	3,6	;RP1=0, select bank0
  2294     030C  0852               	movf	?_scale+2,w
  2295     030D  1683               	bsf	3,5	;RP0=1, select bank1
  2296     030E  1303               	bcf	3,6	;RP1=0, select bank1
  2297     030F  00D8               	movwf	(sprintf@tmpval+2)^(0+128)
  2298     0310  1283               	bcf	3,5	;RP0=0, select bank0
  2299     0311  1303               	bcf	3,6	;RP1=0, select bank0
  2300     0312  0851               	movf	?_scale+1,w
  2301     0313  1683               	bsf	3,5	;RP0=1, select bank1
  2302     0314  1303               	bcf	3,6	;RP1=0, select bank1
  2303     0315  00D7               	movwf	(sprintf@tmpval+1)^(0+128)
  2304     0316  1283               	bcf	3,5	;RP0=0, select bank0
  2305     0317  1303               	bcf	3,6	;RP1=0, select bank0
  2306     0318  0850               	movf	?_scale,w
  2307     0319  1683               	bsf	3,5	;RP0=1, select bank1
  2308     031A  1303               	bcf	3,6	;RP1=0, select bank1
  2309     031B  00D6               	movwf	sprintf@tmpval^(0+128)
  2310     031C                     l3975:
  2311     031C  085D               	movf	(sprintf@fval+3)^(0+128),w
  2312     031D  1283               	bcf	3,5	;RP0=0, select bank0
  2313     031E  1303               	bcf	3,6	;RP1=0, select bank0
  2314     031F  00A9               	movwf	__div_to_l_@f1+3
  2315     0320  1683               	bsf	3,5	;RP0=1, select bank1
  2316     0321  1303               	bcf	3,6	;RP1=0, select bank1
  2317     0322  085C               	movf	(sprintf@fval+2)^(0+128),w
  2318     0323  1283               	bcf	3,5	;RP0=0, select bank0
  2319     0324  1303               	bcf	3,6	;RP1=0, select bank0
  2320     0325  00A8               	movwf	__div_to_l_@f1+2
  2321     0326  1683               	bsf	3,5	;RP0=1, select bank1
  2322     0327  1303               	bcf	3,6	;RP1=0, select bank1
  2323     0328  085B               	movf	(sprintf@fval+1)^(0+128),w
  2324     0329  1283               	bcf	3,5	;RP0=0, select bank0
  2325     032A  1303               	bcf	3,6	;RP1=0, select bank0
  2326     032B  00A7               	movwf	__div_to_l_@f1+1
  2327     032C  1683               	bsf	3,5	;RP0=1, select bank1
  2328     032D  1303               	bcf	3,6	;RP1=0, select bank1
  2329     032E  085A               	movf	sprintf@fval^(0+128),w
  2330     032F  1283               	bcf	3,5	;RP0=0, select bank0
  2331     0330  1303               	bcf	3,6	;RP1=0, select bank0
  2332     0331  00A6               	movwf	__div_to_l_@f1
  2333     0332  1683               	bsf	3,5	;RP0=1, select bank1
  2334     0333  1303               	bcf	3,6	;RP1=0, select bank1
  2335     0334  0859               	movf	(sprintf@tmpval+3)^(0+128),w
  2336     0335  1283               	bcf	3,5	;RP0=0, select bank0
  2337     0336  1303               	bcf	3,6	;RP1=0, select bank0
  2338     0337  00AD               	movwf	__div_to_l_@f2+3
  2339     0338  1683               	bsf	3,5	;RP0=1, select bank1
  2340     0339  1303               	bcf	3,6	;RP1=0, select bank1
  2341     033A  0858               	movf	(sprintf@tmpval+2)^(0+128),w
  2342     033B  1283               	bcf	3,5	;RP0=0, select bank0
  2343     033C  1303               	bcf	3,6	;RP1=0, select bank0
  2344     033D  00AC               	movwf	__div_to_l_@f2+2
  2345     033E  1683               	bsf	3,5	;RP0=1, select bank1
  2346     033F  1303               	bcf	3,6	;RP1=0, select bank1
  2347     0340  0857               	movf	(sprintf@tmpval+1)^(0+128),w
  2348     0341  1283               	bcf	3,5	;RP0=0, select bank0
  2349     0342  1303               	bcf	3,6	;RP1=0, select bank0
  2350     0343  00AB               	movwf	__div_to_l_@f2+1
  2351     0344  1683               	bsf	3,5	;RP0=1, select bank1
  2352     0345  1303               	bcf	3,6	;RP1=0, select bank1
  2353     0346  0856               	movf	sprintf@tmpval^(0+128),w
  2354     0347  1283               	bcf	3,5	;RP0=0, select bank0
  2355     0348  1303               	bcf	3,6	;RP1=0, select bank0
  2356     0349  00AA               	movwf	__div_to_l_@f2
  2357     034A  160A  118A  2051  120A  118A  	fcall	__div_to_l_
  2358     034F  1283               	bcf	3,5	;RP0=0, select bank0
  2359     0350  1303               	bcf	3,6	;RP1=0, select bank0
  2360     0351  0829               	movf	?__div_to_l_+3,w
  2361     0352  1683               	bsf	3,5	;RP0=1, select bank1
  2362     0353  1303               	bcf	3,6	;RP1=0, select bank1
  2363     0354  00D2               	movwf	(sprintf@val+3)^(0+128)
  2364     0355  1283               	bcf	3,5	;RP0=0, select bank0
  2365     0356  1303               	bcf	3,6	;RP1=0, select bank0
  2366     0357  0828               	movf	?__div_to_l_+2,w
  2367     0358  1683               	bsf	3,5	;RP0=1, select bank1
  2368     0359  1303               	bcf	3,6	;RP1=0, select bank1
  2369     035A  00D1               	movwf	(sprintf@val+2)^(0+128)
  2370     035B  1283               	bcf	3,5	;RP0=0, select bank0
  2371     035C  1303               	bcf	3,6	;RP1=0, select bank0
  2372     035D  0827               	movf	?__div_to_l_+1,w
  2373     035E  1683               	bsf	3,5	;RP0=1, select bank1
  2374     035F  1303               	bcf	3,6	;RP1=0, select bank1
  2375     0360  00D0               	movwf	(sprintf@val+1)^(0+128)
  2376     0361  1283               	bcf	3,5	;RP0=0, select bank0
  2377     0362  1303               	bcf	3,6	;RP1=0, select bank0
  2378     0363  0826               	movf	?__div_to_l_,w
  2379     0364  1683               	bsf	3,5	;RP0=1, select bank1
  2380     0365  1303               	bcf	3,6	;RP1=0, select bank1
  2381     0366  00CF               	movwf	sprintf@val^(0+128)
  2382     0367                     l3979:
  2383                           
  2384                           ;C:\Program Files\Microchip\xc8\v2.40\pic\sources\c90\common\doprnt.c: 1155:      fval =
      +                           0.0;
  2385     0367  3000               	movlw	0
  2386     0368  00DD               	movwf	(sprintf@fval+3)^(0+128)
  2387     0369  3000               	movlw	0
  2388     036A  00DC               	movwf	(sprintf@fval+2)^(0+128)
  2389     036B  3000               	movlw	0
  2390     036C  00DB               	movwf	(sprintf@fval+1)^(0+128)
  2391     036D  3000               	movlw	0
  2392     036E  00DA               	movwf	sprintf@fval^(0+128)
  2393                           
  2394                           ;C:\Program Files\Microchip\xc8\v2.40\pic\sources\c90\common\doprnt.c: 1156:     } else 
      +                          {
  2395     036F  2BD6               	goto	l3987
  2396     0370                     l3981:
  2397                           
  2398                           ;C:\Program Files\Microchip\xc8\v2.40\pic\sources\c90\common\doprnt.c: 1157:      val = 
      +                          (unsigned long)fval;
  2399     0370  1683               	bsf	3,5	;RP0=1, select bank1
  2400     0371  1303               	bcf	3,6	;RP1=0, select bank1
  2401     0372  085D               	movf	(sprintf@fval+3)^(0+128),w
  2402     0373  00A3               	movwf	(___fltol@f1+3)^(0+128)
  2403     0374  085C               	movf	(sprintf@fval+2)^(0+128),w
  2404     0375  00A2               	movwf	(___fltol@f1+2)^(0+128)
  2405     0376  085B               	movf	(sprintf@fval+1)^(0+128),w
  2406     0377  00A1               	movwf	(___fltol@f1+1)^(0+128)
  2407     0378  085A               	movf	sprintf@fval^(0+128),w
  2408     0379  00A0               	movwf	___fltol@f1^(0+128)
  2409     037A  120A  158A  2026  120A  118A  	fcall	___fltol
  2410     037F  1683               	bsf	3,5	;RP0=1, select bank1
  2411     0380  1303               	bcf	3,6	;RP1=0, select bank1
  2412     0381  0823               	movf	(?___fltol+3)^(0+128),w
  2413     0382  00D2               	movwf	(sprintf@val+3)^(0+128)
  2414     0383  0822               	movf	(?___fltol+2)^(0+128),w
  2415     0384  00D1               	movwf	(sprintf@val+2)^(0+128)
  2416     0385  0821               	movf	(?___fltol+1)^(0+128),w
  2417     0386  00D0               	movwf	(sprintf@val+1)^(0+128)
  2418     0387  0820               	movf	?___fltol^(0+128),w
  2419     0388  00CF               	movwf	sprintf@val^(0+128)
  2420     0389                     l3983:
  2421                           
  2422                           ;C:\Program Files\Microchip\xc8\v2.40\pic\sources\c90\common\doprnt.c: 1158:      fval -
      +                          = (double)val;
  2423     0389  0852               	movf	(sprintf@val+3)^(0+128),w
  2424     038A  1283               	bcf	3,5	;RP0=0, select bank0
  2425     038B  1303               	bcf	3,6	;RP1=0, select bank0
  2426     038C  00A9               	movwf	___xxtofl@val+3
  2427     038D  1683               	bsf	3,5	;RP0=1, select bank1
  2428     038E  1303               	bcf	3,6	;RP1=0, select bank1
  2429     038F  0851               	movf	(sprintf@val+2)^(0+128),w
  2430     0390  1283               	bcf	3,5	;RP0=0, select bank0
  2431     0391  1303               	bcf	3,6	;RP1=0, select bank0
  2432     0392  00A8               	movwf	___xxtofl@val+2
  2433     0393  1683               	bsf	3,5	;RP0=1, select bank1
  2434     0394  1303               	bcf	3,6	;RP1=0, select bank1
  2435     0395  0850               	movf	(sprintf@val+1)^(0+128),w
  2436     0396  1283               	bcf	3,5	;RP0=0, select bank0
  2437     0397  1303               	bcf	3,6	;RP1=0, select bank0
  2438     0398  00A7               	movwf	___xxtofl@val+1
  2439     0399  1683               	bsf	3,5	;RP0=1, select bank1
  2440     039A  1303               	bcf	3,6	;RP1=0, select bank1
  2441     039B  084F               	movf	sprintf@val^(0+128),w
  2442     039C  1283               	bcf	3,5	;RP0=0, select bank0
  2443     039D  1303               	bcf	3,6	;RP1=0, select bank0
  2444     039E  00A6               	movwf	___xxtofl@val
  2445     039F  3000               	movlw	0
  2446     03A0  120A  158A  209E  120A  118A  	fcall	___xxtofl
  2447     03A5  1283               	bcf	3,5	;RP0=0, select bank0
  2448     03A6  1303               	bcf	3,6	;RP1=0, select bank0
  2449     03A7  0829               	movf	?___xxtofl+3,w
  2450     03A8  1683               	bsf	3,5	;RP0=1, select bank1
  2451     03A9  1303               	bcf	3,6	;RP1=0, select bank1
  2452     03AA  00B7               	movwf	(___flsub@a+3)^(0+128)
  2453     03AB  1283               	bcf	3,5	;RP0=0, select bank0
  2454     03AC  1303               	bcf	3,6	;RP1=0, select bank0
  2455     03AD  0828               	movf	?___xxtofl+2,w
  2456     03AE  1683               	bsf	3,5	;RP0=1, select bank1
  2457     03AF  1303               	bcf	3,6	;RP1=0, select bank1
  2458     03B0  00B6               	movwf	(___flsub@a+2)^(0+128)
  2459     03B1  1283               	bcf	3,5	;RP0=0, select bank0
  2460     03B2  1303               	bcf	3,6	;RP1=0, select bank0
  2461     03B3  0827               	movf	?___xxtofl+1,w
  2462     03B4  1683               	bsf	3,5	;RP0=1, select bank1
  2463     03B5  1303               	bcf	3,6	;RP1=0, select bank1
  2464     03B6  00B5               	movwf	(___flsub@a+1)^(0+128)
  2465     03B7  1283               	bcf	3,5	;RP0=0, select bank0
  2466     03B8  1303               	bcf	3,6	;RP1=0, select bank0
  2467     03B9  0826               	movf	?___xxtofl,w
  2468     03BA  1683               	bsf	3,5	;RP0=1, select bank1
  2469     03BB  1303               	bcf	3,6	;RP1=0, select bank1
  2470     03BC  00B4               	movwf	___flsub@a^(0+128)
  2471     03BD  085D               	movf	(sprintf@fval+3)^(0+128),w
  2472     03BE  00BB               	movwf	(___flsub@b+3)^(0+128)
  2473     03BF  085C               	movf	(sprintf@fval+2)^(0+128),w
  2474     03C0  00BA               	movwf	(___flsub@b+2)^(0+128)
  2475     03C1  085B               	movf	(sprintf@fval+1)^(0+128),w
  2476     03C2  00B9               	movwf	(___flsub@b+1)^(0+128)
  2477     03C3  085A               	movf	sprintf@fval^(0+128),w
  2478     03C4  00B8               	movwf	___flsub@b^(0+128)
  2479     03C5  120A  158A  2002  120A  118A  	fcall	___flsub
  2480     03CA  1683               	bsf	3,5	;RP0=1, select bank1
  2481     03CB  1303               	bcf	3,6	;RP1=0, select bank1
  2482     03CC  0837               	movf	(?___flsub+3)^(0+128),w
  2483     03CD  00DD               	movwf	(sprintf@fval+3)^(0+128)
  2484     03CE  0836               	movf	(?___flsub+2)^(0+128),w
  2485     03CF  00DC               	movwf	(sprintf@fval+2)^(0+128)
  2486     03D0  0835               	movf	(?___flsub+1)^(0+128),w
  2487     03D1  00DB               	movwf	(sprintf@fval+1)^(0+128)
  2488     03D2  0834               	movf	?___flsub^(0+128),w
  2489     03D3  00DA               	movwf	sprintf@fval^(0+128)
  2490     03D4                     l3985:
  2491                           
  2492                           ;C:\Program Files\Microchip\xc8\v2.40\pic\sources\c90\common\doprnt.c: 1159:      eexp =
      +                           0;
  2493     03D4  01D3               	clrf	sprintf@eexp^(0+128)
  2494     03D5  01D4               	clrf	(sprintf@eexp+1)^(0+128)
  2495     03D6                     l3987:
  2496                           
  2497                           ;C:\Program Files\Microchip\xc8\v2.40\pic\sources\c90\common\doprnt.c: 1162:     for(c =
      +                           1 ; c != (sizeof dpowers/sizeof dpowers[0]) ; c++)
  2498     03D6  01DE               	clrf	sprintf@c^(0+128)
  2499     03D7  0ADE               	incf	sprintf@c^(0+128),f
  2500     03D8                     l3993:
  2501                           
  2502                           ;C:\Program Files\Microchip\xc8\v2.40\pic\sources\c90\common\doprnt.c: 1163:      if(val
      +                           < dpowers[c])
  2503     03D8  085E               	movf	sprintf@c^(0+128),w
  2504     03D9  00C1               	movwf	??_sprintf^(0+128)
  2505     03DA  3001               	movlw	1
  2506     03DB                     u6935:
  2507     03DB  1003               	clrc
  2508     03DC  0DC1               	rlf	??_sprintf^(0+128),f
  2509     03DD  3EFF               	addlw	-1
  2510     03DE  1D03               	skipz
  2511     03DF  2BDB               	goto	u6935
  2512     03E0  1003               	clrc
  2513     03E1  0D41               	rlf	??_sprintf^(0+128),w
  2514     03E2  3E69               	addlw	low ((_dpowers-__stringbase)| (0+32768))
  2515     03E3  0084               	movwf	4
  2516     03E4  160A  158A  2000  120A  118A  	fcall	stringdir
  2517     03E9  00C2               	movwf	(??_sprintf+1)^(0+128)
  2518     03EA  160A  158A  2000  120A  118A  	fcall	stringdir
  2519     03EF  00C3               	movwf	((??_sprintf+1)^(0+128)+1)
  2520     03F0  160A  158A  2000  120A  118A  	fcall	stringdir
  2521     03F5  00C4               	movwf	((??_sprintf+1)^(0+128)+2)
  2522     03F6  160A  158A  2000  120A  118A  	fcall	stringdir
  2523     03FB  00C5               	movwf	((??_sprintf+1)^(0+128)+3)
  2524     03FC  0845               	movf	(??_sprintf+4)^(0+128),w
  2525     03FD  0252               	subwf	(sprintf@val+3)^(0+128),w
  2526     03FE  1D03               	skipz
  2527     03FF  2C0A               	goto	u6945
  2528     0400  0844               	movf	(??_sprintf+3)^(0+128),w
  2529     0401  0251               	subwf	(sprintf@val+2)^(0+128),w
  2530     0402  1D03               	skipz
  2531     0403  2C0A               	goto	u6945
  2532     0404  0843               	movf	(??_sprintf+2)^(0+128),w
  2533     0405  0250               	subwf	(sprintf@val+1)^(0+128),w
  2534     0406  1D03               	skipz
  2535     0407  2C0A               	goto	u6945
  2536     0408  0842               	movf	(??_sprintf+1)^(0+128),w
  2537     0409  024F               	subwf	sprintf@val^(0+128),w
  2538     040A                     u6945:
  2539     040A  1803               	skipnc
  2540     040B  2C0D               	goto	u6941
  2541     040C  2C0E               	goto	u6940
  2542     040D                     u6941:
  2543     040D  2C0F               	goto	l3997
  2544     040E                     u6940:
  2545     040E  2C19               	goto	l3999
  2546     040F                     l3997:
  2547     040F  3001               	movlw	1
  2548     0410  00C1               	movwf	??_sprintf^(0+128)
  2549     0411  0841               	movf	??_sprintf^(0+128),w
  2550     0412  07DE               	addwf	sprintf@c^(0+128),f
  2551     0413  300A               	movlw	10
  2552     0414  065E               	xorwf	sprintf@c^(0+128),w
  2553     0415  1D03               	btfss	3,2
  2554     0416  2C18               	goto	u6951
  2555     0417  2C19               	goto	u6950
  2556     0418                     u6951:
  2557     0418  2BD8               	goto	l3993
  2558     0419                     u6950:
  2559     0419                     l3999:
  2560                           
  2561                           ;C:\Program Files\Microchip\xc8\v2.40\pic\sources\c90\common\doprnt.c: 1201:     {;C:\Pr
      +                          ogram Files\Microchip\xc8\v2.40\pic\sources\c90\common\doprnt.c: 1214:     if(flag & 0x0
      +                          3)
  2562     0419  3003               	movlw	3
  2563     041A  054B               	andwf	sprintf@flag^(0+128),w
  2564     041B  00C1               	movwf	??_sprintf^(0+128)
  2565     041C  3000               	movlw	0
  2566     041D  054C               	andwf	(sprintf@flag+1)^(0+128),w
  2567     041E  00C2               	movwf	(??_sprintf+1)^(0+128)
  2568     041F  0841               	movf	??_sprintf^(0+128),w
  2569     0420  0442               	iorwf	(??_sprintf^(0+128)+1),w
  2570     0421  1903               	btfsc	3,2
  2571     0422  2C24               	goto	u6961
  2572     0423  2C25               	goto	u6960
  2573     0424                     u6961:
  2574     0424  2CD3               	goto	l278
  2575     0425                     u6960:
  2576     0425                     l4001:
  2577                           
  2578                           ;C:\Program Files\Microchip\xc8\v2.40\pic\sources\c90\common\doprnt.c: 1216:      ((*sp+
      +                          + = ('-')));
  2579     0425  0855               	movf	sprintf@sp^(0+128),w
  2580     0426  0084               	movwf	4
  2581     0427  302D               	movlw	45
  2582     0428  1783               	bsf	3,7	;select IRP bank2
  2583     0429  0080               	movwf	0
  2584     042A                     l4003:
  2585     042A  3001               	movlw	1
  2586     042B  00C1               	movwf	??_sprintf^(0+128)
  2587     042C  0841               	movf	??_sprintf^(0+128),w
  2588     042D  07D5               	addwf	sprintf@sp^(0+128),f
  2589     042E  2CD3               	goto	l278
  2590     042F                     l4005:
  2591                           
  2592                           ;C:\Program Files\Microchip\xc8\v2.40\pic\sources\c90\common\doprnt.c: 1226:     {;C:\Pr
      +                          ogram Files\Microchip\xc8\v2.40\pic\sources\c90\common\doprnt.c: 1227:      tmpval.vd = 
      +                          val/dpowers[c];
  2593     042F  085E               	movf	sprintf@c^(0+128),w
  2594     0430  00C1               	movwf	??_sprintf^(0+128)
  2595     0431  3001               	movlw	1
  2596     0432                     u6975:
  2597     0432  1003               	clrc
  2598     0433  0DC1               	rlf	??_sprintf^(0+128),f
  2599     0434  3EFF               	addlw	-1
  2600     0435  1D03               	skipz
  2601     0436  2C32               	goto	u6975
  2602     0437  1003               	clrc
  2603     0438  0D41               	rlf	??_sprintf^(0+128),w
  2604     0439  3E69               	addlw	low ((_dpowers-__stringbase)| (0+32768))
  2605     043A  0084               	movwf	4
  2606     043B  160A  158A  2000  120A  118A  	fcall	stringdir
  2607     0440  1283               	bcf	3,5	;RP0=0, select bank0
  2608     0441  1303               	bcf	3,6	;RP1=0, select bank0
  2609     0442  00A6               	movwf	___lldiv@divisor
  2610     0443  160A  158A  2000  120A  118A  	fcall	stringdir
  2611     0448  00A7               	movwf	___lldiv@divisor+1
  2612     0449  160A  158A  2000  120A  118A  	fcall	stringdir
  2613     044E  00A8               	movwf	___lldiv@divisor+2
  2614     044F  160A  158A  2000  120A  118A  	fcall	stringdir
  2615     0454  00A9               	movwf	___lldiv@divisor+3
  2616     0455  1683               	bsf	3,5	;RP0=1, select bank1
  2617     0456  1303               	bcf	3,6	;RP1=0, select bank1
  2618     0457  0852               	movf	(sprintf@val+3)^(0+128),w
  2619     0458  1283               	bcf	3,5	;RP0=0, select bank0
  2620     0459  1303               	bcf	3,6	;RP1=0, select bank0
  2621     045A  00AD               	movwf	___lldiv@dividend+3
  2622     045B  1683               	bsf	3,5	;RP0=1, select bank1
  2623     045C  1303               	bcf	3,6	;RP1=0, select bank1
  2624     045D  0851               	movf	(sprintf@val+2)^(0+128),w
  2625     045E  1283               	bcf	3,5	;RP0=0, select bank0
  2626     045F  1303               	bcf	3,6	;RP1=0, select bank0
  2627     0460  00AC               	movwf	___lldiv@dividend+2
  2628     0461  1683               	bsf	3,5	;RP0=1, select bank1
  2629     0462  1303               	bcf	3,6	;RP1=0, select bank1
  2630     0463  0850               	movf	(sprintf@val+1)^(0+128),w
  2631     0464  1283               	bcf	3,5	;RP0=0, select bank0
  2632     0465  1303               	bcf	3,6	;RP1=0, select bank0
  2633     0466  00AB               	movwf	___lldiv@dividend+1
  2634     0467  1683               	bsf	3,5	;RP0=1, select bank1
  2635     0468  1303               	bcf	3,6	;RP1=0, select bank1
  2636     0469  084F               	movf	sprintf@val^(0+128),w
  2637     046A  1283               	bcf	3,5	;RP0=0, select bank0
  2638     046B  1303               	bcf	3,6	;RP1=0, select bank0
  2639     046C  00AA               	movwf	___lldiv@dividend
  2640     046D  160A  158A  251C  120A  118A  	fcall	___lldiv
  2641     0472  1283               	bcf	3,5	;RP0=0, select bank0
  2642     0473  1303               	bcf	3,6	;RP1=0, select bank0
  2643     0474  0829               	movf	?___lldiv+3,w
  2644     0475  1683               	bsf	3,5	;RP0=1, select bank1
  2645     0476  1303               	bcf	3,6	;RP1=0, select bank1
  2646     0477  00D9               	movwf	(sprintf@tmpval+3)^(0+128)
  2647     0478  1283               	bcf	3,5	;RP0=0, select bank0
  2648     0479  1303               	bcf	3,6	;RP1=0, select bank0
  2649     047A  0828               	movf	?___lldiv+2,w
  2650     047B  1683               	bsf	3,5	;RP0=1, select bank1
  2651     047C  1303               	bcf	3,6	;RP1=0, select bank1
  2652     047D  00D8               	movwf	(sprintf@tmpval+2)^(0+128)
  2653     047E  1283               	bcf	3,5	;RP0=0, select bank0
  2654     047F  1303               	bcf	3,6	;RP1=0, select bank0
  2655     0480  0827               	movf	?___lldiv+1,w
  2656     0481  1683               	bsf	3,5	;RP0=1, select bank1
  2657     0482  1303               	bcf	3,6	;RP1=0, select bank1
  2658     0483  00D7               	movwf	(sprintf@tmpval+1)^(0+128)
  2659     0484  1283               	bcf	3,5	;RP0=0, select bank0
  2660     0485  1303               	bcf	3,6	;RP1=0, select bank0
  2661     0486  0826               	movf	?___lldiv,w
  2662     0487  1683               	bsf	3,5	;RP0=1, select bank1
  2663     0488  1303               	bcf	3,6	;RP1=0, select bank1
  2664     0489  00D6               	movwf	sprintf@tmpval^(0+128)
  2665     048A                     l4007:
  2666                           
  2667                           ;C:\Program Files\Microchip\xc8\v2.40\pic\sources\c90\common\doprnt.c: 1228:      tmpval
      +                          .vd %= 10;
  2668     048A  3000               	movlw	0
  2669     048B  1283               	bcf	3,5	;RP0=0, select bank0
  2670     048C  1303               	bcf	3,6	;RP1=0, select bank0
  2671     048D  00A9               	movwf	___llmod@divisor+3
  2672     048E  3000               	movlw	0
  2673     048F  00A8               	movwf	___llmod@divisor+2
  2674     0490  3000               	movlw	0
  2675     0491  00A7               	movwf	___llmod@divisor+1
  2676     0492  300A               	movlw	10
  2677     0493  00A6               	movwf	___llmod@divisor
  2678     0494  1683               	bsf	3,5	;RP0=1, select bank1
  2679     0495  1303               	bcf	3,6	;RP1=0, select bank1
  2680     0496  0859               	movf	(sprintf@tmpval+3)^(0+128),w
  2681     0497  1283               	bcf	3,5	;RP0=0, select bank0
  2682     0498  1303               	bcf	3,6	;RP1=0, select bank0
  2683     0499  00AD               	movwf	___llmod@dividend+3
  2684     049A  1683               	bsf	3,5	;RP0=1, select bank1
  2685     049B  1303               	bcf	3,6	;RP1=0, select bank1
  2686     049C  0858               	movf	(sprintf@tmpval+2)^(0+128),w
  2687     049D  1283               	bcf	3,5	;RP0=0, select bank0
  2688     049E  1303               	bcf	3,6	;RP1=0, select bank0
  2689     049F  00AC               	movwf	___llmod@dividend+2
  2690     04A0  1683               	bsf	3,5	;RP0=1, select bank1
  2691     04A1  1303               	bcf	3,6	;RP1=0, select bank1
  2692     04A2  0857               	movf	(sprintf@tmpval+1)^(0+128),w
  2693     04A3  1283               	bcf	3,5	;RP0=0, select bank0
  2694     04A4  1303               	bcf	3,6	;RP1=0, select bank0
  2695     04A5  00AB               	movwf	___llmod@dividend+1
  2696     04A6  1683               	bsf	3,5	;RP0=1, select bank1
  2697     04A7  1303               	bcf	3,6	;RP1=0, select bank1
  2698     04A8  0856               	movf	sprintf@tmpval^(0+128),w
  2699     04A9  1283               	bcf	3,5	;RP0=0, select bank0
  2700     04AA  1303               	bcf	3,6	;RP1=0, select bank0
  2701     04AB  00AA               	movwf	___llmod@dividend
  2702     04AC  160A  158A  239F  120A  118A  	fcall	___llmod
  2703     04B1  1283               	bcf	3,5	;RP0=0, select bank0
  2704     04B2  1303               	bcf	3,6	;RP1=0, select bank0
  2705     04B3  0829               	movf	?___llmod+3,w
  2706     04B4  1683               	bsf	3,5	;RP0=1, select bank1
  2707     04B5  1303               	bcf	3,6	;RP1=0, select bank1
  2708     04B6  00D9               	movwf	(sprintf@tmpval+3)^(0+128)
  2709     04B7  1283               	bcf	3,5	;RP0=0, select bank0
  2710     04B8  1303               	bcf	3,6	;RP1=0, select bank0
  2711     04B9  0828               	movf	?___llmod+2,w
  2712     04BA  1683               	bsf	3,5	;RP0=1, select bank1
  2713     04BB  1303               	bcf	3,6	;RP1=0, select bank1
  2714     04BC  00D8               	movwf	(sprintf@tmpval+2)^(0+128)
  2715     04BD  1283               	bcf	3,5	;RP0=0, select bank0
  2716     04BE  1303               	bcf	3,6	;RP1=0, select bank0
  2717     04BF  0827               	movf	?___llmod+1,w
  2718     04C0  1683               	bsf	3,5	;RP0=1, select bank1
  2719     04C1  1303               	bcf	3,6	;RP1=0, select bank1
  2720     04C2  00D7               	movwf	(sprintf@tmpval+1)^(0+128)
  2721     04C3  1283               	bcf	3,5	;RP0=0, select bank0
  2722     04C4  1303               	bcf	3,6	;RP1=0, select bank0
  2723     04C5  0826               	movf	?___llmod,w
  2724     04C6  1683               	bsf	3,5	;RP0=1, select bank1
  2725     04C7  1303               	bcf	3,6	;RP1=0, select bank1
  2726     04C8  00D6               	movwf	sprintf@tmpval^(0+128)
  2727     04C9                     l4009:
  2728                           
  2729                           ;C:\Program Files\Microchip\xc8\v2.40\pic\sources\c90\common\doprnt.c: 1229:      ((*sp+
      +                          + = ('0' + tmpval.vd)));
  2730     04C9  0855               	movf	sprintf@sp^(0+128),w
  2731     04CA  0084               	movwf	4
  2732     04CB  0856               	movf	sprintf@tmpval^(0+128),w
  2733     04CC  3E30               	addlw	48
  2734     04CD  1783               	bsf	3,7	;select IRP bank2
  2735     04CE  0080               	movwf	0
  2736     04CF  3001               	movlw	1
  2737     04D0  00C1               	movwf	??_sprintf^(0+128)
  2738     04D1  0841               	movf	??_sprintf^(0+128),w
  2739     04D2  07D5               	addwf	sprintf@sp^(0+128),f
  2740     04D3                     l278:	
  2741                           ;C:\Program Files\Microchip\xc8\v2.40\pic\sources\c90\common\doprnt.c: 1230:     };C:\Pr
      +                          ogram Files\Microchip\xc8\v2.40\pic\sources\c90\common\doprnt.c: 1232:    }
  2742                           
  2743                           
  2744                           ;C:\Program Files\Microchip\xc8\v2.40\pic\sources\c90\common\doprnt.c: 1222:    while(c-
      +                          -) {
  2745     04D3  3001               	movlw	1
  2746     04D4  02DE               	subwf	sprintf@c^(0+128),f
  2747     04D5  0A5E               	incf	sprintf@c^(0+128),w
  2748     04D6  1D03               	btfss	3,2
  2749     04D7  2CD9               	goto	u6981
  2750     04D8  2CDA               	goto	u6980
  2751     04D9                     u6981:
  2752     04D9  2C2F               	goto	l4005
  2753     04DA                     u6980:
  2754     04DA  2CEC               	goto	l4017
  2755     04DB                     l4011:
  2756                           
  2757                           ;C:\Program Files\Microchip\xc8\v2.40\pic\sources\c90\common\doprnt.c: 1234:     ((*sp++
      +                           = ('0')));
  2758     04DB  1683               	bsf	3,5	;RP0=1, select bank1
  2759     04DC  1303               	bcf	3,6	;RP1=0, select bank1
  2760     04DD  0855               	movf	sprintf@sp^(0+128),w
  2761     04DE  0084               	movwf	4
  2762     04DF  3030               	movlw	48
  2763     04E0  1783               	bsf	3,7	;select IRP bank2
  2764     04E1  0080               	movwf	0
  2765     04E2                     l4013:
  2766     04E2  3001               	movlw	1
  2767     04E3  00C1               	movwf	??_sprintf^(0+128)
  2768     04E4  0841               	movf	??_sprintf^(0+128),w
  2769     04E5  07D5               	addwf	sprintf@sp^(0+128),f
  2770     04E6                     l4015:
  2771                           
  2772                           ;C:\Program Files\Microchip\xc8\v2.40\pic\sources\c90\common\doprnt.c: 1235:     eexp--;
  2773     04E6  30FF               	movlw	255
  2774     04E7  07D3               	addwf	sprintf@eexp^(0+128),f
  2775     04E8  1803               	skipnc
  2776     04E9  0AD4               	incf	(sprintf@eexp+1)^(0+128),f
  2777     04EA  30FF               	movlw	255
  2778     04EB  07D4               	addwf	(sprintf@eexp+1)^(0+128),f
  2779     04EC                     l4017:
  2780                           
  2781                           ;C:\Program Files\Microchip\xc8\v2.40\pic\sources\c90\common\doprnt.c: 1233:    while(ee
      +                          xp > 0) {
  2782     04EC  0854               	movf	(sprintf@eexp+1)^(0+128),w
  2783     04ED  3A80               	xorlw	128
  2784     04EE  00FF               	movwf	btemp+1
  2785     04EF  3080               	movlw	128
  2786     04F0  027F               	subwf	btemp+1,w
  2787     04F1  1D03               	skipz
  2788     04F2  2CF5               	goto	u6995
  2789     04F3  3001               	movlw	1
  2790     04F4  0253               	subwf	sprintf@eexp^(0+128),w
  2791     04F5                     u6995:
  2792     04F5  1803               	skipnc
  2793     04F6  2CF8               	goto	u6991
  2794     04F7  2CF9               	goto	u6990
  2795     04F8                     u6991:
  2796     04F8  2CDB               	goto	l4011
  2797     04F9                     u6990:
  2798     04F9                     l4019:
  2799                           
  2800                           ;C:\Program Files\Microchip\xc8\v2.40\pic\sources\c90\common\doprnt.c: 1237:    if(prec 
      +                          > (int)((sizeof dpowers/sizeof dpowers[0])-2))
  2801     04F9  1683               	bsf	3,5	;RP0=1, select bank1
  2802     04FA  1303               	bcf	3,6	;RP1=0, select bank1
  2803     04FB  084E               	movf	(sprintf@prec+1)^(0+128),w
  2804     04FC  3A80               	xorlw	128
  2805     04FD  00FF               	movwf	btemp+1
  2806     04FE  3080               	movlw	128
  2807     04FF  027F               	subwf	btemp+1,w
  2808     0500  1D03               	skipz
  2809     0501  2D04               	goto	u7005
  2810     0502  3009               	movlw	9
  2811     0503  024D               	subwf	sprintf@prec^(0+128),w
  2812     0504                     u7005:
  2813     0504  1C03               	skipc
  2814     0505  2D07               	goto	u7001
  2815     0506  2D08               	goto	u7000
  2816     0507                     u7001:
  2817     0507  2D0D               	goto	l4023
  2818     0508                     u7000:
  2819     0508                     l4021:
  2820                           
  2821                           ;C:\Program Files\Microchip\xc8\v2.40\pic\sources\c90\common\doprnt.c: 1238:     c = (si
      +                          zeof dpowers/sizeof dpowers[0])-2;
  2822     0508  3008               	movlw	8
  2823     0509  1683               	bsf	3,5	;RP0=1, select bank1
  2824     050A  1303               	bcf	3,6	;RP1=0, select bank1
  2825     050B  00DE               	movwf	sprintf@c^(0+128)
  2826     050C  2D11               	goto	l285
  2827     050D                     l4023:
  2828                           
  2829                           ;C:\Program Files\Microchip\xc8\v2.40\pic\sources\c90\common\doprnt.c: 1240:     c = (ch
      +                          ar)prec;
  2830     050D  1683               	bsf	3,5	;RP0=1, select bank1
  2831     050E  1303               	bcf	3,6	;RP1=0, select bank1
  2832     050F  084D               	movf	sprintf@prec^(0+128),w
  2833     0510  00DE               	movwf	sprintf@c^(0+128)
  2834     0511                     l285:
  2835                           
  2836                           ;C:\Program Files\Microchip\xc8\v2.40\pic\sources\c90\common\doprnt.c: 1241:    prec -= 
      +                          (int)c;
  2837     0511  085E               	movf	sprintf@c^(0+128),w
  2838     0512  00C1               	movwf	??_sprintf^(0+128)
  2839     0513  01C2               	clrf	(??_sprintf^(0+128)+1)
  2840     0514  0841               	movf	??_sprintf^(0+128),w
  2841     0515  02CD               	subwf	sprintf@prec^(0+128),f
  2842     0516  0842               	movf	(??_sprintf+1)^(0+128),w
  2843     0517  1C03               	skipc
  2844     0518  03CE               	decf	(sprintf@prec+1)^(0+128),f
  2845     0519  02CE               	subwf	(sprintf@prec+1)^(0+128),f
  2846     051A                     l4025:
  2847                           
  2848                           ;C:\Program Files\Microchip\xc8\v2.40\pic\sources\c90\common\doprnt.c: 1245:    if(c)
  2849     051A  085E               	movf	sprintf@c^(0+128),w
  2850     051B  1903               	btfsc	3,2
  2851     051C  2D1E               	goto	u7011
  2852     051D  2D1F               	goto	u7010
  2853     051E                     u7011:
  2854     051E  2D28               	goto	l4031
  2855     051F                     u7010:
  2856     051F                     l4027:
  2857                           
  2858                           ;C:\Program Files\Microchip\xc8\v2.40\pic\sources\c90\common\doprnt.c: 1247:     ((*sp++
      +                           = ('.')));
  2859     051F  0855               	movf	sprintf@sp^(0+128),w
  2860     0520  0084               	movwf	4
  2861     0521  302E               	movlw	46
  2862     0522  1783               	bsf	3,7	;select IRP bank2
  2863     0523  0080               	movwf	0
  2864     0524                     l4029:
  2865     0524  3001               	movlw	1
  2866     0525  00C1               	movwf	??_sprintf^(0+128)
  2867     0526  0841               	movf	??_sprintf^(0+128),w
  2868     0527  07D5               	addwf	sprintf@sp^(0+128),f
  2869     0528                     l4031:
  2870                           
  2871                           ;C:\Program Files\Microchip\xc8\v2.40\pic\sources\c90\common\doprnt.c: 1253:    val = (u
      +                          nsigned long)(fval * scale((signed char)c));
  2872     0528  085E               	movf	sprintf@c^(0+128),w
  2873     0529  120A  158A  249D  120A  118A  	fcall	_scale
  2874     052E  1283               	bcf	3,5	;RP0=0, select bank0
  2875     052F  1303               	bcf	3,6	;RP1=0, select bank0
  2876     0530  0853               	movf	?_scale+3,w
  2877     0531  1683               	bsf	3,5	;RP0=1, select bank1
  2878     0532  1303               	bcf	3,6	;RP1=0, select bank1
  2879     0533  00C9               	movwf	(_sprintf$1038+3)^(0+128)
  2880     0534  1283               	bcf	3,5	;RP0=0, select bank0
  2881     0535  1303               	bcf	3,6	;RP1=0, select bank0
  2882     0536  0852               	movf	?_scale+2,w
  2883     0537  1683               	bsf	3,5	;RP0=1, select bank1
  2884     0538  1303               	bcf	3,6	;RP1=0, select bank1
  2885     0539  00C8               	movwf	(_sprintf$1038+2)^(0+128)
  2886     053A  1283               	bcf	3,5	;RP0=0, select bank0
  2887     053B  1303               	bcf	3,6	;RP1=0, select bank0
  2888     053C  0851               	movf	?_scale+1,w
  2889     053D  1683               	bsf	3,5	;RP0=1, select bank1
  2890     053E  1303               	bcf	3,6	;RP1=0, select bank1
  2891     053F  00C7               	movwf	(_sprintf$1038+1)^(0+128)
  2892     0540  1283               	bcf	3,5	;RP0=0, select bank0
  2893     0541  1303               	bcf	3,6	;RP1=0, select bank0
  2894     0542  0850               	movf	?_scale,w
  2895     0543  1683               	bsf	3,5	;RP0=1, select bank1
  2896     0544  1303               	bcf	3,6	;RP1=0, select bank1
  2897     0545  00C6               	movwf	_sprintf$1038^(0+128)
  2898     0546                     l4033:
  2899                           
  2900                           ;C:\Program Files\Microchip\xc8\v2.40\pic\sources\c90\common\doprnt.c: 1253:    val = (u
      +                          nsigned long)(fval * scale((signed char)c));
  2901     0546  0849               	movf	(_sprintf$1038+3)^(0+128),w
  2902     0547  1283               	bcf	3,5	;RP0=0, select bank0
  2903     0548  1303               	bcf	3,6	;RP1=0, select bank0
  2904     0549  00BD               	movwf	___flmul@a+3
  2905     054A  1683               	bsf	3,5	;RP0=1, select bank1
  2906     054B  1303               	bcf	3,6	;RP1=0, select bank1
  2907     054C  0848               	movf	(_sprintf$1038+2)^(0+128),w
  2908     054D  1283               	bcf	3,5	;RP0=0, select bank0
  2909     054E  1303               	bcf	3,6	;RP1=0, select bank0
  2910     054F  00BC               	movwf	___flmul@a+2
  2911     0550  1683               	bsf	3,5	;RP0=1, select bank1
  2912     0551  1303               	bcf	3,6	;RP1=0, select bank1
  2913     0552  0847               	movf	(_sprintf$1038+1)^(0+128),w
  2914     0553  1283               	bcf	3,5	;RP0=0, select bank0
  2915     0554  1303               	bcf	3,6	;RP1=0, select bank0
  2916     0555  00BB               	movwf	___flmul@a+1
  2917     0556  1683               	bsf	3,5	;RP0=1, select bank1
  2918     0557  1303               	bcf	3,6	;RP1=0, select bank1
  2919     0558  0846               	movf	_sprintf$1038^(0+128),w
  2920     0559  1283               	bcf	3,5	;RP0=0, select bank0
  2921     055A  1303               	bcf	3,6	;RP1=0, select bank0
  2922     055B  00BA               	movwf	___flmul@a
  2923     055C  1683               	bsf	3,5	;RP0=1, select bank1
  2924     055D  1303               	bcf	3,6	;RP1=0, select bank1
  2925     055E  085D               	movf	(sprintf@fval+3)^(0+128),w
  2926     055F  1283               	bcf	3,5	;RP0=0, select bank0
  2927     0560  1303               	bcf	3,6	;RP1=0, select bank0
  2928     0561  00B9               	movwf	___flmul@b+3
  2929     0562  1683               	bsf	3,5	;RP0=1, select bank1
  2930     0563  1303               	bcf	3,6	;RP1=0, select bank1
  2931     0564  085C               	movf	(sprintf@fval+2)^(0+128),w
  2932     0565  1283               	bcf	3,5	;RP0=0, select bank0
  2933     0566  1303               	bcf	3,6	;RP1=0, select bank0
  2934     0567  00B8               	movwf	___flmul@b+2
  2935     0568  1683               	bsf	3,5	;RP0=1, select bank1
  2936     0569  1303               	bcf	3,6	;RP1=0, select bank1
  2937     056A  085B               	movf	(sprintf@fval+1)^(0+128),w
  2938     056B  1283               	bcf	3,5	;RP0=0, select bank0
  2939     056C  1303               	bcf	3,6	;RP1=0, select bank0
  2940     056D  00B7               	movwf	___flmul@b+1
  2941     056E  1683               	bsf	3,5	;RP0=1, select bank1
  2942     056F  1303               	bcf	3,6	;RP1=0, select bank1
  2943     0570  085A               	movf	sprintf@fval^(0+128),w
  2944     0571  1283               	bcf	3,5	;RP0=0, select bank0
  2945     0572  1303               	bcf	3,6	;RP1=0, select bank0
  2946     0573  00B6               	movwf	___flmul@b
  2947     0574  120A  158A  2158  120A  118A  	fcall	___flmul
  2948     0579  1283               	bcf	3,5	;RP0=0, select bank0
  2949     057A  1303               	bcf	3,6	;RP1=0, select bank0
  2950     057B  0839               	movf	?___flmul+3,w
  2951     057C  1683               	bsf	3,5	;RP0=1, select bank1
  2952     057D  1303               	bcf	3,6	;RP1=0, select bank1
  2953     057E  00A3               	movwf	(___fltol@f1+3)^(0+128)
  2954     057F  1283               	bcf	3,5	;RP0=0, select bank0
  2955     0580  1303               	bcf	3,6	;RP1=0, select bank0
  2956     0581  0838               	movf	?___flmul+2,w
  2957     0582  1683               	bsf	3,5	;RP0=1, select bank1
  2958     0583  1303               	bcf	3,6	;RP1=0, select bank1
  2959     0584  00A2               	movwf	(___fltol@f1+2)^(0+128)
  2960     0585  1283               	bcf	3,5	;RP0=0, select bank0
  2961     0586  1303               	bcf	3,6	;RP1=0, select bank0
  2962     0587  0837               	movf	?___flmul+1,w
  2963     0588  1683               	bsf	3,5	;RP0=1, select bank1
  2964     0589  1303               	bcf	3,6	;RP1=0, select bank1
  2965     058A  00A1               	movwf	(___fltol@f1+1)^(0+128)
  2966     058B  1283               	bcf	3,5	;RP0=0, select bank0
  2967     058C  1303               	bcf	3,6	;RP1=0, select bank0
  2968     058D  0836               	movf	?___flmul,w
  2969     058E  1683               	bsf	3,5	;RP0=1, select bank1
  2970     058F  1303               	bcf	3,6	;RP1=0, select bank1
  2971     0590  00A0               	movwf	___fltol@f1^(0+128)
  2972     0591  120A  158A  2026  120A  118A  	fcall	___fltol
  2973     0596  1683               	bsf	3,5	;RP0=1, select bank1
  2974     0597  1303               	bcf	3,6	;RP1=0, select bank1
  2975     0598  0823               	movf	(?___fltol+3)^(0+128),w
  2976     0599  00D2               	movwf	(sprintf@val+3)^(0+128)
  2977     059A  0822               	movf	(?___fltol+2)^(0+128),w
  2978     059B  00D1               	movwf	(sprintf@val+2)^(0+128)
  2979     059C  0821               	movf	(?___fltol+1)^(0+128),w
  2980     059D  00D0               	movwf	(sprintf@val+1)^(0+128)
  2981     059E  0820               	movf	?___fltol^(0+128),w
  2982     059F  00CF               	movwf	sprintf@val^(0+128)
  2983                           
  2984                           ;C:\Program Files\Microchip\xc8\v2.40\pic\sources\c90\common\doprnt.c: 1254:    while(c-
      +                          -) {
  2985     05A0  2EA0               	goto	l4043
  2986     05A1                     l4035:
  2987                           
  2988                           ;C:\Program Files\Microchip\xc8\v2.40\pic\sources\c90\common\doprnt.c: 1255:     tmpval.
      +                          vd = val/dpowers[c];
  2989     05A1  085E               	movf	sprintf@c^(0+128),w
  2990     05A2  00C1               	movwf	??_sprintf^(0+128)
  2991     05A3  3001               	movlw	1
  2992     05A4                     u7025:
  2993     05A4  1003               	clrc
  2994     05A5  0DC1               	rlf	??_sprintf^(0+128),f
  2995     05A6  3EFF               	addlw	-1
  2996     05A7  1D03               	skipz
  2997     05A8  2DA4               	goto	u7025
  2998     05A9  1003               	clrc
  2999     05AA  0D41               	rlf	??_sprintf^(0+128),w
  3000     05AB  3E69               	addlw	low ((_dpowers-__stringbase)| (0+32768))
  3001     05AC  0084               	movwf	4
  3002     05AD  160A  158A  2000  120A  118A  	fcall	stringdir
  3003     05B2  1283               	bcf	3,5	;RP0=0, select bank0
  3004     05B3  1303               	bcf	3,6	;RP1=0, select bank0
  3005     05B4  00A6               	movwf	___lldiv@divisor
  3006     05B5  160A  158A  2000  120A  118A  	fcall	stringdir
  3007     05BA  00A7               	movwf	___lldiv@divisor+1
  3008     05BB  160A  158A  2000  120A  118A  	fcall	stringdir
  3009     05C0  00A8               	movwf	___lldiv@divisor+2
  3010     05C1  160A  158A  2000  120A  118A  	fcall	stringdir
  3011     05C6  00A9               	movwf	___lldiv@divisor+3
  3012     05C7  1683               	bsf	3,5	;RP0=1, select bank1
  3013     05C8  1303               	bcf	3,6	;RP1=0, select bank1
  3014     05C9  0852               	movf	(sprintf@val+3)^(0+128),w
  3015     05CA  1283               	bcf	3,5	;RP0=0, select bank0
  3016     05CB  1303               	bcf	3,6	;RP1=0, select bank0
  3017     05CC  00AD               	movwf	___lldiv@dividend+3
  3018     05CD  1683               	bsf	3,5	;RP0=1, select bank1
  3019     05CE  1303               	bcf	3,6	;RP1=0, select bank1
  3020     05CF  0851               	movf	(sprintf@val+2)^(0+128),w
  3021     05D0  1283               	bcf	3,5	;RP0=0, select bank0
  3022     05D1  1303               	bcf	3,6	;RP1=0, select bank0
  3023     05D2  00AC               	movwf	___lldiv@dividend+2
  3024     05D3  1683               	bsf	3,5	;RP0=1, select bank1
  3025     05D4  1303               	bcf	3,6	;RP1=0, select bank1
  3026     05D5  0850               	movf	(sprintf@val+1)^(0+128),w
  3027     05D6  1283               	bcf	3,5	;RP0=0, select bank0
  3028     05D7  1303               	bcf	3,6	;RP1=0, select bank0
  3029     05D8  00AB               	movwf	___lldiv@dividend+1
  3030     05D9  1683               	bsf	3,5	;RP0=1, select bank1
  3031     05DA  1303               	bcf	3,6	;RP1=0, select bank1
  3032     05DB  084F               	movf	sprintf@val^(0+128),w
  3033     05DC  1283               	bcf	3,5	;RP0=0, select bank0
  3034     05DD  1303               	bcf	3,6	;RP1=0, select bank0
  3035     05DE  00AA               	movwf	___lldiv@dividend
  3036     05DF  160A  158A  251C  120A  118A  	fcall	___lldiv
  3037     05E4  1283               	bcf	3,5	;RP0=0, select bank0
  3038     05E5  1303               	bcf	3,6	;RP1=0, select bank0
  3039     05E6  0829               	movf	?___lldiv+3,w
  3040     05E7  1683               	bsf	3,5	;RP0=1, select bank1
  3041     05E8  1303               	bcf	3,6	;RP1=0, select bank1
  3042     05E9  00D9               	movwf	(sprintf@tmpval+3)^(0+128)
  3043     05EA  1283               	bcf	3,5	;RP0=0, select bank0
  3044     05EB  1303               	bcf	3,6	;RP1=0, select bank0
  3045     05EC  0828               	movf	?___lldiv+2,w
  3046     05ED  1683               	bsf	3,5	;RP0=1, select bank1
  3047     05EE  1303               	bcf	3,6	;RP1=0, select bank1
  3048     05EF  00D8               	movwf	(sprintf@tmpval+2)^(0+128)
  3049     05F0  1283               	bcf	3,5	;RP0=0, select bank0
  3050     05F1  1303               	bcf	3,6	;RP1=0, select bank0
  3051     05F2  0827               	movf	?___lldiv+1,w
  3052     05F3  1683               	bsf	3,5	;RP0=1, select bank1
  3053     05F4  1303               	bcf	3,6	;RP1=0, select bank1
  3054     05F5  00D7               	movwf	(sprintf@tmpval+1)^(0+128)
  3055     05F6  1283               	bcf	3,5	;RP0=0, select bank0
  3056     05F7  1303               	bcf	3,6	;RP1=0, select bank0
  3057     05F8  0826               	movf	?___lldiv,w
  3058     05F9  1683               	bsf	3,5	;RP0=1, select bank1
  3059     05FA  1303               	bcf	3,6	;RP1=0, select bank1
  3060     05FB  00D6               	movwf	sprintf@tmpval^(0+128)
  3061     05FC                     l4037:
  3062                           
  3063                           ;C:\Program Files\Microchip\xc8\v2.40\pic\sources\c90\common\doprnt.c: 1256:     tmpval.
      +                          vd %= 10;
  3064     05FC  3000               	movlw	0
  3065     05FD  1283               	bcf	3,5	;RP0=0, select bank0
  3066     05FE  1303               	bcf	3,6	;RP1=0, select bank0
  3067     05FF  00A9               	movwf	___llmod@divisor+3
  3068     0600  3000               	movlw	0
  3069     0601  00A8               	movwf	___llmod@divisor+2
  3070     0602  3000               	movlw	0
  3071     0603  00A7               	movwf	___llmod@divisor+1
  3072     0604  300A               	movlw	10
  3073     0605  00A6               	movwf	___llmod@divisor
  3074     0606  1683               	bsf	3,5	;RP0=1, select bank1
  3075     0607  1303               	bcf	3,6	;RP1=0, select bank1
  3076     0608  0859               	movf	(sprintf@tmpval+3)^(0+128),w
  3077     0609  1283               	bcf	3,5	;RP0=0, select bank0
  3078     060A  1303               	bcf	3,6	;RP1=0, select bank0
  3079     060B  00AD               	movwf	___llmod@dividend+3
  3080     060C  1683               	bsf	3,5	;RP0=1, select bank1
  3081     060D  1303               	bcf	3,6	;RP1=0, select bank1
  3082     060E  0858               	movf	(sprintf@tmpval+2)^(0+128),w
  3083     060F  1283               	bcf	3,5	;RP0=0, select bank0
  3084     0610  1303               	bcf	3,6	;RP1=0, select bank0
  3085     0611  00AC               	movwf	___llmod@dividend+2
  3086     0612  1683               	bsf	3,5	;RP0=1, select bank1
  3087     0613  1303               	bcf	3,6	;RP1=0, select bank1
  3088     0614  0857               	movf	(sprintf@tmpval+1)^(0+128),w
  3089     0615  1283               	bcf	3,5	;RP0=0, select bank0
  3090     0616  1303               	bcf	3,6	;RP1=0, select bank0
  3091     0617  00AB               	movwf	___llmod@dividend+1
  3092     0618  1683               	bsf	3,5	;RP0=1, select bank1
  3093     0619  1303               	bcf	3,6	;RP1=0, select bank1
  3094     061A  0856               	movf	sprintf@tmpval^(0+128),w
  3095     061B  1283               	bcf	3,5	;RP0=0, select bank0
  3096     061C  1303               	bcf	3,6	;RP1=0, select bank0
  3097     061D  00AA               	movwf	___llmod@dividend
  3098     061E  160A  158A  239F  120A  118A  	fcall	___llmod
  3099     0623  1283               	bcf	3,5	;RP0=0, select bank0
  3100     0624  1303               	bcf	3,6	;RP1=0, select bank0
  3101     0625  0829               	movf	?___llmod+3,w
  3102     0626  1683               	bsf	3,5	;RP0=1, select bank1
  3103     0627  1303               	bcf	3,6	;RP1=0, select bank1
  3104     0628  00D9               	movwf	(sprintf@tmpval+3)^(0+128)
  3105     0629  1283               	bcf	3,5	;RP0=0, select bank0
  3106     062A  1303               	bcf	3,6	;RP1=0, select bank0
  3107     062B  0828               	movf	?___llmod+2,w
  3108     062C  1683               	bsf	3,5	;RP0=1, select bank1
  3109     062D  1303               	bcf	3,6	;RP1=0, select bank1
  3110     062E  00D8               	movwf	(sprintf@tmpval+2)^(0+128)
  3111     062F  1283               	bcf	3,5	;RP0=0, select bank0
  3112     0630  1303               	bcf	3,6	;RP1=0, select bank0
  3113     0631  0827               	movf	?___llmod+1,w
  3114     0632  1683               	bsf	3,5	;RP0=1, select bank1
  3115     0633  1303               	bcf	3,6	;RP1=0, select bank1
  3116     0634  00D7               	movwf	(sprintf@tmpval+1)^(0+128)
  3117     0635  1283               	bcf	3,5	;RP0=0, select bank0
  3118     0636  1303               	bcf	3,6	;RP1=0, select bank0
  3119     0637  0826               	movf	?___llmod,w
  3120     0638  1683               	bsf	3,5	;RP0=1, select bank1
  3121     0639  1303               	bcf	3,6	;RP1=0, select bank1
  3122     063A  00D6               	movwf	sprintf@tmpval^(0+128)
  3123     063B                     l4039:
  3124                           
  3125                           ;C:\Program Files\Microchip\xc8\v2.40\pic\sources\c90\common\doprnt.c: 1257:     ((*sp++
      +                           = ('0' + tmpval.vd)));
  3126     063B  0855               	movf	sprintf@sp^(0+128),w
  3127     063C  0084               	movwf	4
  3128     063D  0856               	movf	sprintf@tmpval^(0+128),w
  3129     063E  3E30               	addlw	48
  3130     063F  1783               	bsf	3,7	;select IRP bank2
  3131     0640  0080               	movwf	0
  3132     0641  3001               	movlw	1
  3133     0642  00C1               	movwf	??_sprintf^(0+128)
  3134     0643  0841               	movf	??_sprintf^(0+128),w
  3135     0644  07D5               	addwf	sprintf@sp^(0+128),f
  3136     0645                     l4041:
  3137                           
  3138                           ;C:\Program Files\Microchip\xc8\v2.40\pic\sources\c90\common\doprnt.c: 1258:     val %= 
      +                          dpowers[c];
  3139     0645  085E               	movf	sprintf@c^(0+128),w
  3140     0646  00C1               	movwf	??_sprintf^(0+128)
  3141     0647  3001               	movlw	1
  3142     0648                     u7035:
  3143     0648  1003               	clrc
  3144     0649  0DC1               	rlf	??_sprintf^(0+128),f
  3145     064A  3EFF               	addlw	-1
  3146     064B  1D03               	skipz
  3147     064C  2E48               	goto	u7035
  3148     064D  1003               	clrc
  3149     064E  0D41               	rlf	??_sprintf^(0+128),w
  3150     064F  3E69               	addlw	low ((_dpowers-__stringbase)| (0+32768))
  3151     0650  0084               	movwf	4
  3152     0651  160A  158A  2000  120A  118A  	fcall	stringdir
  3153     0656  1283               	bcf	3,5	;RP0=0, select bank0
  3154     0657  1303               	bcf	3,6	;RP1=0, select bank0
  3155     0658  00A6               	movwf	___llmod@divisor
  3156     0659  160A  158A  2000  120A  118A  	fcall	stringdir
  3157     065E  00A7               	movwf	___llmod@divisor+1
  3158     065F  160A  158A  2000  120A  118A  	fcall	stringdir
  3159     0664  00A8               	movwf	___llmod@divisor+2
  3160     0665  160A  158A  2000  120A  118A  	fcall	stringdir
  3161     066A  00A9               	movwf	___llmod@divisor+3
  3162     066B  1683               	bsf	3,5	;RP0=1, select bank1
  3163     066C  1303               	bcf	3,6	;RP1=0, select bank1
  3164     066D  0852               	movf	(sprintf@val+3)^(0+128),w
  3165     066E  1283               	bcf	3,5	;RP0=0, select bank0
  3166     066F  1303               	bcf	3,6	;RP1=0, select bank0
  3167     0670  00AD               	movwf	___llmod@dividend+3
  3168     0671  1683               	bsf	3,5	;RP0=1, select bank1
  3169     0672  1303               	bcf	3,6	;RP1=0, select bank1
  3170     0673  0851               	movf	(sprintf@val+2)^(0+128),w
  3171     0674  1283               	bcf	3,5	;RP0=0, select bank0
  3172     0675  1303               	bcf	3,6	;RP1=0, select bank0
  3173     0676  00AC               	movwf	___llmod@dividend+2
  3174     0677  1683               	bsf	3,5	;RP0=1, select bank1
  3175     0678  1303               	bcf	3,6	;RP1=0, select bank1
  3176     0679  0850               	movf	(sprintf@val+1)^(0+128),w
  3177     067A  1283               	bcf	3,5	;RP0=0, select bank0
  3178     067B  1303               	bcf	3,6	;RP1=0, select bank0
  3179     067C  00AB               	movwf	___llmod@dividend+1
  3180     067D  1683               	bsf	3,5	;RP0=1, select bank1
  3181     067E  1303               	bcf	3,6	;RP1=0, select bank1
  3182     067F  084F               	movf	sprintf@val^(0+128),w
  3183     0680  1283               	bcf	3,5	;RP0=0, select bank0
  3184     0681  1303               	bcf	3,6	;RP1=0, select bank0
  3185     0682  00AA               	movwf	___llmod@dividend
  3186     0683  160A  158A  239F  120A  118A  	fcall	___llmod
  3187     0688  1283               	bcf	3,5	;RP0=0, select bank0
  3188     0689  1303               	bcf	3,6	;RP1=0, select bank0
  3189     068A  0829               	movf	?___llmod+3,w
  3190     068B  1683               	bsf	3,5	;RP0=1, select bank1
  3191     068C  1303               	bcf	3,6	;RP1=0, select bank1
  3192     068D  00D2               	movwf	(sprintf@val+3)^(0+128)
  3193     068E  1283               	bcf	3,5	;RP0=0, select bank0
  3194     068F  1303               	bcf	3,6	;RP1=0, select bank0
  3195     0690  0828               	movf	?___llmod+2,w
  3196     0691  1683               	bsf	3,5	;RP0=1, select bank1
  3197     0692  1303               	bcf	3,6	;RP1=0, select bank1
  3198     0693  00D1               	movwf	(sprintf@val+2)^(0+128)
  3199     0694  1283               	bcf	3,5	;RP0=0, select bank0
  3200     0695  1303               	bcf	3,6	;RP1=0, select bank0
  3201     0696  0827               	movf	?___llmod+1,w
  3202     0697  1683               	bsf	3,5	;RP0=1, select bank1
  3203     0698  1303               	bcf	3,6	;RP1=0, select bank1
  3204     0699  00D0               	movwf	(sprintf@val+1)^(0+128)
  3205     069A  1283               	bcf	3,5	;RP0=0, select bank0
  3206     069B  1303               	bcf	3,6	;RP1=0, select bank0
  3207     069C  0826               	movf	?___llmod,w
  3208     069D  1683               	bsf	3,5	;RP0=1, select bank1
  3209     069E  1303               	bcf	3,6	;RP1=0, select bank1
  3210     069F  00CF               	movwf	sprintf@val^(0+128)
  3211     06A0                     l4043:
  3212                           
  3213                           ;C:\Program Files\Microchip\xc8\v2.40\pic\sources\c90\common\doprnt.c: 1254:    while(c-
      +                          -) {
  3214     06A0  3001               	movlw	1
  3215     06A1  02DE               	subwf	sprintf@c^(0+128),f
  3216     06A2  0A5E               	incf	sprintf@c^(0+128),w
  3217     06A3  1D03               	btfss	3,2
  3218     06A4  2EA6               	goto	u7041
  3219     06A5  2EA7               	goto	u7040
  3220     06A6                     u7041:
  3221     06A6  2DA1               	goto	l4035
  3222     06A7                     u7040:
  3223     06A7  2EB7               	goto	l4051
  3224     06A8                     l4045:
  3225                           
  3226                           ;C:\Program Files\Microchip\xc8\v2.40\pic\sources\c90\common\doprnt.c: 1262:     ((*sp++
      +                           = ('0')));
  3227     06A8  0855               	movf	sprintf@sp^(0+128),w
  3228     06A9  0084               	movwf	4
  3229     06AA  3030               	movlw	48
  3230     06AB  1783               	bsf	3,7	;select IRP bank2
  3231     06AC  0080               	movwf	0
  3232     06AD                     l4047:
  3233     06AD  3001               	movlw	1
  3234     06AE  00C1               	movwf	??_sprintf^(0+128)
  3235     06AF  0841               	movf	??_sprintf^(0+128),w
  3236     06B0  07D5               	addwf	sprintf@sp^(0+128),f
  3237     06B1                     l4049:
  3238                           
  3239                           ;C:\Program Files\Microchip\xc8\v2.40\pic\sources\c90\common\doprnt.c: 1263:     prec--;
  3240     06B1  30FF               	movlw	255
  3241     06B2  07CD               	addwf	sprintf@prec^(0+128),f
  3242     06B3  1803               	skipnc
  3243     06B4  0ACE               	incf	(sprintf@prec+1)^(0+128),f
  3244     06B5  30FF               	movlw	255
  3245     06B6  07CE               	addwf	(sprintf@prec+1)^(0+128),f
  3246     06B7                     l4051:
  3247                           
  3248                           ;C:\Program Files\Microchip\xc8\v2.40\pic\sources\c90\common\doprnt.c: 1261:    while(pr
      +                          ec) {
  3249     06B7  084D               	movf	sprintf@prec^(0+128),w
  3250     06B8  044E               	iorwf	(sprintf@prec+1)^(0+128),w
  3251     06B9  1D03               	btfss	3,2
  3252     06BA  2EBC               	goto	u7051
  3253     06BB  2EBD               	goto	u7050
  3254     06BC                     u7051:
  3255     06BC  2EA8               	goto	l4045
  3256     06BD                     u7050:
  3257     06BD  2ED0               	goto	l4059
  3258     06BE                     l4053:
  3259                           
  3260                           ;C:\Program Files\Microchip\xc8\v2.40\pic\sources\c90\common\doprnt.c: 1448:   {;C:\Prog
      +                          ram Files\Microchip\xc8\v2.40\pic\sources\c90\common\doprnt.c: 1464:    if(flag & 0x03)
  3261     06BE  3003               	movlw	3
  3262     06BF  054B               	andwf	sprintf@flag^(0+128),w
  3263     06C0  00C1               	movwf	??_sprintf^(0+128)
  3264     06C1  3000               	movlw	0
  3265     06C2  054C               	andwf	(sprintf@flag+1)^(0+128),w
  3266     06C3  00C2               	movwf	(??_sprintf+1)^(0+128)
  3267     06C4  0841               	movf	??_sprintf^(0+128),w
  3268     06C5  0442               	iorwf	(??_sprintf^(0+128)+1),w
  3269     06C6  1903               	btfsc	3,2
  3270     06C7  2EC9               	goto	u7061
  3271     06C8  2ECA               	goto	u7060
  3272     06C9                     u7061:
  3273     06C9  2ED0               	goto	l4059
  3274     06CA                     u7060:
  3275     06CA                     l4055:
  3276                           
  3277                           ;C:\Program Files\Microchip\xc8\v2.40\pic\sources\c90\common\doprnt.c: 1465:     ((*sp++
      +                           = ('-')));
  3278     06CA  0855               	movf	sprintf@sp^(0+128),w
  3279     06CB  0084               	movwf	4
  3280     06CC  302D               	movlw	45
  3281     06CD  1783               	bsf	3,7	;select IRP bank2
  3282     06CE  0080               	movwf	0
  3283     06CF  2836               	goto	l3905
  3284     06D0                     l4059:
  3285                           
  3286                           ;C:\Program Files\Microchip\xc8\v2.40\pic\sources\c90\common\doprnt.c: 553:  while((c = 
      +                          *f++)) {
  3287     06D0  3001               	movlw	1
  3288     06D1  07BC               	addwf	sprintf@f^(0+128),f
  3289     06D2  30FF               	movlw	-1
  3290     06D3  073C               	addwf	sprintf@f^(0+128),w
  3291     06D4  0084               	movwf	4
  3292     06D5  160A  158A  2000  120A  118A  	fcall	stringdir
  3293     06DA  00DE               	movwf	sprintf@c^(0+128)
  3294     06DB  085E               	movf	sprintf@c^(0+128),w
  3295     06DC  1D03               	btfss	3,2
  3296     06DD  2EDF               	goto	u7071
  3297     06DE  2EE0               	goto	u7070
  3298     06DF                     u7071:
  3299     06DF  282B               	goto	l3901
  3300     06E0                     u7070:
  3301     06E0                     l4061:
  3302                           
  3303                           ;C:\Program Files\Microchip\xc8\v2.40\pic\sources\c90\common\doprnt.c: 1564:  *sp = 0;
  3304     06E0  0855               	movf	sprintf@sp^(0+128),w
  3305     06E1  0084               	movwf	4
  3306     06E2  1783               	bsf	3,7	;select IRP bank2
  3307     06E3  0180               	clrf	0
  3308     06E4                     l295:
  3309     06E4  0008               	return
  3310     06E5                     __end_of_sprintf:
  3311                           
  3312                           	psect	text2
  3313     0C9D                     __ptext2:	
  3314 ;; *************** function _scale *****************
  3315 ;; Defined at:
  3316 ;;		line 433 in file "C:\Program Files\Microchip\xc8\v2.40\pic\sources\c90\common\doprnt.c"
  3317 ;; Parameters:    Size  Location     Type
  3318 ;;  scl             1    wreg     char 
  3319 ;; Auto vars:     Size  Location     Type
  3320 ;;  scl             1   66[BANK0 ] char 
  3321 ;; Return value:  Size  Location     Type
  3322 ;;                  4   48[BANK0 ] char 
  3323 ;; Registers used:
  3324 ;;		wreg, fsr0l, fsr0h, status,2, status,0, btemp+1, pclath, cstack
  3325 ;; Tracked objects:
  3326 ;;		On entry : 0/0
  3327 ;;		On exit  : 0/0
  3328 ;;		Unchanged: 0/0
  3329 ;; Data sizes:     COMMON   BANK0   BANK1   BANK3   BANK2
  3330 ;;      Params:         0       4       0       0       0
  3331 ;;      Locals:         0       5       0       0       0
  3332 ;;      Temps:          0      10       0       0       0
  3333 ;;      Totals:         0      19       0       0       0
  3334 ;;Total ram usage:       19 bytes
  3335 ;; Hardware stack levels used: 1
  3336 ;; Hardware stack levels required when called: 4
  3337 ;; This function calls:
  3338 ;;		___awdiv
  3339 ;;		___awmod
  3340 ;;		___flmul
  3341 ;; This function is called by:
  3342 ;;		_sprintf
  3343 ;; This function uses a non-reentrant model
  3344 ;;
  3345                           
  3346     0C9D                     _scale:	
  3347                           ;psect for function _scale
  3348                           
  3349                           
  3350                           ;incstack = 0
  3351                           ; Regs used in _scale: [wreg-fsr0h+status,2+status,0+btemp+1+pclath+cstack]
  3352                           ;scale@scl stored from wreg
  3353     0C9D  1283               	bcf	3,5	;RP0=0, select bank0
  3354     0C9E  1303               	bcf	3,6	;RP1=0, select bank0
  3355     0C9F  00E2               	movwf	scale@scl
  3356     0CA0                     l2807:
  3357                           
  3358                           ;C:\Program Files\Microchip\xc8\v2.40\pic\sources\c90\common\doprnt.c: 433: scale(signed
      +                           char scl);C:\Program Files\Microchip\xc8\v2.40\pic\sources\c90\common\doprnt.c: 434: {;
      +                          C:\Program Files\Microchip\xc8\v2.40\pic\sources\c90\common\doprnt.c: 436:  if(scl < 0) 
      +                          {
  3359     0CA0  1FE2               	btfss	scale@scl,7
  3360     0CA1  2CA3               	goto	u4441
  3361     0CA2  2CA4               	goto	u4440
  3362     0CA3                     u4441:
  3363     0CA3  2E53               	goto	l2829
  3364     0CA4                     u4440:
  3365     0CA4                     l2809:
  3366                           
  3367                           ;C:\Program Files\Microchip\xc8\v2.40\pic\sources\c90\common\doprnt.c: 437:   scl = -scl
      +                          ;
  3368     0CA4  09E2               	comf	scale@scl,f
  3369     0CA5  0AE2               	incf	scale@scl,f
  3370     0CA6                     l2811:
  3371                           
  3372                           ;C:\Program Files\Microchip\xc8\v2.40\pic\sources\c90\common\doprnt.c: 438:   if(scl>=11
      +                          0)
  3373     0CA6  0862               	movf	scale@scl,w
  3374     0CA7  3A80               	xorlw	128
  3375     0CA8  3E12               	addlw	-238
  3376     0CA9  1C03               	skipc
  3377     0CAA  2CAC               	goto	u4451
  3378     0CAB  2CAD               	goto	u4450
  3379     0CAC                     u4451:
  3380     0CAC  2D97               	goto	l2819
  3381     0CAD                     u4450:
  3382     0CAD                     l2813:
  3383                           
  3384                           ;C:\Program Files\Microchip\xc8\v2.40\pic\sources\c90\common\doprnt.c: 439:    return _n
      +                          powers_[(unsigned char)(scl/100+18)] * _npowers_[(unsigned char)((scl%100)/10+9)] * _npo
      +                          wers_[(unsigned char)(scl%10)];
  3385     0CAD  300A               	movlw	10
  3386     0CAE  00AD               	movwf	___awdiv@divisor
  3387     0CAF  3000               	movlw	0
  3388     0CB0  00AE               	movwf	___awdiv@divisor+1
  3389     0CB1  0862               	movf	scale@scl,w
  3390     0CB2  00A8               	movwf	___awmod@dividend
  3391     0CB3  01A9               	clrf	___awmod@dividend+1
  3392     0CB4  1BA8               	btfsc	___awmod@dividend,7
  3393     0CB5  03A9               	decf	___awmod@dividend+1,f
  3394     0CB6  3064               	movlw	100
  3395     0CB7  00A6               	movwf	___awmod@divisor
  3396     0CB8  3000               	movlw	0
  3397     0CB9  00A7               	movwf	___awmod@divisor+1
  3398     0CBA  160A  158A  23F5  120A  158A  	fcall	___awmod
  3399     0CBF  1283               	bcf	3,5	;RP0=0, select bank0
  3400     0CC0  1303               	bcf	3,6	;RP1=0, select bank0
  3401     0CC1  0827               	movf	?___awmod+1,w
  3402     0CC2  00B0               	movwf	___awdiv@dividend+1
  3403     0CC3  0826               	movf	?___awmod,w
  3404     0CC4  00AF               	movwf	___awdiv@dividend
  3405     0CC5  160A  158A  2584  120A  158A  	fcall	___awdiv
  3406     0CCA  1283               	bcf	3,5	;RP0=0, select bank0
  3407     0CCB  1303               	bcf	3,6	;RP1=0, select bank0
  3408     0CCC  082D               	movf	?___awdiv,w
  3409     0CCD  00D4               	movwf	??_scale
  3410     0CCE  3001               	movlw	1
  3411     0CCF                     u4465:
  3412     0CCF  1003               	clrc
  3413     0CD0  0DD4               	rlf	??_scale,f
  3414     0CD1  3EFF               	addlw	-1
  3415     0CD2  1D03               	skipz
  3416     0CD3  2CCF               	goto	u4465
  3417     0CD4  1003               	clrc
  3418     0CD5  0D54               	rlf	??_scale,w
  3419     0CD6  3E59               	addlw	low (((__npowers_-__stringbase)| (0+32768)+36))
  3420     0CD7  0084               	movwf	4
  3421     0CD8  160A  158A  2000  120A  158A  	fcall	stringdir
  3422     0CDD  00D5               	movwf	??_scale+1
  3423     0CDE  160A  158A  2000  120A  158A  	fcall	stringdir
  3424     0CE3  00D6               	movwf	??_scale+2
  3425     0CE4  160A  158A  2000  120A  158A  	fcall	stringdir
  3426     0CE9  00D7               	movwf	??_scale+3
  3427     0CEA  160A  158A  2000  120A  158A  	fcall	stringdir
  3428     0CEF  00D8               	movwf	??_scale+4
  3429     0CF0  0858               	movf	??_scale+4,w
  3430     0CF1  00B9               	movwf	___flmul@b+3
  3431     0CF2  0857               	movf	??_scale+3,w
  3432     0CF3  00B8               	movwf	___flmul@b+2
  3433     0CF4  0856               	movf	??_scale+2,w
  3434     0CF5  00B7               	movwf	___flmul@b+1
  3435     0CF6  0855               	movf	??_scale+1,w
  3436     0CF7  00B6               	movwf	___flmul@b
  3437     0CF8  3064               	movlw	100
  3438     0CF9  00AD               	movwf	___awdiv@divisor
  3439     0CFA  3000               	movlw	0
  3440     0CFB  00AE               	movwf	___awdiv@divisor+1
  3441     0CFC  0862               	movf	scale@scl,w
  3442     0CFD  00AF               	movwf	___awdiv@dividend
  3443     0CFE  01B0               	clrf	___awdiv@dividend+1
  3444     0CFF  1BAF               	btfsc	___awdiv@dividend,7
  3445     0D00  03B0               	decf	___awdiv@dividend+1,f
  3446     0D01  160A  158A  2584  120A  158A  	fcall	___awdiv
  3447     0D06  1283               	bcf	3,5	;RP0=0, select bank0
  3448     0D07  1303               	bcf	3,6	;RP1=0, select bank0
  3449     0D08  082D               	movf	?___awdiv,w
  3450     0D09  00D9               	movwf	??_scale+5
  3451     0D0A  3001               	movlw	1
  3452     0D0B                     u4475:
  3453     0D0B  1003               	clrc
  3454     0D0C  0DD9               	rlf	??_scale+5,f
  3455     0D0D  3EFF               	addlw	-1
  3456     0D0E  1D03               	skipz
  3457     0D0F  2D0B               	goto	u4475
  3458     0D10  1003               	clrc
  3459     0D11  0D59               	rlf	??_scale+5,w
  3460     0D12  3E7D               	addlw	low (((__npowers_-__stringbase)| (0+32768)+72))
  3461     0D13  0084               	movwf	4
  3462     0D14  160A  158A  2000  120A  158A  	fcall	stringdir
  3463     0D19  00DA               	movwf	??_scale+6
  3464     0D1A  160A  158A  2000  120A  158A  	fcall	stringdir
  3465     0D1F  00DB               	movwf	??_scale+7
  3466     0D20  160A  158A  2000  120A  158A  	fcall	stringdir
  3467     0D25  00DC               	movwf	??_scale+8
  3468     0D26  160A  158A  2000  120A  158A  	fcall	stringdir
  3469     0D2B  00DD               	movwf	??_scale+9
  3470     0D2C  085D               	movf	??_scale+9,w
  3471     0D2D  00BD               	movwf	___flmul@a+3
  3472     0D2E  085C               	movf	??_scale+8,w
  3473     0D2F  00BC               	movwf	___flmul@a+2
  3474     0D30  085B               	movf	??_scale+7,w
  3475     0D31  00BB               	movwf	___flmul@a+1
  3476     0D32  085A               	movf	??_scale+6,w
  3477     0D33  00BA               	movwf	___flmul@a
  3478     0D34  120A  158A  2158  120A  158A  	fcall	___flmul
  3479     0D39  1283               	bcf	3,5	;RP0=0, select bank0
  3480     0D3A  1303               	bcf	3,6	;RP1=0, select bank0
  3481     0D3B  0839               	movf	?___flmul+3,w
  3482     0D3C  00E1               	movwf	_scale$1037+3
  3483     0D3D  0838               	movf	?___flmul+2,w
  3484     0D3E  00E0               	movwf	_scale$1037+2
  3485     0D3F  0837               	movf	?___flmul+1,w
  3486     0D40  00DF               	movwf	_scale$1037+1
  3487     0D41  0836               	movf	?___flmul,w
  3488     0D42  00DE               	movwf	_scale$1037
  3489                           
  3490                           ;C:\Program Files\Microchip\xc8\v2.40\pic\sources\c90\common\doprnt.c: 439:    return _n
      +                          powers_[(unsigned char)(scl/100+18)] * _npowers_[(unsigned char)((scl%100)/10+9)] * _npo
      +                          wers_[(unsigned char)(scl%10)];
  3491     0D43  300A               	movlw	10
  3492     0D44  00A6               	movwf	___awmod@divisor
  3493     0D45  3000               	movlw	0
  3494     0D46  00A7               	movwf	___awmod@divisor+1
  3495     0D47  0862               	movf	scale@scl,w
  3496     0D48  00A8               	movwf	___awmod@dividend
  3497     0D49  01A9               	clrf	___awmod@dividend+1
  3498     0D4A  1BA8               	btfsc	___awmod@dividend,7
  3499     0D4B  03A9               	decf	___awmod@dividend+1,f
  3500     0D4C  160A  158A  23F5  120A  158A  	fcall	___awmod
  3501     0D51  1283               	bcf	3,5	;RP0=0, select bank0
  3502     0D52  1303               	bcf	3,6	;RP1=0, select bank0
  3503     0D53  0826               	movf	?___awmod,w
  3504     0D54  00D4               	movwf	??_scale
  3505     0D55  3001               	movlw	1
  3506     0D56                     u4485:
  3507     0D56  1003               	clrc
  3508     0D57  0DD4               	rlf	??_scale,f
  3509     0D58  3EFF               	addlw	-1
  3510     0D59  1D03               	skipz
  3511     0D5A  2D56               	goto	u4485
  3512     0D5B  1003               	clrc
  3513     0D5C  0D54               	rlf	??_scale,w
  3514     0D5D  3E35               	addlw	low ((__npowers_-__stringbase)| (0+32768))
  3515     0D5E  0084               	movwf	4
  3516     0D5F  160A  158A  2000  120A  158A  	fcall	stringdir
  3517     0D64  00D5               	movwf	??_scale+1
  3518     0D65  160A  158A  2000  120A  158A  	fcall	stringdir
  3519     0D6A  00D6               	movwf	??_scale+2
  3520     0D6B  160A  158A  2000  120A  158A  	fcall	stringdir
  3521     0D70  00D7               	movwf	??_scale+3
  3522     0D71  160A  158A  2000  120A  158A  	fcall	stringdir
  3523     0D76  00D8               	movwf	??_scale+4
  3524     0D77  0858               	movf	??_scale+4,w
  3525     0D78  00B9               	movwf	___flmul@b+3
  3526     0D79  0857               	movf	??_scale+3,w
  3527     0D7A  00B8               	movwf	___flmul@b+2
  3528     0D7B  0856               	movf	??_scale+2,w
  3529     0D7C  00B7               	movwf	___flmul@b+1
  3530     0D7D  0855               	movf	??_scale+1,w
  3531     0D7E  00B6               	movwf	___flmul@b
  3532     0D7F  0861               	movf	_scale$1037+3,w
  3533     0D80  00BD               	movwf	___flmul@a+3
  3534     0D81  0860               	movf	_scale$1037+2,w
  3535     0D82  00BC               	movwf	___flmul@a+2
  3536     0D83  085F               	movf	_scale$1037+1,w
  3537     0D84  00BB               	movwf	___flmul@a+1
  3538     0D85  085E               	movf	_scale$1037,w
  3539     0D86  00BA               	movwf	___flmul@a
  3540     0D87  120A  158A  2158  120A  158A  	fcall	___flmul
  3541     0D8C  1283               	bcf	3,5	;RP0=0, select bank0
  3542     0D8D  1303               	bcf	3,6	;RP1=0, select bank0
  3543     0D8E  0839               	movf	?___flmul+3,w
  3544     0D8F  00D3               	movwf	?_scale+3
  3545     0D90  0838               	movf	?___flmul+2,w
  3546     0D91  00D2               	movwf	?_scale+2
  3547     0D92  0837               	movf	?___flmul+1,w
  3548     0D93  00D1               	movwf	?_scale+1
  3549     0D94  0836               	movf	?___flmul,w
  3550     0D95  00D0               	movwf	?_scale
  3551     0D96  2FFF               	goto	l239
  3552     0D97                     l2819:
  3553     0D97  0862               	movf	scale@scl,w
  3554     0D98  3A80               	xorlw	128
  3555     0D99  3E75               	addlw	-139
  3556     0D9A  1C03               	skipc
  3557     0D9B  2D9D               	goto	u4491
  3558     0D9C  2D9E               	goto	u4490
  3559     0D9D                     u4491:
  3560     0D9D  2E26               	goto	l2825
  3561     0D9E                     u4490:
  3562     0D9E                     l2821:
  3563                           
  3564                           ;C:\Program Files\Microchip\xc8\v2.40\pic\sources\c90\common\doprnt.c: 441:    return _n
      +                          powers_[(unsigned char)(scl/10+9)] * _npowers_[(unsigned char)(scl%10)];
  3565     0D9E  300A               	movlw	10
  3566     0D9F  00A6               	movwf	___awmod@divisor
  3567     0DA0  3000               	movlw	0
  3568     0DA1  00A7               	movwf	___awmod@divisor+1
  3569     0DA2  0862               	movf	scale@scl,w
  3570     0DA3  00A8               	movwf	___awmod@dividend
  3571     0DA4  01A9               	clrf	___awmod@dividend+1
  3572     0DA5  1BA8               	btfsc	___awmod@dividend,7
  3573     0DA6  03A9               	decf	___awmod@dividend+1,f
  3574     0DA7  160A  158A  23F5  120A  158A  	fcall	___awmod
  3575     0DAC  1283               	bcf	3,5	;RP0=0, select bank0
  3576     0DAD  1303               	bcf	3,6	;RP1=0, select bank0
  3577     0DAE  0826               	movf	?___awmod,w
  3578     0DAF  00D4               	movwf	??_scale
  3579     0DB0  3001               	movlw	1
  3580     0DB1                     u4505:
  3581     0DB1  1003               	clrc
  3582     0DB2  0DD4               	rlf	??_scale,f
  3583     0DB3  3EFF               	addlw	-1
  3584     0DB4  1D03               	skipz
  3585     0DB5  2DB1               	goto	u4505
  3586     0DB6  1003               	clrc
  3587     0DB7  0D54               	rlf	??_scale,w
  3588     0DB8  3E35               	addlw	low ((__npowers_-__stringbase)| (0+32768))
  3589     0DB9  0084               	movwf	4
  3590     0DBA  160A  158A  2000  120A  158A  	fcall	stringdir
  3591     0DBF  00D5               	movwf	??_scale+1
  3592     0DC0  160A  158A  2000  120A  158A  	fcall	stringdir
  3593     0DC5  00D6               	movwf	??_scale+2
  3594     0DC6  160A  158A  2000  120A  158A  	fcall	stringdir
  3595     0DCB  00D7               	movwf	??_scale+3
  3596     0DCC  160A  158A  2000  120A  158A  	fcall	stringdir
  3597     0DD1  00D8               	movwf	??_scale+4
  3598     0DD2  0858               	movf	??_scale+4,w
  3599     0DD3  00B9               	movwf	___flmul@b+3
  3600     0DD4  0857               	movf	??_scale+3,w
  3601     0DD5  00B8               	movwf	___flmul@b+2
  3602     0DD6  0856               	movf	??_scale+2,w
  3603     0DD7  00B7               	movwf	___flmul@b+1
  3604     0DD8  0855               	movf	??_scale+1,w
  3605     0DD9  00B6               	movwf	___flmul@b
  3606     0DDA  300A               	movlw	10
  3607     0DDB  00AD               	movwf	___awdiv@divisor
  3608     0DDC  3000               	movlw	0
  3609     0DDD  00AE               	movwf	___awdiv@divisor+1
  3610     0DDE  0862               	movf	scale@scl,w
  3611     0DDF  00AF               	movwf	___awdiv@dividend
  3612     0DE0  01B0               	clrf	___awdiv@dividend+1
  3613     0DE1  1BAF               	btfsc	___awdiv@dividend,7
  3614     0DE2  03B0               	decf	___awdiv@dividend+1,f
  3615     0DE3  160A  158A  2584  120A  158A  	fcall	___awdiv
  3616     0DE8  1283               	bcf	3,5	;RP0=0, select bank0
  3617     0DE9  1303               	bcf	3,6	;RP1=0, select bank0
  3618     0DEA  082D               	movf	?___awdiv,w
  3619     0DEB  00D9               	movwf	??_scale+5
  3620     0DEC  3001               	movlw	1
  3621     0DED                     u4515:
  3622     0DED  1003               	clrc
  3623     0DEE  0DD9               	rlf	??_scale+5,f
  3624     0DEF  3EFF               	addlw	-1
  3625     0DF0  1D03               	skipz
  3626     0DF1  2DED               	goto	u4515
  3627     0DF2  1003               	clrc
  3628     0DF3  0D59               	rlf	??_scale+5,w
  3629     0DF4  3E59               	addlw	low (((__npowers_-__stringbase)| (0+32768)+36))
  3630     0DF5  0084               	movwf	4
  3631     0DF6  160A  158A  2000  120A  158A  	fcall	stringdir
  3632     0DFB  00DA               	movwf	??_scale+6
  3633     0DFC  160A  158A  2000  120A  158A  	fcall	stringdir
  3634     0E01  00DB               	movwf	??_scale+7
  3635     0E02  160A  158A  2000  120A  158A  	fcall	stringdir
  3636     0E07  00DC               	movwf	??_scale+8
  3637     0E08  160A  158A  2000  120A  158A  	fcall	stringdir
  3638     0E0D  00DD               	movwf	??_scale+9
  3639     0E0E  085D               	movf	??_scale+9,w
  3640     0E0F  00BD               	movwf	___flmul@a+3
  3641     0E10  085C               	movf	??_scale+8,w
  3642     0E11  00BC               	movwf	___flmul@a+2
  3643     0E12  085B               	movf	??_scale+7,w
  3644     0E13  00BB               	movwf	___flmul@a+1
  3645     0E14  085A               	movf	??_scale+6,w
  3646     0E15  00BA               	movwf	___flmul@a
  3647     0E16  120A  158A  2158  120A  158A  	fcall	___flmul
  3648     0E1B  1283               	bcf	3,5	;RP0=0, select bank0
  3649     0E1C  1303               	bcf	3,6	;RP1=0, select bank0
  3650     0E1D  0839               	movf	?___flmul+3,w
  3651     0E1E  00D3               	movwf	?_scale+3
  3652     0E1F  0838               	movf	?___flmul+2,w
  3653     0E20  00D2               	movwf	?_scale+2
  3654     0E21  0837               	movf	?___flmul+1,w
  3655     0E22  00D1               	movwf	?_scale+1
  3656     0E23  0836               	movf	?___flmul,w
  3657     0E24  00D0               	movwf	?_scale
  3658     0E25  2FFF               	goto	l239
  3659     0E26                     l2825:
  3660                           
  3661                           ;C:\Program Files\Microchip\xc8\v2.40\pic\sources\c90\common\doprnt.c: 442:   return _np
      +                          owers_[(unsigned char)scl];
  3662     0E26  0862               	movf	scale@scl,w
  3663     0E27  00D4               	movwf	??_scale
  3664     0E28  3001               	movlw	1
  3665     0E29                     u4525:
  3666     0E29  1003               	clrc
  3667     0E2A  0DD4               	rlf	??_scale,f
  3668     0E2B  3EFF               	addlw	-1
  3669     0E2C  1D03               	skipz
  3670     0E2D  2E29               	goto	u4525
  3671     0E2E  1003               	clrc
  3672     0E2F  0D54               	rlf	??_scale,w
  3673     0E30  3E35               	addlw	low ((__npowers_-__stringbase)| (0+32768))
  3674     0E31  0084               	movwf	4
  3675     0E32  160A  158A  2000  120A  158A  	fcall	stringdir
  3676     0E37  00D5               	movwf	??_scale+1
  3677     0E38  160A  158A  2000  120A  158A  	fcall	stringdir
  3678     0E3D  00D6               	movwf	??_scale+2
  3679     0E3E  160A  158A  2000  120A  158A  	fcall	stringdir
  3680     0E43  00D7               	movwf	??_scale+3
  3681     0E44  160A  158A  2000  120A  158A  	fcall	stringdir
  3682     0E49  00D8               	movwf	??_scale+4
  3683     0E4A  0858               	movf	??_scale+4,w
  3684     0E4B  00D3               	movwf	?_scale+3
  3685     0E4C  0857               	movf	??_scale+3,w
  3686     0E4D  00D2               	movwf	?_scale+2
  3687     0E4E  0856               	movf	??_scale+2,w
  3688     0E4F  00D1               	movwf	?_scale+1
  3689     0E50  0855               	movf	??_scale+1,w
  3690     0E51  00D0               	movwf	?_scale
  3691     0E52  2FFF               	goto	l239
  3692     0E53                     l2829:
  3693                           
  3694                           ;C:\Program Files\Microchip\xc8\v2.40\pic\sources\c90\common\doprnt.c: 444:  if(scl>=110
      +                          )
  3695     0E53  0862               	movf	scale@scl,w
  3696     0E54  3A80               	xorlw	128
  3697     0E55  3E12               	addlw	-238
  3698     0E56  1C03               	skipc
  3699     0E57  2E59               	goto	u4531
  3700     0E58  2E5A               	goto	u4530
  3701     0E59                     u4531:
  3702     0E59  2F44               	goto	l2837
  3703     0E5A                     u4530:
  3704     0E5A                     l2831:
  3705                           
  3706                           ;C:\Program Files\Microchip\xc8\v2.40\pic\sources\c90\common\doprnt.c: 445:   return _po
      +                          wers_[(unsigned char)(scl/100+18)] * _powers_[(unsigned char)((scl%100)/10+9)] * _powers
      +                          _[(unsigned char)(scl%10)];
  3707     0E5A  300A               	movlw	10
  3708     0E5B  00AD               	movwf	___awdiv@divisor
  3709     0E5C  3000               	movlw	0
  3710     0E5D  00AE               	movwf	___awdiv@divisor+1
  3711     0E5E  0862               	movf	scale@scl,w
  3712     0E5F  00A8               	movwf	___awmod@dividend
  3713     0E60  01A9               	clrf	___awmod@dividend+1
  3714     0E61  1BA8               	btfsc	___awmod@dividend,7
  3715     0E62  03A9               	decf	___awmod@dividend+1,f
  3716     0E63  3064               	movlw	100
  3717     0E64  00A6               	movwf	___awmod@divisor
  3718     0E65  3000               	movlw	0
  3719     0E66  00A7               	movwf	___awmod@divisor+1
  3720     0E67  160A  158A  23F5  120A  158A  	fcall	___awmod
  3721     0E6C  1283               	bcf	3,5	;RP0=0, select bank0
  3722     0E6D  1303               	bcf	3,6	;RP1=0, select bank0
  3723     0E6E  0827               	movf	?___awmod+1,w
  3724     0E6F  00B0               	movwf	___awdiv@dividend+1
  3725     0E70  0826               	movf	?___awmod,w
  3726     0E71  00AF               	movwf	___awdiv@dividend
  3727     0E72  160A  158A  2584  120A  158A  	fcall	___awdiv
  3728     0E77  1283               	bcf	3,5	;RP0=0, select bank0
  3729     0E78  1303               	bcf	3,6	;RP1=0, select bank0
  3730     0E79  082D               	movf	?___awdiv,w
  3731     0E7A  00D4               	movwf	??_scale
  3732     0E7B  3001               	movlw	1
  3733     0E7C                     u4545:
  3734     0E7C  1003               	clrc
  3735     0E7D  0DD4               	rlf	??_scale,f
  3736     0E7E  3EFF               	addlw	-1
  3737     0E7F  1D03               	skipz
  3738     0E80  2E7C               	goto	u4545
  3739     0E81  1003               	clrc
  3740     0E82  0D54               	rlf	??_scale,w
  3741     0E83  3E25               	addlw	low (((__powers_-__stringbase)| (0+32768)+36))
  3742     0E84  0084               	movwf	4
  3743     0E85  160A  158A  2000  120A  158A  	fcall	stringdir
  3744     0E8A  00D5               	movwf	??_scale+1
  3745     0E8B  160A  158A  2000  120A  158A  	fcall	stringdir
  3746     0E90  00D6               	movwf	??_scale+2
  3747     0E91  160A  158A  2000  120A  158A  	fcall	stringdir
  3748     0E96  00D7               	movwf	??_scale+3
  3749     0E97  160A  158A  2000  120A  158A  	fcall	stringdir
  3750     0E9C  00D8               	movwf	??_scale+4
  3751     0E9D  0858               	movf	??_scale+4,w
  3752     0E9E  00B9               	movwf	___flmul@b+3
  3753     0E9F  0857               	movf	??_scale+3,w
  3754     0EA0  00B8               	movwf	___flmul@b+2
  3755     0EA1  0856               	movf	??_scale+2,w
  3756     0EA2  00B7               	movwf	___flmul@b+1
  3757     0EA3  0855               	movf	??_scale+1,w
  3758     0EA4  00B6               	movwf	___flmul@b
  3759     0EA5  3064               	movlw	100
  3760     0EA6  00AD               	movwf	___awdiv@divisor
  3761     0EA7  3000               	movlw	0
  3762     0EA8  00AE               	movwf	___awdiv@divisor+1
  3763     0EA9  0862               	movf	scale@scl,w
  3764     0EAA  00AF               	movwf	___awdiv@dividend
  3765     0EAB  01B0               	clrf	___awdiv@dividend+1
  3766     0EAC  1BAF               	btfsc	___awdiv@dividend,7
  3767     0EAD  03B0               	decf	___awdiv@dividend+1,f
  3768     0EAE  160A  158A  2584  120A  158A  	fcall	___awdiv
  3769     0EB3  1283               	bcf	3,5	;RP0=0, select bank0
  3770     0EB4  1303               	bcf	3,6	;RP1=0, select bank0
  3771     0EB5  082D               	movf	?___awdiv,w
  3772     0EB6  00D9               	movwf	??_scale+5
  3773     0EB7  3001               	movlw	1
  3774     0EB8                     u4555:
  3775     0EB8  1003               	clrc
  3776     0EB9  0DD9               	rlf	??_scale+5,f
  3777     0EBA  3EFF               	addlw	-1
  3778     0EBB  1D03               	skipz
  3779     0EBC  2EB8               	goto	u4555
  3780     0EBD  1003               	clrc
  3781     0EBE  0D59               	rlf	??_scale+5,w
  3782     0EBF  3E49               	addlw	low (((__powers_-__stringbase)| (0+32768)+72))
  3783     0EC0  0084               	movwf	4
  3784     0EC1  160A  158A  2000  120A  158A  	fcall	stringdir
  3785     0EC6  00DA               	movwf	??_scale+6
  3786     0EC7  160A  158A  2000  120A  158A  	fcall	stringdir
  3787     0ECC  00DB               	movwf	??_scale+7
  3788     0ECD  160A  158A  2000  120A  158A  	fcall	stringdir
  3789     0ED2  00DC               	movwf	??_scale+8
  3790     0ED3  160A  158A  2000  120A  158A  	fcall	stringdir
  3791     0ED8  00DD               	movwf	??_scale+9
  3792     0ED9  085D               	movf	??_scale+9,w
  3793     0EDA  00BD               	movwf	___flmul@a+3
  3794     0EDB  085C               	movf	??_scale+8,w
  3795     0EDC  00BC               	movwf	___flmul@a+2
  3796     0EDD  085B               	movf	??_scale+7,w
  3797     0EDE  00BB               	movwf	___flmul@a+1
  3798     0EDF  085A               	movf	??_scale+6,w
  3799     0EE0  00BA               	movwf	___flmul@a
  3800     0EE1  120A  158A  2158  120A  158A  	fcall	___flmul
  3801     0EE6  1283               	bcf	3,5	;RP0=0, select bank0
  3802     0EE7  1303               	bcf	3,6	;RP1=0, select bank0
  3803     0EE8  0839               	movf	?___flmul+3,w
  3804     0EE9  00E1               	movwf	_scale$1037+3
  3805     0EEA  0838               	movf	?___flmul+2,w
  3806     0EEB  00E0               	movwf	_scale$1037+2
  3807     0EEC  0837               	movf	?___flmul+1,w
  3808     0EED  00DF               	movwf	_scale$1037+1
  3809     0EEE  0836               	movf	?___flmul,w
  3810     0EEF  00DE               	movwf	_scale$1037
  3811                           
  3812                           ;C:\Program Files\Microchip\xc8\v2.40\pic\sources\c90\common\doprnt.c: 445:   return _po
      +                          wers_[(unsigned char)(scl/100+18)] * _powers_[(unsigned char)((scl%100)/10+9)] * _powers
      +                          _[(unsigned char)(scl%10)];
  3813     0EF0  300A               	movlw	10
  3814     0EF1  00A6               	movwf	___awmod@divisor
  3815     0EF2  3000               	movlw	0
  3816     0EF3  00A7               	movwf	___awmod@divisor+1
  3817     0EF4  0862               	movf	scale@scl,w
  3818     0EF5  00A8               	movwf	___awmod@dividend
  3819     0EF6  01A9               	clrf	___awmod@dividend+1
  3820     0EF7  1BA8               	btfsc	___awmod@dividend,7
  3821     0EF8  03A9               	decf	___awmod@dividend+1,f
  3822     0EF9  160A  158A  23F5  120A  158A  	fcall	___awmod
  3823     0EFE  1283               	bcf	3,5	;RP0=0, select bank0
  3824     0EFF  1303               	bcf	3,6	;RP1=0, select bank0
  3825     0F00  0826               	movf	?___awmod,w
  3826     0F01  00D4               	movwf	??_scale
  3827     0F02  3001               	movlw	1
  3828     0F03                     u4565:
  3829     0F03  1003               	clrc
  3830     0F04  0DD4               	rlf	??_scale,f
  3831     0F05  3EFF               	addlw	-1
  3832     0F06  1D03               	skipz
  3833     0F07  2F03               	goto	u4565
  3834     0F08  1003               	clrc
  3835     0F09  0D54               	rlf	??_scale,w
  3836     0F0A  3E01               	addlw	low ((__powers_-__stringbase)| (0+32768))
  3837     0F0B  0084               	movwf	4
  3838     0F0C  160A  158A  2000  120A  158A  	fcall	stringdir
  3839     0F11  00D5               	movwf	??_scale+1
  3840     0F12  160A  158A  2000  120A  158A  	fcall	stringdir
  3841     0F17  00D6               	movwf	??_scale+2
  3842     0F18  160A  158A  2000  120A  158A  	fcall	stringdir
  3843     0F1D  00D7               	movwf	??_scale+3
  3844     0F1E  160A  158A  2000  120A  158A  	fcall	stringdir
  3845     0F23  00D8               	movwf	??_scale+4
  3846     0F24  0858               	movf	??_scale+4,w
  3847     0F25  00B9               	movwf	___flmul@b+3
  3848     0F26  0857               	movf	??_scale+3,w
  3849     0F27  00B8               	movwf	___flmul@b+2
  3850     0F28  0856               	movf	??_scale+2,w
  3851     0F29  00B7               	movwf	___flmul@b+1
  3852     0F2A  0855               	movf	??_scale+1,w
  3853     0F2B  00B6               	movwf	___flmul@b
  3854     0F2C  0861               	movf	_scale$1037+3,w
  3855     0F2D  00BD               	movwf	___flmul@a+3
  3856     0F2E  0860               	movf	_scale$1037+2,w
  3857     0F2F  00BC               	movwf	___flmul@a+2
  3858     0F30  085F               	movf	_scale$1037+1,w
  3859     0F31  00BB               	movwf	___flmul@a+1
  3860     0F32  085E               	movf	_scale$1037,w
  3861     0F33  00BA               	movwf	___flmul@a
  3862     0F34  120A  158A  2158  120A  158A  	fcall	___flmul
  3863     0F39  1283               	bcf	3,5	;RP0=0, select bank0
  3864     0F3A  1303               	bcf	3,6	;RP1=0, select bank0
  3865     0F3B  0839               	movf	?___flmul+3,w
  3866     0F3C  00D3               	movwf	?_scale+3
  3867     0F3D  0838               	movf	?___flmul+2,w
  3868     0F3E  00D2               	movwf	?_scale+2
  3869     0F3F  0837               	movf	?___flmul+1,w
  3870     0F40  00D1               	movwf	?_scale+1
  3871     0F41  0836               	movf	?___flmul,w
  3872     0F42  00D0               	movwf	?_scale
  3873     0F43  2FFF               	goto	l239
  3874     0F44                     l2837:
  3875     0F44  0862               	movf	scale@scl,w
  3876     0F45  3A80               	xorlw	128
  3877     0F46  3E75               	addlw	-139
  3878     0F47  1C03               	skipc
  3879     0F48  2F4A               	goto	u4571
  3880     0F49  2F4B               	goto	u4570
  3881     0F4A                     u4571:
  3882     0F4A  2FD3               	goto	l2843
  3883     0F4B                     u4570:
  3884     0F4B                     l2839:
  3885                           
  3886                           ;C:\Program Files\Microchip\xc8\v2.40\pic\sources\c90\common\doprnt.c: 447:   return _po
      +                          wers_[(unsigned char)(scl/10+9)] * _powers_[(unsigned char)(scl%10)];
  3887     0F4B  300A               	movlw	10
  3888     0F4C  00A6               	movwf	___awmod@divisor
  3889     0F4D  3000               	movlw	0
  3890     0F4E  00A7               	movwf	___awmod@divisor+1
  3891     0F4F  0862               	movf	scale@scl,w
  3892     0F50  00A8               	movwf	___awmod@dividend
  3893     0F51  01A9               	clrf	___awmod@dividend+1
  3894     0F52  1BA8               	btfsc	___awmod@dividend,7
  3895     0F53  03A9               	decf	___awmod@dividend+1,f
  3896     0F54  160A  158A  23F5  120A  158A  	fcall	___awmod
  3897     0F59  1283               	bcf	3,5	;RP0=0, select bank0
  3898     0F5A  1303               	bcf	3,6	;RP1=0, select bank0
  3899     0F5B  0826               	movf	?___awmod,w
  3900     0F5C  00D4               	movwf	??_scale
  3901     0F5D  3001               	movlw	1
  3902     0F5E                     u4585:
  3903     0F5E  1003               	clrc
  3904     0F5F  0DD4               	rlf	??_scale,f
  3905     0F60  3EFF               	addlw	-1
  3906     0F61  1D03               	skipz
  3907     0F62  2F5E               	goto	u4585
  3908     0F63  1003               	clrc
  3909     0F64  0D54               	rlf	??_scale,w
  3910     0F65  3E01               	addlw	low ((__powers_-__stringbase)| (0+32768))
  3911     0F66  0084               	movwf	4
  3912     0F67  160A  158A  2000  120A  158A  	fcall	stringdir
  3913     0F6C  00D5               	movwf	??_scale+1
  3914     0F6D  160A  158A  2000  120A  158A  	fcall	stringdir
  3915     0F72  00D6               	movwf	??_scale+2
  3916     0F73  160A  158A  2000  120A  158A  	fcall	stringdir
  3917     0F78  00D7               	movwf	??_scale+3
  3918     0F79  160A  158A  2000  120A  158A  	fcall	stringdir
  3919     0F7E  00D8               	movwf	??_scale+4
  3920     0F7F  0858               	movf	??_scale+4,w
  3921     0F80  00B9               	movwf	___flmul@b+3
  3922     0F81  0857               	movf	??_scale+3,w
  3923     0F82  00B8               	movwf	___flmul@b+2
  3924     0F83  0856               	movf	??_scale+2,w
  3925     0F84  00B7               	movwf	___flmul@b+1
  3926     0F85  0855               	movf	??_scale+1,w
  3927     0F86  00B6               	movwf	___flmul@b
  3928     0F87  300A               	movlw	10
  3929     0F88  00AD               	movwf	___awdiv@divisor
  3930     0F89  3000               	movlw	0
  3931     0F8A  00AE               	movwf	___awdiv@divisor+1
  3932     0F8B  0862               	movf	scale@scl,w
  3933     0F8C  00AF               	movwf	___awdiv@dividend
  3934     0F8D  01B0               	clrf	___awdiv@dividend+1
  3935     0F8E  1BAF               	btfsc	___awdiv@dividend,7
  3936     0F8F  03B0               	decf	___awdiv@dividend+1,f
  3937     0F90  160A  158A  2584  120A  158A  	fcall	___awdiv
  3938     0F95  1283               	bcf	3,5	;RP0=0, select bank0
  3939     0F96  1303               	bcf	3,6	;RP1=0, select bank0
  3940     0F97  082D               	movf	?___awdiv,w
  3941     0F98  00D9               	movwf	??_scale+5
  3942     0F99  3001               	movlw	1
  3943     0F9A                     u4595:
  3944     0F9A  1003               	clrc
  3945     0F9B  0DD9               	rlf	??_scale+5,f
  3946     0F9C  3EFF               	addlw	-1
  3947     0F9D  1D03               	skipz
  3948     0F9E  2F9A               	goto	u4595
  3949     0F9F  1003               	clrc
  3950     0FA0  0D59               	rlf	??_scale+5,w
  3951     0FA1  3E25               	addlw	low (((__powers_-__stringbase)| (0+32768)+36))
  3952     0FA2  0084               	movwf	4
  3953     0FA3  160A  158A  2000  120A  158A  	fcall	stringdir
  3954     0FA8  00DA               	movwf	??_scale+6
  3955     0FA9  160A  158A  2000  120A  158A  	fcall	stringdir
  3956     0FAE  00DB               	movwf	??_scale+7
  3957     0FAF  160A  158A  2000  120A  158A  	fcall	stringdir
  3958     0FB4  00DC               	movwf	??_scale+8
  3959     0FB5  160A  158A  2000  120A  158A  	fcall	stringdir
  3960     0FBA  00DD               	movwf	??_scale+9
  3961     0FBB  085D               	movf	??_scale+9,w
  3962     0FBC  00BD               	movwf	___flmul@a+3
  3963     0FBD  085C               	movf	??_scale+8,w
  3964     0FBE  00BC               	movwf	___flmul@a+2
  3965     0FBF  085B               	movf	??_scale+7,w
  3966     0FC0  00BB               	movwf	___flmul@a+1
  3967     0FC1  085A               	movf	??_scale+6,w
  3968     0FC2  00BA               	movwf	___flmul@a
  3969     0FC3  120A  158A  2158  120A  158A  	fcall	___flmul
  3970     0FC8  1283               	bcf	3,5	;RP0=0, select bank0
  3971     0FC9  1303               	bcf	3,6	;RP1=0, select bank0
  3972     0FCA  0839               	movf	?___flmul+3,w
  3973     0FCB  00D3               	movwf	?_scale+3
  3974     0FCC  0838               	movf	?___flmul+2,w
  3975     0FCD  00D2               	movwf	?_scale+2
  3976     0FCE  0837               	movf	?___flmul+1,w
  3977     0FCF  00D1               	movwf	?_scale+1
  3978     0FD0  0836               	movf	?___flmul,w
  3979     0FD1  00D0               	movwf	?_scale
  3980     0FD2  2FFF               	goto	l239
  3981     0FD3                     l2843:
  3982                           
  3983                           ;C:\Program Files\Microchip\xc8\v2.40\pic\sources\c90\common\doprnt.c: 448:  return _pow
      +                          ers_[(unsigned char)scl];
  3984     0FD3  0862               	movf	scale@scl,w
  3985     0FD4  00D4               	movwf	??_scale
  3986     0FD5  3001               	movlw	1
  3987     0FD6                     u4605:
  3988     0FD6  1003               	clrc
  3989     0FD7  0DD4               	rlf	??_scale,f
  3990     0FD8  3EFF               	addlw	-1
  3991     0FD9  1D03               	skipz
  3992     0FDA  2FD6               	goto	u4605
  3993     0FDB  1003               	clrc
  3994     0FDC  0D54               	rlf	??_scale,w
  3995     0FDD  3E01               	addlw	low ((__powers_-__stringbase)| (0+32768))
  3996     0FDE  0084               	movwf	4
  3997     0FDF  160A  158A  2000  120A  158A  	fcall	stringdir
  3998     0FE4  00D5               	movwf	??_scale+1
  3999     0FE5  160A  158A  2000  120A  158A  	fcall	stringdir
  4000     0FEA  00D6               	movwf	??_scale+2
  4001     0FEB  160A  158A  2000  120A  158A  	fcall	stringdir
  4002     0FF0  00D7               	movwf	??_scale+3
  4003     0FF1  160A  158A  2000  120A  158A  	fcall	stringdir
  4004     0FF6  00D8               	movwf	??_scale+4
  4005     0FF7  0858               	movf	??_scale+4,w
  4006     0FF8  00D3               	movwf	?_scale+3
  4007     0FF9  0857               	movf	??_scale+3,w
  4008     0FFA  00D2               	movwf	?_scale+2
  4009     0FFB  0856               	movf	??_scale+2,w
  4010     0FFC  00D1               	movwf	?_scale+1
  4011     0FFD  0855               	movf	??_scale+1,w
  4012     0FFE  00D0               	movwf	?_scale
  4013     0FFF                     l239:
  4014     0FFF  0008               	return
  4015     1000                     __end_of_scale:
  4016                           
  4017                           	psect	text3
  4018     1BF5                     __ptext3:	
  4019 ;; *************** function ___awmod *****************
  4020 ;; Defined at:
  4021 ;;		line 5 in file "C:\Program Files\Microchip\xc8\v2.40\pic\sources\c90\common\awmod.c"
  4022 ;; Parameters:    Size  Location     Type
  4023 ;;  divisor         2    6[BANK0 ] int 
  4024 ;;  dividend        2    8[BANK0 ] int 
  4025 ;; Auto vars:     Size  Location     Type
  4026 ;;  sign            1   12[BANK0 ] unsigned char 
  4027 ;;  counter         1   11[BANK0 ] unsigned char 
  4028 ;; Return value:  Size  Location     Type
  4029 ;;                  2    6[BANK0 ] int 
  4030 ;; Registers used:
  4031 ;;		wreg, status,2, status,0
  4032 ;; Tracked objects:
  4033 ;;		On entry : 0/0
  4034 ;;		On exit  : 0/0
  4035 ;;		Unchanged: 0/0
  4036 ;; Data sizes:     COMMON   BANK0   BANK1   BANK3   BANK2
  4037 ;;      Params:         0       4       0       0       0
  4038 ;;      Locals:         0       2       0       0       0
  4039 ;;      Temps:          0       1       0       0       0
  4040 ;;      Totals:         0       7       0       0       0
  4041 ;;Total ram usage:        7 bytes
  4042 ;; Hardware stack levels used: 1
  4043 ;; Hardware stack levels required when called: 2
  4044 ;; This function calls:
  4045 ;;		Nothing
  4046 ;; This function is called by:
  4047 ;;		_scale
  4048 ;; This function uses a non-reentrant model
  4049 ;;
  4050                           
  4051     1BF5                     ___awmod:	
  4052                           ;psect for function ___awmod
  4053                           
  4054     1BF5                     l2369:	
  4055                           ;incstack = 0
  4056                           ; Regs used in ___awmod: [wreg+status,2+status,0]
  4057                           
  4058     1BF5  1283               	bcf	3,5	;RP0=0, select bank0
  4059     1BF6  1303               	bcf	3,6	;RP1=0, select bank0
  4060     1BF7  01AC               	clrf	___awmod@sign
  4061     1BF8                     l2371:
  4062     1BF8  1FA9               	btfss	___awmod@dividend+1,7
  4063     1BF9  2BFB               	goto	u3311
  4064     1BFA  2BFC               	goto	u3310
  4065     1BFB                     u3311:
  4066     1BFB  2C03               	goto	l2377
  4067     1BFC                     u3310:
  4068     1BFC                     l2373:
  4069     1BFC  09A8               	comf	___awmod@dividend,f
  4070     1BFD  09A9               	comf	___awmod@dividend+1,f
  4071     1BFE  0AA8               	incf	___awmod@dividend,f
  4072     1BFF  1903               	skipnz
  4073     1C00  0AA9               	incf	___awmod@dividend+1,f
  4074     1C01                     l2375:
  4075     1C01  01AC               	clrf	___awmod@sign
  4076     1C02  0AAC               	incf	___awmod@sign,f
  4077     1C03                     l2377:
  4078     1C03  1FA7               	btfss	___awmod@divisor+1,7
  4079     1C04  2C06               	goto	u3321
  4080     1C05  2C07               	goto	u3320
  4081     1C06                     u3321:
  4082     1C06  2C0C               	goto	l2381
  4083     1C07                     u3320:
  4084     1C07                     l2379:
  4085     1C07  09A6               	comf	___awmod@divisor,f
  4086     1C08  09A7               	comf	___awmod@divisor+1,f
  4087     1C09  0AA6               	incf	___awmod@divisor,f
  4088     1C0A  1903               	skipnz
  4089     1C0B  0AA7               	incf	___awmod@divisor+1,f
  4090     1C0C                     l2381:
  4091     1C0C  0826               	movf	___awmod@divisor,w
  4092     1C0D  0427               	iorwf	___awmod@divisor+1,w
  4093     1C0E  1903               	btfsc	3,2
  4094     1C0F  2C11               	goto	u3331
  4095     1C10  2C12               	goto	u3330
  4096     1C11                     u3331:
  4097     1C11  2C41               	goto	l2399
  4098     1C12                     u3330:
  4099     1C12                     l2383:
  4100     1C12  01AB               	clrf	___awmod@counter
  4101     1C13  0AAB               	incf	___awmod@counter,f
  4102     1C14  2C20               	goto	l2389
  4103     1C15                     l2385:
  4104     1C15  3001               	movlw	1
  4105     1C16                     u3345:
  4106     1C16  1003               	clrc
  4107     1C17  0DA6               	rlf	___awmod@divisor,f
  4108     1C18  0DA7               	rlf	___awmod@divisor+1,f
  4109     1C19  3EFF               	addlw	-1
  4110     1C1A  1D03               	skipz
  4111     1C1B  2C16               	goto	u3345
  4112     1C1C                     l2387:
  4113     1C1C  3001               	movlw	1
  4114     1C1D  00AA               	movwf	??___awmod
  4115     1C1E  082A               	movf	??___awmod,w
  4116     1C1F  07AB               	addwf	___awmod@counter,f
  4117     1C20                     l2389:
  4118     1C20  1FA7               	btfss	___awmod@divisor+1,7
  4119     1C21  2C23               	goto	u3351
  4120     1C22  2C24               	goto	u3350
  4121     1C23                     u3351:
  4122     1C23  2C15               	goto	l2385
  4123     1C24                     u3350:
  4124     1C24                     l2391:
  4125     1C24  0827               	movf	___awmod@divisor+1,w
  4126     1C25  0229               	subwf	___awmod@dividend+1,w
  4127     1C26  1D03               	skipz
  4128     1C27  2C2A               	goto	u3365
  4129     1C28  0826               	movf	___awmod@divisor,w
  4130     1C29  0228               	subwf	___awmod@dividend,w
  4131     1C2A                     u3365:
  4132     1C2A  1C03               	skipc
  4133     1C2B  2C2D               	goto	u3361
  4134     1C2C  2C2E               	goto	u3360
  4135     1C2D                     u3361:
  4136     1C2D  2C34               	goto	l2395
  4137     1C2E                     u3360:
  4138     1C2E                     l2393:
  4139     1C2E  0826               	movf	___awmod@divisor,w
  4140     1C2F  02A8               	subwf	___awmod@dividend,f
  4141     1C30  0827               	movf	___awmod@divisor+1,w
  4142     1C31  1C03               	skipc
  4143     1C32  03A9               	decf	___awmod@dividend+1,f
  4144     1C33  02A9               	subwf	___awmod@dividend+1,f
  4145     1C34                     l2395:
  4146     1C34  3001               	movlw	1
  4147     1C35                     u3375:
  4148     1C35  1003               	clrc
  4149     1C36  0CA7               	rrf	___awmod@divisor+1,f
  4150     1C37  0CA6               	rrf	___awmod@divisor,f
  4151     1C38  3EFF               	addlw	-1
  4152     1C39  1D03               	skipz
  4153     1C3A  2C35               	goto	u3375
  4154     1C3B                     l2397:
  4155     1C3B  3001               	movlw	1
  4156     1C3C  02AB               	subwf	___awmod@counter,f
  4157     1C3D  1D03               	btfss	3,2
  4158     1C3E  2C40               	goto	u3381
  4159     1C3F  2C41               	goto	u3380
  4160     1C40                     u3381:
  4161     1C40  2C24               	goto	l2391
  4162     1C41                     u3380:
  4163     1C41                     l2399:
  4164     1C41  082C               	movf	___awmod@sign,w
  4165     1C42  1903               	btfsc	3,2
  4166     1C43  2C45               	goto	u3391
  4167     1C44  2C46               	goto	u3390
  4168     1C45                     u3391:
  4169     1C45  2C4B               	goto	l2403
  4170     1C46                     u3390:
  4171     1C46                     l2401:
  4172     1C46  09A8               	comf	___awmod@dividend,f
  4173     1C47  09A9               	comf	___awmod@dividend+1,f
  4174     1C48  0AA8               	incf	___awmod@dividend,f
  4175     1C49  1903               	skipnz
  4176     1C4A  0AA9               	incf	___awmod@dividend+1,f
  4177     1C4B                     l2403:
  4178     1C4B  0829               	movf	___awmod@dividend+1,w
  4179     1C4C  00A7               	movwf	?___awmod+1
  4180     1C4D  0828               	movf	___awmod@dividend,w
  4181     1C4E  00A6               	movwf	?___awmod
  4182     1C4F                     l465:
  4183     1C4F  0008               	return
  4184     1C50                     __end_of___awmod:
  4185                           
  4186                           	psect	text4
  4187     1D84                     __ptext4:	
  4188 ;; *************** function ___awdiv *****************
  4189 ;; Defined at:
  4190 ;;		line 5 in file "C:\Program Files\Microchip\xc8\v2.40\pic\sources\c90\common\awdiv.c"
  4191 ;; Parameters:    Size  Location     Type
  4192 ;;  divisor         2   13[BANK0 ] int 
  4193 ;;  dividend        2   15[BANK0 ] int 
  4194 ;; Auto vars:     Size  Location     Type
  4195 ;;  quotient        2   20[BANK0 ] int 
  4196 ;;  sign            1   19[BANK0 ] unsigned char 
  4197 ;;  counter         1   18[BANK0 ] unsigned char 
  4198 ;; Return value:  Size  Location     Type
  4199 ;;                  2   13[BANK0 ] int 
  4200 ;; Registers used:
  4201 ;;		wreg, status,2, status,0
  4202 ;; Tracked objects:
  4203 ;;		On entry : 0/0
  4204 ;;		On exit  : 0/0
  4205 ;;		Unchanged: 0/0
  4206 ;; Data sizes:     COMMON   BANK0   BANK1   BANK3   BANK2
  4207 ;;      Params:         0       4       0       0       0
  4208 ;;      Locals:         0       4       0       0       0
  4209 ;;      Temps:          0       1       0       0       0
  4210 ;;      Totals:         0       9       0       0       0
  4211 ;;Total ram usage:        9 bytes
  4212 ;; Hardware stack levels used: 1
  4213 ;; Hardware stack levels required when called: 2
  4214 ;; This function calls:
  4215 ;;		Nothing
  4216 ;; This function is called by:
  4217 ;;		_scale
  4218 ;;		_sprintf
  4219 ;; This function uses a non-reentrant model
  4220 ;;
  4221                           
  4222     1D84                     ___awdiv:	
  4223                           ;psect for function ___awdiv
  4224                           
  4225     1D84                     l2325:	
  4226                           ;incstack = 0
  4227                           ; Regs used in ___awdiv: [wreg+status,2+status,0]
  4228                           
  4229     1D84  1283               	bcf	3,5	;RP0=0, select bank0
  4230     1D85  1303               	bcf	3,6	;RP1=0, select bank0
  4231     1D86  01B3               	clrf	___awdiv@sign
  4232     1D87                     l2327:
  4233     1D87  1FAE               	btfss	___awdiv@divisor+1,7
  4234     1D88  2D8A               	goto	u3211
  4235     1D89  2D8B               	goto	u3210
  4236     1D8A                     u3211:
  4237     1D8A  2D92               	goto	l2333
  4238     1D8B                     u3210:
  4239     1D8B                     l2329:
  4240     1D8B  09AD               	comf	___awdiv@divisor,f
  4241     1D8C  09AE               	comf	___awdiv@divisor+1,f
  4242     1D8D  0AAD               	incf	___awdiv@divisor,f
  4243     1D8E  1903               	skipnz
  4244     1D8F  0AAE               	incf	___awdiv@divisor+1,f
  4245     1D90                     l2331:
  4246     1D90  01B3               	clrf	___awdiv@sign
  4247     1D91  0AB3               	incf	___awdiv@sign,f
  4248     1D92                     l2333:
  4249     1D92  1FB0               	btfss	___awdiv@dividend+1,7
  4250     1D93  2D95               	goto	u3221
  4251     1D94  2D96               	goto	u3220
  4252     1D95                     u3221:
  4253     1D95  2D9F               	goto	l2339
  4254     1D96                     u3220:
  4255     1D96                     l2335:
  4256     1D96  09AF               	comf	___awdiv@dividend,f
  4257     1D97  09B0               	comf	___awdiv@dividend+1,f
  4258     1D98  0AAF               	incf	___awdiv@dividend,f
  4259     1D99  1903               	skipnz
  4260     1D9A  0AB0               	incf	___awdiv@dividend+1,f
  4261     1D9B                     l2337:
  4262     1D9B  3001               	movlw	1
  4263     1D9C  00B1               	movwf	??___awdiv
  4264     1D9D  0831               	movf	??___awdiv,w
  4265     1D9E  06B3               	xorwf	___awdiv@sign,f
  4266     1D9F                     l2339:
  4267     1D9F  01B4               	clrf	___awdiv@quotient
  4268     1DA0  01B5               	clrf	___awdiv@quotient+1
  4269     1DA1                     l2341:
  4270     1DA1  082D               	movf	___awdiv@divisor,w
  4271     1DA2  042E               	iorwf	___awdiv@divisor+1,w
  4272     1DA3  1903               	btfsc	3,2
  4273     1DA4  2DA6               	goto	u3231
  4274     1DA5  2DA7               	goto	u3230
  4275     1DA6                     u3231:
  4276     1DA6  2DDE               	goto	l2361
  4277     1DA7                     u3230:
  4278     1DA7                     l2343:
  4279     1DA7  01B2               	clrf	___awdiv@counter
  4280     1DA8  0AB2               	incf	___awdiv@counter,f
  4281     1DA9  2DB5               	goto	l2349
  4282     1DAA                     l2345:
  4283     1DAA  3001               	movlw	1
  4284     1DAB                     u3245:
  4285     1DAB  1003               	clrc
  4286     1DAC  0DAD               	rlf	___awdiv@divisor,f
  4287     1DAD  0DAE               	rlf	___awdiv@divisor+1,f
  4288     1DAE  3EFF               	addlw	-1
  4289     1DAF  1D03               	skipz
  4290     1DB0  2DAB               	goto	u3245
  4291     1DB1                     l2347:
  4292     1DB1  3001               	movlw	1
  4293     1DB2  00B1               	movwf	??___awdiv
  4294     1DB3  0831               	movf	??___awdiv,w
  4295     1DB4  07B2               	addwf	___awdiv@counter,f
  4296     1DB5                     l2349:
  4297     1DB5  1FAE               	btfss	___awdiv@divisor+1,7
  4298     1DB6  2DB8               	goto	u3251
  4299     1DB7  2DB9               	goto	u3250
  4300     1DB8                     u3251:
  4301     1DB8  2DAA               	goto	l2345
  4302     1DB9                     u3250:
  4303     1DB9                     l2351:
  4304     1DB9  3001               	movlw	1
  4305     1DBA                     u3265:
  4306     1DBA  1003               	clrc
  4307     1DBB  0DB4               	rlf	___awdiv@quotient,f
  4308     1DBC  0DB5               	rlf	___awdiv@quotient+1,f
  4309     1DBD  3EFF               	addlw	-1
  4310     1DBE  1D03               	skipz
  4311     1DBF  2DBA               	goto	u3265
  4312     1DC0  082E               	movf	___awdiv@divisor+1,w
  4313     1DC1  0230               	subwf	___awdiv@dividend+1,w
  4314     1DC2  1D03               	skipz
  4315     1DC3  2DC6               	goto	u3275
  4316     1DC4  082D               	movf	___awdiv@divisor,w
  4317     1DC5  022F               	subwf	___awdiv@dividend,w
  4318     1DC6                     u3275:
  4319     1DC6  1C03               	skipc
  4320     1DC7  2DC9               	goto	u3271
  4321     1DC8  2DCA               	goto	u3270
  4322     1DC9                     u3271:
  4323     1DC9  2DD1               	goto	l2357
  4324     1DCA                     u3270:
  4325     1DCA                     l2353:
  4326     1DCA  082D               	movf	___awdiv@divisor,w
  4327     1DCB  02AF               	subwf	___awdiv@dividend,f
  4328     1DCC  082E               	movf	___awdiv@divisor+1,w
  4329     1DCD  1C03               	skipc
  4330     1DCE  03B0               	decf	___awdiv@dividend+1,f
  4331     1DCF  02B0               	subwf	___awdiv@dividend+1,f
  4332     1DD0                     l2355:
  4333     1DD0  1434               	bsf	___awdiv@quotient,0
  4334     1DD1                     l2357:
  4335     1DD1  3001               	movlw	1
  4336     1DD2                     u3285:
  4337     1DD2  1003               	clrc
  4338     1DD3  0CAE               	rrf	___awdiv@divisor+1,f
  4339     1DD4  0CAD               	rrf	___awdiv@divisor,f
  4340     1DD5  3EFF               	addlw	-1
  4341     1DD6  1D03               	skipz
  4342     1DD7  2DD2               	goto	u3285
  4343     1DD8                     l2359:
  4344     1DD8  3001               	movlw	1
  4345     1DD9  02B2               	subwf	___awdiv@counter,f
  4346     1DDA  1D03               	btfss	3,2
  4347     1DDB  2DDD               	goto	u3291
  4348     1DDC  2DDE               	goto	u3290
  4349     1DDD                     u3291:
  4350     1DDD  2DB9               	goto	l2351
  4351     1DDE                     u3290:
  4352     1DDE                     l2361:
  4353     1DDE  0833               	movf	___awdiv@sign,w
  4354     1DDF  1903               	btfsc	3,2
  4355     1DE0  2DE2               	goto	u3301
  4356     1DE1  2DE3               	goto	u3300
  4357     1DE2                     u3301:
  4358     1DE2  2DE8               	goto	l2365
  4359     1DE3                     u3300:
  4360     1DE3                     l2363:
  4361     1DE3  09B4               	comf	___awdiv@quotient,f
  4362     1DE4  09B5               	comf	___awdiv@quotient+1,f
  4363     1DE5  0AB4               	incf	___awdiv@quotient,f
  4364     1DE6  1903               	skipnz
  4365     1DE7  0AB5               	incf	___awdiv@quotient+1,f
  4366     1DE8                     l2365:
  4367     1DE8  0835               	movf	___awdiv@quotient+1,w
  4368     1DE9  00AE               	movwf	?___awdiv+1
  4369     1DEA  0834               	movf	___awdiv@quotient,w
  4370     1DEB  00AD               	movwf	?___awdiv
  4371     1DEC                     l452:
  4372     1DEC  0008               	return
  4373     1DED                     __end_of___awdiv:
  4374                           
  4375                           	psect	text5
  4376     1109                     __ptext5:	
  4377 ;; *************** function _fround *****************
  4378 ;; Defined at:
  4379 ;;		line 417 in file "C:\Program Files\Microchip\xc8\v2.40\pic\sources\c90\common\doprnt.c"
  4380 ;; Parameters:    Size  Location     Type
  4381 ;;  prec            1    wreg     unsigned char 
  4382 ;; Auto vars:     Size  Location     Type
  4383 ;;  prec            1   67[BANK0 ] unsigned char 
  4384 ;; Return value:  Size  Location     Type
  4385 ;;                  4   48[BANK0 ] unsigned char 
  4386 ;; Registers used:
  4387 ;;		wreg, fsr0l, fsr0h, status,2, status,0, btemp+1, pclath, cstack
  4388 ;; Tracked objects:
  4389 ;;		On entry : 0/0
  4390 ;;		On exit  : 0/0
  4391 ;;		Unchanged: 0/0
  4392 ;; Data sizes:     COMMON   BANK0   BANK1   BANK3   BANK2
  4393 ;;      Params:         0       4       0       0       0
  4394 ;;      Locals:         0       9       0       0       0
  4395 ;;      Temps:          0       7       0       0       0
  4396 ;;      Totals:         0      20       0       0       0
  4397 ;;Total ram usage:       20 bytes
  4398 ;; Hardware stack levels used: 1
  4399 ;; Hardware stack levels required when called: 4
  4400 ;; This function calls:
  4401 ;;		___flmul
  4402 ;;		___lwdiv
  4403 ;;		___lwmod
  4404 ;; This function is called by:
  4405 ;;		_sprintf
  4406 ;; This function uses a non-reentrant model
  4407 ;;
  4408                           
  4409     1109                     _fround:	
  4410                           ;psect for function _fround
  4411                           
  4412                           
  4413                           ;incstack = 0
  4414                           ; Regs used in _fround: [wreg-fsr0h+status,2+status,0+btemp+1+pclath+cstack]
  4415                           ;fround@prec stored from wreg
  4416     1109  1283               	bcf	3,5	;RP0=0, select bank0
  4417     110A  1303               	bcf	3,6	;RP1=0, select bank0
  4418     110B  00E3               	movwf	fround@prec
  4419     110C                     l2789:
  4420                           
  4421                           ;C:\Program Files\Microchip\xc8\v2.40\pic\sources\c90\common\doprnt.c: 417: fround(unsig
      +                          ned char prec);C:\Program Files\Microchip\xc8\v2.40\pic\sources\c90\common\doprnt.c: 418
      +                          : {;C:\Program Files\Microchip\xc8\v2.40\pic\sources\c90\common\doprnt.c: 421:  if(prec>
      +                          =110)
  4422     110C  306E               	movlw	110
  4423     110D  0263               	subwf	fround@prec,w
  4424     110E  1C03               	skipc
  4425     110F  2911               	goto	u4361
  4426     1110  2912               	goto	u4360
  4427     1111                     u4361:
  4428     1111  2A21               	goto	l2797
  4429     1112                     u4360:
  4430     1112                     l2791:
  4431                           
  4432                           ;C:\Program Files\Microchip\xc8\v2.40\pic\sources\c90\common\doprnt.c: 422:   return 0.5
      +                           * _npowers_[prec/100U+18U] * _npowers_[(prec%100U)/10U+9U] * _npowers_[prec%10U];
  4433     1112  303F               	movlw	63
  4434     1113  00B9               	movwf	___flmul@b+3
  4435     1114  3000               	movlw	0
  4436     1115  00B8               	movwf	___flmul@b+2
  4437     1116  3000               	movlw	0
  4438     1117  00B7               	movwf	___flmul@b+1
  4439     1118  3000               	movlw	0
  4440     1119  00B6               	movwf	___flmul@b
  4441     111A  3064               	movlw	100
  4442     111B  00AC               	movwf	___lwdiv@divisor
  4443     111C  3000               	movlw	0
  4444     111D  00AD               	movwf	___lwdiv@divisor+1
  4445     111E  0863               	movf	fround@prec,w
  4446     111F  00D4               	movwf	??_fround
  4447     1120  01D5               	clrf	??_fround+1
  4448     1121  0854               	movf	??_fround,w
  4449     1122  00AE               	movwf	___lwdiv@dividend
  4450     1123  0855               	movf	??_fround+1,w
  4451     1124  00AF               	movwf	___lwdiv@dividend+1
  4452     1125  160A  118A  200B  160A  118A  	fcall	___lwdiv
  4453     112A  1283               	bcf	3,5	;RP0=0, select bank0
  4454     112B  1303               	bcf	3,6	;RP1=0, select bank0
  4455     112C  082C               	movf	?___lwdiv,w
  4456     112D  00D6               	movwf	??_fround+2
  4457     112E  3001               	movlw	1
  4458     112F                     u4375:
  4459     112F  1003               	clrc
  4460     1130  0DD6               	rlf	??_fround+2,f
  4461     1131  3EFF               	addlw	-1
  4462     1132  1D03               	skipz
  4463     1133  292F               	goto	u4375
  4464     1134  1003               	clrc
  4465     1135  0D56               	rlf	??_fround+2,w
  4466     1136  3E7D               	addlw	low (((__npowers_-__stringbase)| (0+32768)+72))
  4467     1137  0084               	movwf	4
  4468     1138  160A  158A  2000  160A  118A  	fcall	stringdir
  4469     113D  00D7               	movwf	??_fround+3
  4470     113E  160A  158A  2000  160A  118A  	fcall	stringdir
  4471     1143  00D8               	movwf	??_fround+4
  4472     1144  160A  158A  2000  160A  118A  	fcall	stringdir
  4473     1149  00D9               	movwf	??_fround+5
  4474     114A  160A  158A  2000  160A  118A  	fcall	stringdir
  4475     114F  00DA               	movwf	??_fround+6
  4476     1150  085A               	movf	??_fround+6,w
  4477     1151  00BD               	movwf	___flmul@a+3
  4478     1152  0859               	movf	??_fround+5,w
  4479     1153  00BC               	movwf	___flmul@a+2
  4480     1154  0858               	movf	??_fround+4,w
  4481     1155  00BB               	movwf	___flmul@a+1
  4482     1156  0857               	movf	??_fround+3,w
  4483     1157  00BA               	movwf	___flmul@a
  4484     1158  120A  158A  2158  160A  118A  	fcall	___flmul
  4485     115D  1283               	bcf	3,5	;RP0=0, select bank0
  4486     115E  1303               	bcf	3,6	;RP1=0, select bank0
  4487     115F  0839               	movf	?___flmul+3,w
  4488     1160  00E2               	movwf	_fround$1035+3
  4489     1161  0838               	movf	?___flmul+2,w
  4490     1162  00E1               	movwf	_fround$1035+2
  4491     1163  0837               	movf	?___flmul+1,w
  4492     1164  00E0               	movwf	_fround$1035+1
  4493     1165  0836               	movf	?___flmul,w
  4494     1166  00DF               	movwf	_fround$1035
  4495                           
  4496                           ;C:\Program Files\Microchip\xc8\v2.40\pic\sources\c90\common\doprnt.c: 422:   return 0.5
      +                           * _npowers_[prec/100U+18U] * _npowers_[(prec%100U)/10U+9U] * _npowers_[prec%10U];
  4497     1167  300A               	movlw	10
  4498     1168  00AC               	movwf	___lwdiv@divisor
  4499     1169  3000               	movlw	0
  4500     116A  00AD               	movwf	___lwdiv@divisor+1
  4501     116B  0863               	movf	fround@prec,w
  4502     116C  00D4               	movwf	??_fround
  4503     116D  01D5               	clrf	??_fround+1
  4504     116E  0854               	movf	??_fround,w
  4505     116F  00A8               	movwf	___lwmod@dividend
  4506     1170  0855               	movf	??_fround+1,w
  4507     1171  00A9               	movwf	___lwmod@dividend+1
  4508     1172  3064               	movlw	100
  4509     1173  00A6               	movwf	___lwmod@divisor
  4510     1174  3000               	movlw	0
  4511     1175  00A7               	movwf	___lwmod@divisor+1
  4512     1176  160A  158A  2363  160A  118A  	fcall	___lwmod
  4513     117B  1283               	bcf	3,5	;RP0=0, select bank0
  4514     117C  1303               	bcf	3,6	;RP1=0, select bank0
  4515     117D  0827               	movf	?___lwmod+1,w
  4516     117E  00AF               	movwf	___lwdiv@dividend+1
  4517     117F  0826               	movf	?___lwmod,w
  4518     1180  00AE               	movwf	___lwdiv@dividend
  4519     1181  160A  118A  200B  160A  118A  	fcall	___lwdiv
  4520     1186  1283               	bcf	3,5	;RP0=0, select bank0
  4521     1187  1303               	bcf	3,6	;RP1=0, select bank0
  4522     1188  082C               	movf	?___lwdiv,w
  4523     1189  00D6               	movwf	??_fround+2
  4524     118A  3001               	movlw	1
  4525     118B                     u4385:
  4526     118B  1003               	clrc
  4527     118C  0DD6               	rlf	??_fround+2,f
  4528     118D  3EFF               	addlw	-1
  4529     118E  1D03               	skipz
  4530     118F  298B               	goto	u4385
  4531     1190  1003               	clrc
  4532     1191  0D56               	rlf	??_fround+2,w
  4533     1192  3E59               	addlw	low (((__npowers_-__stringbase)| (0+32768)+36))
  4534     1193  0084               	movwf	4
  4535     1194  160A  158A  2000  160A  118A  	fcall	stringdir
  4536     1199  00D7               	movwf	??_fround+3
  4537     119A  160A  158A  2000  160A  118A  	fcall	stringdir
  4538     119F  00D8               	movwf	??_fround+4
  4539     11A0  160A  158A  2000  160A  118A  	fcall	stringdir
  4540     11A5  00D9               	movwf	??_fround+5
  4541     11A6  160A  158A  2000  160A  118A  	fcall	stringdir
  4542     11AB  00DA               	movwf	??_fround+6
  4543     11AC  085A               	movf	??_fround+6,w
  4544     11AD  00B9               	movwf	___flmul@b+3
  4545     11AE  0859               	movf	??_fround+5,w
  4546     11AF  00B8               	movwf	___flmul@b+2
  4547     11B0  0858               	movf	??_fround+4,w
  4548     11B1  00B7               	movwf	___flmul@b+1
  4549     11B2  0857               	movf	??_fround+3,w
  4550     11B3  00B6               	movwf	___flmul@b
  4551     11B4  0862               	movf	_fround$1035+3,w
  4552     11B5  00BD               	movwf	___flmul@a+3
  4553     11B6  0861               	movf	_fround$1035+2,w
  4554     11B7  00BC               	movwf	___flmul@a+2
  4555     11B8  0860               	movf	_fround$1035+1,w
  4556     11B9  00BB               	movwf	___flmul@a+1
  4557     11BA  085F               	movf	_fround$1035,w
  4558     11BB  00BA               	movwf	___flmul@a
  4559     11BC  120A  158A  2158  160A  118A  	fcall	___flmul
  4560     11C1  1283               	bcf	3,5	;RP0=0, select bank0
  4561     11C2  1303               	bcf	3,6	;RP1=0, select bank0
  4562     11C3  0839               	movf	?___flmul+3,w
  4563     11C4  00DE               	movwf	_fround$1036+3
  4564     11C5  0838               	movf	?___flmul+2,w
  4565     11C6  00DD               	movwf	_fround$1036+2
  4566     11C7  0837               	movf	?___flmul+1,w
  4567     11C8  00DC               	movwf	_fround$1036+1
  4568     11C9  0836               	movf	?___flmul,w
  4569     11CA  00DB               	movwf	_fround$1036
  4570                           
  4571                           ;C:\Program Files\Microchip\xc8\v2.40\pic\sources\c90\common\doprnt.c: 422:   return 0.5
      +                           * _npowers_[prec/100U+18U] * _npowers_[(prec%100U)/10U+9U] * _npowers_[prec%10U];
  4572     11CB  300A               	movlw	10
  4573     11CC  00A6               	movwf	___lwmod@divisor
  4574     11CD  3000               	movlw	0
  4575     11CE  00A7               	movwf	___lwmod@divisor+1
  4576     11CF  0863               	movf	fround@prec,w
  4577     11D0  00D4               	movwf	??_fround
  4578     11D1  01D5               	clrf	??_fround+1
  4579     11D2  0854               	movf	??_fround,w
  4580     11D3  00A8               	movwf	___lwmod@dividend
  4581     11D4  0855               	movf	??_fround+1,w
  4582     11D5  00A9               	movwf	___lwmod@dividend+1
  4583     11D6  160A  158A  2363  160A  118A  	fcall	___lwmod
  4584     11DB  1283               	bcf	3,5	;RP0=0, select bank0
  4585     11DC  1303               	bcf	3,6	;RP1=0, select bank0
  4586     11DD  0826               	movf	?___lwmod,w
  4587     11DE  00D6               	movwf	??_fround+2
  4588     11DF  3001               	movlw	1
  4589     11E0                     u4395:
  4590     11E0  1003               	clrc
  4591     11E1  0DD6               	rlf	??_fround+2,f
  4592     11E2  3EFF               	addlw	-1
  4593     11E3  1D03               	skipz
  4594     11E4  29E0               	goto	u4395
  4595     11E5  1003               	clrc
  4596     11E6  0D56               	rlf	??_fround+2,w
  4597     11E7  3E35               	addlw	low ((__npowers_-__stringbase)| (0+32768))
  4598     11E8  0084               	movwf	4
  4599     11E9  160A  158A  2000  160A  118A  	fcall	stringdir
  4600     11EE  00D7               	movwf	??_fround+3
  4601     11EF  160A  158A  2000  160A  118A  	fcall	stringdir
  4602     11F4  00D8               	movwf	??_fround+4
  4603     11F5  160A  158A  2000  160A  118A  	fcall	stringdir
  4604     11FA  00D9               	movwf	??_fround+5
  4605     11FB  160A  158A  2000  160A  118A  	fcall	stringdir
  4606     1200  00DA               	movwf	??_fround+6
  4607     1201  085A               	movf	??_fround+6,w
  4608     1202  00B9               	movwf	___flmul@b+3
  4609     1203  0859               	movf	??_fround+5,w
  4610     1204  00B8               	movwf	___flmul@b+2
  4611     1205  0858               	movf	??_fround+4,w
  4612     1206  00B7               	movwf	___flmul@b+1
  4613     1207  0857               	movf	??_fround+3,w
  4614     1208  00B6               	movwf	___flmul@b
  4615     1209  085E               	movf	_fround$1036+3,w
  4616     120A  00BD               	movwf	___flmul@a+3
  4617     120B  085D               	movf	_fround$1036+2,w
  4618     120C  00BC               	movwf	___flmul@a+2
  4619     120D  085C               	movf	_fround$1036+1,w
  4620     120E  00BB               	movwf	___flmul@a+1
  4621     120F  085B               	movf	_fround$1036,w
  4622     1210  00BA               	movwf	___flmul@a
  4623     1211  120A  158A  2158  160A  118A  	fcall	___flmul
  4624     1216  1283               	bcf	3,5	;RP0=0, select bank0
  4625     1217  1303               	bcf	3,6	;RP1=0, select bank0
  4626     1218  0839               	movf	?___flmul+3,w
  4627     1219  00D3               	movwf	?_fround+3
  4628     121A  0838               	movf	?___flmul+2,w
  4629     121B  00D2               	movwf	?_fround+2
  4630     121C  0837               	movf	?___flmul+1,w
  4631     121D  00D1               	movwf	?_fround+1
  4632     121E  0836               	movf	?___flmul,w
  4633     121F  00D0               	movwf	?_fround
  4634     1220  2B15               	goto	l232
  4635     1221                     l2797:
  4636     1221  300B               	movlw	11
  4637     1222  0263               	subwf	fround@prec,w
  4638     1223  1C03               	skipc
  4639     1224  2A26               	goto	u4401
  4640     1225  2A27               	goto	u4400
  4641     1226                     u4401:
  4642     1226  2AD2               	goto	l2803
  4643     1227                     u4400:
  4644     1227                     l2799:
  4645                           
  4646                           ;C:\Program Files\Microchip\xc8\v2.40\pic\sources\c90\common\doprnt.c: 424:   return 0.5
      +                           * _npowers_[prec/10U+9U] * _npowers_[prec%10U];
  4647     1227  303F               	movlw	63
  4648     1228  00B9               	movwf	___flmul@b+3
  4649     1229  3000               	movlw	0
  4650     122A  00B8               	movwf	___flmul@b+2
  4651     122B  3000               	movlw	0
  4652     122C  00B7               	movwf	___flmul@b+1
  4653     122D  3000               	movlw	0
  4654     122E  00B6               	movwf	___flmul@b
  4655     122F  300A               	movlw	10
  4656     1230  00AC               	movwf	___lwdiv@divisor
  4657     1231  3000               	movlw	0
  4658     1232  00AD               	movwf	___lwdiv@divisor+1
  4659     1233  0863               	movf	fround@prec,w
  4660     1234  00D4               	movwf	??_fround
  4661     1235  01D5               	clrf	??_fround+1
  4662     1236  0854               	movf	??_fround,w
  4663     1237  00AE               	movwf	___lwdiv@dividend
  4664     1238  0855               	movf	??_fround+1,w
  4665     1239  00AF               	movwf	___lwdiv@dividend+1
  4666     123A  160A  118A  200B  160A  118A  	fcall	___lwdiv
  4667     123F  1283               	bcf	3,5	;RP0=0, select bank0
  4668     1240  1303               	bcf	3,6	;RP1=0, select bank0
  4669     1241  082C               	movf	?___lwdiv,w
  4670     1242  00D6               	movwf	??_fround+2
  4671     1243  3001               	movlw	1
  4672     1244                     u4415:
  4673     1244  1003               	clrc
  4674     1245  0DD6               	rlf	??_fround+2,f
  4675     1246  3EFF               	addlw	-1
  4676     1247  1D03               	skipz
  4677     1248  2A44               	goto	u4415
  4678     1249  1003               	clrc
  4679     124A  0D56               	rlf	??_fround+2,w
  4680     124B  3E59               	addlw	low (((__npowers_-__stringbase)| (0+32768)+36))
  4681     124C  0084               	movwf	4
  4682     124D  160A  158A  2000  160A  118A  	fcall	stringdir
  4683     1252  00D7               	movwf	??_fround+3
  4684     1253  160A  158A  2000  160A  118A  	fcall	stringdir
  4685     1258  00D8               	movwf	??_fround+4
  4686     1259  160A  158A  2000  160A  118A  	fcall	stringdir
  4687     125E  00D9               	movwf	??_fround+5
  4688     125F  160A  158A  2000  160A  118A  	fcall	stringdir
  4689     1264  00DA               	movwf	??_fround+6
  4690     1265  085A               	movf	??_fround+6,w
  4691     1266  00BD               	movwf	___flmul@a+3
  4692     1267  0859               	movf	??_fround+5,w
  4693     1268  00BC               	movwf	___flmul@a+2
  4694     1269  0858               	movf	??_fround+4,w
  4695     126A  00BB               	movwf	___flmul@a+1
  4696     126B  0857               	movf	??_fround+3,w
  4697     126C  00BA               	movwf	___flmul@a
  4698     126D  120A  158A  2158  160A  118A  	fcall	___flmul
  4699     1272  1283               	bcf	3,5	;RP0=0, select bank0
  4700     1273  1303               	bcf	3,6	;RP1=0, select bank0
  4701     1274  0839               	movf	?___flmul+3,w
  4702     1275  00E2               	movwf	_fround$1035+3
  4703     1276  0838               	movf	?___flmul+2,w
  4704     1277  00E1               	movwf	_fround$1035+2
  4705     1278  0837               	movf	?___flmul+1,w
  4706     1279  00E0               	movwf	_fround$1035+1
  4707     127A  0836               	movf	?___flmul,w
  4708     127B  00DF               	movwf	_fround$1035
  4709                           
  4710                           ;C:\Program Files\Microchip\xc8\v2.40\pic\sources\c90\common\doprnt.c: 424:   return 0.5
      +                           * _npowers_[prec/10U+9U] * _npowers_[prec%10U];
  4711     127C  300A               	movlw	10
  4712     127D  00A6               	movwf	___lwmod@divisor
  4713     127E  3000               	movlw	0
  4714     127F  00A7               	movwf	___lwmod@divisor+1
  4715     1280  0863               	movf	fround@prec,w
  4716     1281  00D4               	movwf	??_fround
  4717     1282  01D5               	clrf	??_fround+1
  4718     1283  0854               	movf	??_fround,w
  4719     1284  00A8               	movwf	___lwmod@dividend
  4720     1285  0855               	movf	??_fround+1,w
  4721     1286  00A9               	movwf	___lwmod@dividend+1
  4722     1287  160A  158A  2363  160A  118A  	fcall	___lwmod
  4723     128C  1283               	bcf	3,5	;RP0=0, select bank0
  4724     128D  1303               	bcf	3,6	;RP1=0, select bank0
  4725     128E  0826               	movf	?___lwmod,w
  4726     128F  00D6               	movwf	??_fround+2
  4727     1290  3001               	movlw	1
  4728     1291                     u4425:
  4729     1291  1003               	clrc
  4730     1292  0DD6               	rlf	??_fround+2,f
  4731     1293  3EFF               	addlw	-1
  4732     1294  1D03               	skipz
  4733     1295  2A91               	goto	u4425
  4734     1296  1003               	clrc
  4735     1297  0D56               	rlf	??_fround+2,w
  4736     1298  3E35               	addlw	low ((__npowers_-__stringbase)| (0+32768))
  4737     1299  0084               	movwf	4
  4738     129A  160A  158A  2000  160A  118A  	fcall	stringdir
  4739     129F  00D7               	movwf	??_fround+3
  4740     12A0  160A  158A  2000  160A  118A  	fcall	stringdir
  4741     12A5  00D8               	movwf	??_fround+4
  4742     12A6  160A  158A  2000  160A  118A  	fcall	stringdir
  4743     12AB  00D9               	movwf	??_fround+5
  4744     12AC  160A  158A  2000  160A  118A  	fcall	stringdir
  4745     12B1  00DA               	movwf	??_fround+6
  4746     12B2  085A               	movf	??_fround+6,w
  4747     12B3  00B9               	movwf	___flmul@b+3
  4748     12B4  0859               	movf	??_fround+5,w
  4749     12B5  00B8               	movwf	___flmul@b+2
  4750     12B6  0858               	movf	??_fround+4,w
  4751     12B7  00B7               	movwf	___flmul@b+1
  4752     12B8  0857               	movf	??_fround+3,w
  4753     12B9  00B6               	movwf	___flmul@b
  4754     12BA  0862               	movf	_fround$1035+3,w
  4755     12BB  00BD               	movwf	___flmul@a+3
  4756     12BC  0861               	movf	_fround$1035+2,w
  4757     12BD  00BC               	movwf	___flmul@a+2
  4758     12BE  0860               	movf	_fround$1035+1,w
  4759     12BF  00BB               	movwf	___flmul@a+1
  4760     12C0  085F               	movf	_fround$1035,w
  4761     12C1  00BA               	movwf	___flmul@a
  4762     12C2  120A  158A  2158  160A  118A  	fcall	___flmul
  4763     12C7  1283               	bcf	3,5	;RP0=0, select bank0
  4764     12C8  1303               	bcf	3,6	;RP1=0, select bank0
  4765     12C9  0839               	movf	?___flmul+3,w
  4766     12CA  00D3               	movwf	?_fround+3
  4767     12CB  0838               	movf	?___flmul+2,w
  4768     12CC  00D2               	movwf	?_fround+2
  4769     12CD  0837               	movf	?___flmul+1,w
  4770     12CE  00D1               	movwf	?_fround+1
  4771     12CF  0836               	movf	?___flmul,w
  4772     12D0  00D0               	movwf	?_fround
  4773     12D1  2B15               	goto	l232
  4774     12D2                     l2803:
  4775                           
  4776                           ;C:\Program Files\Microchip\xc8\v2.40\pic\sources\c90\common\doprnt.c: 425:  return 0.5 
      +                          * _npowers_[prec];
  4777     12D2  303F               	movlw	63
  4778     12D3  00B9               	movwf	___flmul@b+3
  4779     12D4  3000               	movlw	0
  4780     12D5  00B8               	movwf	___flmul@b+2
  4781     12D6  3000               	movlw	0
  4782     12D7  00B7               	movwf	___flmul@b+1
  4783     12D8  3000               	movlw	0
  4784     12D9  00B6               	movwf	___flmul@b
  4785     12DA  0863               	movf	fround@prec,w
  4786     12DB  00D4               	movwf	??_fround
  4787     12DC  3001               	movlw	1
  4788     12DD                     u4435:
  4789     12DD  1003               	clrc
  4790     12DE  0DD4               	rlf	??_fround,f
  4791     12DF  3EFF               	addlw	-1
  4792     12E0  1D03               	skipz
  4793     12E1  2ADD               	goto	u4435
  4794     12E2  1003               	clrc
  4795     12E3  0D54               	rlf	??_fround,w
  4796     12E4  3E35               	addlw	low ((__npowers_-__stringbase)| (0+32768))
  4797     12E5  0084               	movwf	4
  4798     12E6  160A  158A  2000  160A  118A  	fcall	stringdir
  4799     12EB  00D5               	movwf	??_fround+1
  4800     12EC  160A  158A  2000  160A  118A  	fcall	stringdir
  4801     12F1  00D6               	movwf	??_fround+2
  4802     12F2  160A  158A  2000  160A  118A  	fcall	stringdir
  4803     12F7  00D7               	movwf	??_fround+3
  4804     12F8  160A  158A  2000  160A  118A  	fcall	stringdir
  4805     12FD  00D8               	movwf	??_fround+4
  4806     12FE  0858               	movf	??_fround+4,w
  4807     12FF  00BD               	movwf	___flmul@a+3
  4808     1300  0857               	movf	??_fround+3,w
  4809     1301  00BC               	movwf	___flmul@a+2
  4810     1302  0856               	movf	??_fround+2,w
  4811     1303  00BB               	movwf	___flmul@a+1
  4812     1304  0855               	movf	??_fround+1,w
  4813     1305  00BA               	movwf	___flmul@a
  4814     1306  120A  158A  2158  160A  118A  	fcall	___flmul
  4815     130B  1283               	bcf	3,5	;RP0=0, select bank0
  4816     130C  1303               	bcf	3,6	;RP1=0, select bank0
  4817     130D  0839               	movf	?___flmul+3,w
  4818     130E  00D3               	movwf	?_fround+3
  4819     130F  0838               	movf	?___flmul+2,w
  4820     1310  00D2               	movwf	?_fround+2
  4821     1311  0837               	movf	?___flmul+1,w
  4822     1312  00D1               	movwf	?_fround+1
  4823     1313  0836               	movf	?___flmul,w
  4824     1314  00D0               	movwf	?_fround
  4825     1315                     l232:
  4826     1315  0008               	return
  4827     1316                     __end_of_fround:
  4828                           
  4829                           	psect	text6
  4830     1B63                     __ptext6:	
  4831 ;; *************** function ___lwmod *****************
  4832 ;; Defined at:
  4833 ;;		line 5 in file "C:\Program Files\Microchip\xc8\v2.40\pic\sources\c90\common\lwmod.c"
  4834 ;; Parameters:    Size  Location     Type
  4835 ;;  divisor         2    6[BANK0 ] unsigned int 
  4836 ;;  dividend        2    8[BANK0 ] unsigned int 
  4837 ;; Auto vars:     Size  Location     Type
  4838 ;;  counter         1   11[BANK0 ] unsigned char 
  4839 ;; Return value:  Size  Location     Type
  4840 ;;                  2    6[BANK0 ] unsigned int 
  4841 ;; Registers used:
  4842 ;;		wreg, status,2, status,0
  4843 ;; Tracked objects:
  4844 ;;		On entry : 0/0
  4845 ;;		On exit  : 0/0
  4846 ;;		Unchanged: 0/0
  4847 ;; Data sizes:     COMMON   BANK0   BANK1   BANK3   BANK2
  4848 ;;      Params:         0       4       0       0       0
  4849 ;;      Locals:         0       1       0       0       0
  4850 ;;      Temps:          0       1       0       0       0
  4851 ;;      Totals:         0       6       0       0       0
  4852 ;;Total ram usage:        6 bytes
  4853 ;; Hardware stack levels used: 1
  4854 ;; Hardware stack levels required when called: 2
  4855 ;; This function calls:
  4856 ;;		Nothing
  4857 ;; This function is called by:
  4858 ;;		_fround
  4859 ;; This function uses a non-reentrant model
  4860 ;;
  4861                           
  4862     1B63                     ___lwmod:	
  4863                           ;psect for function ___lwmod
  4864                           
  4865     1B63                     l2433:	
  4866                           ;incstack = 0
  4867                           ; Regs used in ___lwmod: [wreg+status,2+status,0]
  4868                           
  4869     1B63  1283               	bcf	3,5	;RP0=0, select bank0
  4870     1B64  1303               	bcf	3,6	;RP1=0, select bank0
  4871     1B65  0826               	movf	___lwmod@divisor,w
  4872     1B66  0427               	iorwf	___lwmod@divisor+1,w
  4873     1B67  1903               	btfsc	3,2
  4874     1B68  2B6A               	goto	u3471
  4875     1B69  2B6B               	goto	u3470
  4876     1B6A                     u3471:
  4877     1B6A  2B9A               	goto	l2451
  4878     1B6B                     u3470:
  4879     1B6B                     l2435:
  4880     1B6B  01AB               	clrf	___lwmod@counter
  4881     1B6C  0AAB               	incf	___lwmod@counter,f
  4882     1B6D  2B79               	goto	l2441
  4883     1B6E                     l2437:
  4884     1B6E  3001               	movlw	1
  4885     1B6F                     u3485:
  4886     1B6F  1003               	clrc
  4887     1B70  0DA6               	rlf	___lwmod@divisor,f
  4888     1B71  0DA7               	rlf	___lwmod@divisor+1,f
  4889     1B72  3EFF               	addlw	-1
  4890     1B73  1D03               	skipz
  4891     1B74  2B6F               	goto	u3485
  4892     1B75                     l2439:
  4893     1B75  3001               	movlw	1
  4894     1B76  00AA               	movwf	??___lwmod
  4895     1B77  082A               	movf	??___lwmod,w
  4896     1B78  07AB               	addwf	___lwmod@counter,f
  4897     1B79                     l2441:
  4898     1B79  1FA7               	btfss	___lwmod@divisor+1,7
  4899     1B7A  2B7C               	goto	u3491
  4900     1B7B  2B7D               	goto	u3490
  4901     1B7C                     u3491:
  4902     1B7C  2B6E               	goto	l2437
  4903     1B7D                     u3490:
  4904     1B7D                     l2443:
  4905     1B7D  0827               	movf	___lwmod@divisor+1,w
  4906     1B7E  0229               	subwf	___lwmod@dividend+1,w
  4907     1B7F  1D03               	skipz
  4908     1B80  2B83               	goto	u3505
  4909     1B81  0826               	movf	___lwmod@divisor,w
  4910     1B82  0228               	subwf	___lwmod@dividend,w
  4911     1B83                     u3505:
  4912     1B83  1C03               	skipc
  4913     1B84  2B86               	goto	u3501
  4914     1B85  2B87               	goto	u3500
  4915     1B86                     u3501:
  4916     1B86  2B8D               	goto	l2447
  4917     1B87                     u3500:
  4918     1B87                     l2445:
  4919     1B87  0826               	movf	___lwmod@divisor,w
  4920     1B88  02A8               	subwf	___lwmod@dividend,f
  4921     1B89  0827               	movf	___lwmod@divisor+1,w
  4922     1B8A  1C03               	skipc
  4923     1B8B  03A9               	decf	___lwmod@dividend+1,f
  4924     1B8C  02A9               	subwf	___lwmod@dividend+1,f
  4925     1B8D                     l2447:
  4926     1B8D  3001               	movlw	1
  4927     1B8E                     u3515:
  4928     1B8E  1003               	clrc
  4929     1B8F  0CA7               	rrf	___lwmod@divisor+1,f
  4930     1B90  0CA6               	rrf	___lwmod@divisor,f
  4931     1B91  3EFF               	addlw	-1
  4932     1B92  1D03               	skipz
  4933     1B93  2B8E               	goto	u3515
  4934     1B94                     l2449:
  4935     1B94  3001               	movlw	1
  4936     1B95  02AB               	subwf	___lwmod@counter,f
  4937     1B96  1D03               	btfss	3,2
  4938     1B97  2B99               	goto	u3521
  4939     1B98  2B9A               	goto	u3520
  4940     1B99                     u3521:
  4941     1B99  2B7D               	goto	l2443
  4942     1B9A                     u3520:
  4943     1B9A                     l2451:
  4944     1B9A  0829               	movf	___lwmod@dividend+1,w
  4945     1B9B  00A7               	movwf	?___lwmod+1
  4946     1B9C  0828               	movf	___lwmod@dividend,w
  4947     1B9D  00A6               	movwf	?___lwmod
  4948     1B9E                     l615:
  4949     1B9E  0008               	return
  4950     1B9F                     __end_of___lwmod:
  4951                           
  4952                           	psect	text7
  4953     100B                     __ptext7:	
  4954 ;; *************** function ___lwdiv *****************
  4955 ;; Defined at:
  4956 ;;		line 5 in file "C:\Program Files\Microchip\xc8\v2.40\pic\sources\c90\common\lwdiv.c"
  4957 ;; Parameters:    Size  Location     Type
  4958 ;;  divisor         2   12[BANK0 ] unsigned int 
  4959 ;;  dividend        2   14[BANK0 ] unsigned int 
  4960 ;; Auto vars:     Size  Location     Type
  4961 ;;  quotient        2   17[BANK0 ] unsigned int 
  4962 ;;  counter         1   19[BANK0 ] unsigned char 
  4963 ;; Return value:  Size  Location     Type
  4964 ;;                  2   12[BANK0 ] unsigned int 
  4965 ;; Registers used:
  4966 ;;		wreg, status,2, status,0
  4967 ;; Tracked objects:
  4968 ;;		On entry : 0/0
  4969 ;;		On exit  : 0/0
  4970 ;;		Unchanged: 0/0
  4971 ;; Data sizes:     COMMON   BANK0   BANK1   BANK3   BANK2
  4972 ;;      Params:         0       4       0       0       0
  4973 ;;      Locals:         0       3       0       0       0
  4974 ;;      Temps:          0       1       0       0       0
  4975 ;;      Totals:         0       8       0       0       0
  4976 ;;Total ram usage:        8 bytes
  4977 ;; Hardware stack levels used: 1
  4978 ;; Hardware stack levels required when called: 2
  4979 ;; This function calls:
  4980 ;;		Nothing
  4981 ;; This function is called by:
  4982 ;;		_fround
  4983 ;; This function uses a non-reentrant model
  4984 ;;
  4985                           
  4986     100B                     ___lwdiv:	
  4987                           ;psect for function ___lwdiv
  4988                           
  4989     100B                     l2407:	
  4990                           ;incstack = 0
  4991                           ; Regs used in ___lwdiv: [wreg+status,2+status,0]
  4992                           
  4993     100B  1283               	bcf	3,5	;RP0=0, select bank0
  4994     100C  1303               	bcf	3,6	;RP1=0, select bank0
  4995     100D  01B1               	clrf	___lwdiv@quotient
  4996     100E  01B2               	clrf	___lwdiv@quotient+1
  4997     100F                     l2409:
  4998     100F  082C               	movf	___lwdiv@divisor,w
  4999     1010  042D               	iorwf	___lwdiv@divisor+1,w
  5000     1011  1903               	btfsc	3,2
  5001     1012  2814               	goto	u3401
  5002     1013  2815               	goto	u3400
  5003     1014                     u3401:
  5004     1014  284C               	goto	l2429
  5005     1015                     u3400:
  5006     1015                     l2411:
  5007     1015  01B3               	clrf	___lwdiv@counter
  5008     1016  0AB3               	incf	___lwdiv@counter,f
  5009     1017  2823               	goto	l2417
  5010     1018                     l2413:
  5011     1018  3001               	movlw	1
  5012     1019                     u3415:
  5013     1019  1003               	clrc
  5014     101A  0DAC               	rlf	___lwdiv@divisor,f
  5015     101B  0DAD               	rlf	___lwdiv@divisor+1,f
  5016     101C  3EFF               	addlw	-1
  5017     101D  1D03               	skipz
  5018     101E  2819               	goto	u3415
  5019     101F                     l2415:
  5020     101F  3001               	movlw	1
  5021     1020  00B0               	movwf	??___lwdiv
  5022     1021  0830               	movf	??___lwdiv,w
  5023     1022  07B3               	addwf	___lwdiv@counter,f
  5024     1023                     l2417:
  5025     1023  1FAD               	btfss	___lwdiv@divisor+1,7
  5026     1024  2826               	goto	u3421
  5027     1025  2827               	goto	u3420
  5028     1026                     u3421:
  5029     1026  2818               	goto	l2413
  5030     1027                     u3420:
  5031     1027                     l2419:
  5032     1027  3001               	movlw	1
  5033     1028                     u3435:
  5034     1028  1003               	clrc
  5035     1029  0DB1               	rlf	___lwdiv@quotient,f
  5036     102A  0DB2               	rlf	___lwdiv@quotient+1,f
  5037     102B  3EFF               	addlw	-1
  5038     102C  1D03               	skipz
  5039     102D  2828               	goto	u3435
  5040     102E  082D               	movf	___lwdiv@divisor+1,w
  5041     102F  022F               	subwf	___lwdiv@dividend+1,w
  5042     1030  1D03               	skipz
  5043     1031  2834               	goto	u3445
  5044     1032  082C               	movf	___lwdiv@divisor,w
  5045     1033  022E               	subwf	___lwdiv@dividend,w
  5046     1034                     u3445:
  5047     1034  1C03               	skipc
  5048     1035  2837               	goto	u3441
  5049     1036  2838               	goto	u3440
  5050     1037                     u3441:
  5051     1037  283F               	goto	l2425
  5052     1038                     u3440:
  5053     1038                     l2421:
  5054     1038  082C               	movf	___lwdiv@divisor,w
  5055     1039  02AE               	subwf	___lwdiv@dividend,f
  5056     103A  082D               	movf	___lwdiv@divisor+1,w
  5057     103B  1C03               	skipc
  5058     103C  03AF               	decf	___lwdiv@dividend+1,f
  5059     103D  02AF               	subwf	___lwdiv@dividend+1,f
  5060     103E                     l2423:
  5061     103E  1431               	bsf	___lwdiv@quotient,0
  5062     103F                     l2425:
  5063     103F  3001               	movlw	1
  5064     1040                     u3455:
  5065     1040  1003               	clrc
  5066     1041  0CAD               	rrf	___lwdiv@divisor+1,f
  5067     1042  0CAC               	rrf	___lwdiv@divisor,f
  5068     1043  3EFF               	addlw	-1
  5069     1044  1D03               	skipz
  5070     1045  2840               	goto	u3455
  5071     1046                     l2427:
  5072     1046  3001               	movlw	1
  5073     1047  02B3               	subwf	___lwdiv@counter,f
  5074     1048  1D03               	btfss	3,2
  5075     1049  284B               	goto	u3461
  5076     104A  284C               	goto	u3460
  5077     104B                     u3461:
  5078     104B  2827               	goto	l2419
  5079     104C                     u3460:
  5080     104C                     l2429:
  5081     104C  0832               	movf	___lwdiv@quotient+1,w
  5082     104D  00AD               	movwf	?___lwdiv+1
  5083     104E  0831               	movf	___lwdiv@quotient,w
  5084     104F  00AC               	movwf	?___lwdiv
  5085     1050                     l605:
  5086     1050  0008               	return
  5087     1051                     __end_of___lwdiv:
  5088                           
  5089                           	psect	text8
  5090     0958                     __ptext8:	
  5091 ;; *************** function ___flmul *****************
  5092 ;; Defined at:
  5093 ;;		line 8 in file "C:\Program Files\Microchip\xc8\v2.40\pic\sources\c90\common\sprcmul.c"
  5094 ;; Parameters:    Size  Location     Type
  5095 ;;  b               4   22[BANK0 ] unsigned int 
  5096 ;;  a               4   26[BANK0 ] unsigned int 
  5097 ;; Auto vars:     Size  Location     Type
  5098 ;;  prod            4   42[BANK0 ] struct .
  5099 ;;  grs             4   36[BANK0 ] unsigned long 
  5100 ;;  temp            2   46[BANK0 ] struct .
  5101 ;;  bexp            1   41[BANK0 ] unsigned char 
  5102 ;;  aexp            1   40[BANK0 ] unsigned char 
  5103 ;;  sign            1   35[BANK0 ] unsigned char 
  5104 ;; Return value:  Size  Location     Type
  5105 ;;                  4   22[BANK0 ] unsigned char 
  5106 ;; Registers used:
  5107 ;;		wreg, status,2, status,0, btemp+1, pclath, cstack
  5108 ;; Tracked objects:
  5109 ;;		On entry : 0/0
  5110 ;;		On exit  : 0/0
  5111 ;;		Unchanged: 0/0
  5112 ;; Data sizes:     COMMON   BANK0   BANK1   BANK3   BANK2
  5113 ;;      Params:         0       8       0       0       0
  5114 ;;      Locals:         0      13       0       0       0
  5115 ;;      Temps:          0       5       0       0       0
  5116 ;;      Totals:         0      26       0       0       0
  5117 ;;Total ram usage:       26 bytes
  5118 ;; Hardware stack levels used: 1
  5119 ;; Hardware stack levels required when called: 3
  5120 ;; This function calls:
  5121 ;;		__Umul8_16
  5122 ;; This function is called by:
  5123 ;;		_main
  5124 ;;		_fround
  5125 ;;		_scale
  5126 ;;		_sprintf
  5127 ;; This function uses a non-reentrant model
  5128 ;;
  5129                           
  5130     0958                     ___flmul:	
  5131                           ;psect for function ___flmul
  5132                           
  5133     0958                     l2649:	
  5134                           ;incstack = 0
  5135                           ; Regs used in ___flmul: [wreg+status,2+status,0+btemp+1+pclath+cstack]
  5136                           
  5137     0958  1283               	bcf	3,5	;RP0=0, select bank0
  5138     0959  1303               	bcf	3,6	;RP1=0, select bank0
  5139     095A  0839               	movf	___flmul@b+3,w
  5140     095B  3980               	andlw	128
  5141     095C  00C3               	movwf	___flmul@sign
  5142     095D                     l2651:
  5143     095D  0839               	movf	___flmul@b+3,w
  5144     095E  00BE               	movwf	??___flmul
  5145     095F  073E               	addwf	??___flmul,w
  5146     0960  00C9               	movwf	___flmul@bexp
  5147     0961                     l2653:
  5148     0961  1FB8               	btfss	___flmul@b+2,7
  5149     0962  2964               	goto	u3991
  5150     0963  2965               	goto	u3990
  5151     0964                     u3991:
  5152     0964  2966               	goto	l2657
  5153     0965                     u3990:
  5154     0965                     l2655:
  5155     0965  1449               	bsf	___flmul@bexp,0
  5156     0966                     l2657:
  5157     0966  0849               	movf	___flmul@bexp,w
  5158     0967  1903               	btfsc	3,2
  5159     0968  296A               	goto	u4001
  5160     0969  296B               	goto	u4000
  5161     096A                     u4001:
  5162     096A  297A               	goto	l2665
  5163     096B                     u4000:
  5164     096B                     l2659:
  5165     096B  0A49               	incf	___flmul@bexp,w
  5166     096C  1D03               	btfss	3,2
  5167     096D  296F               	goto	u4011
  5168     096E  2970               	goto	u4010
  5169     096F                     u4011:
  5170     096F  2978               	goto	l2663
  5171     0970                     u4010:
  5172     0970                     l2661:
  5173     0970  3000               	movlw	0
  5174     0971  00B9               	movwf	___flmul@b+3
  5175     0972  3000               	movlw	0
  5176     0973  00B8               	movwf	___flmul@b+2
  5177     0974  3000               	movlw	0
  5178     0975  00B7               	movwf	___flmul@b+1
  5179     0976  3000               	movlw	0
  5180     0977  00B6               	movwf	___flmul@b
  5181     0978                     l2663:
  5182     0978  17B8               	bsf	___flmul@b+2,7
  5183     0979  2982               	goto	l2667
  5184     097A                     l2665:
  5185     097A  3000               	movlw	0
  5186     097B  00B9               	movwf	___flmul@b+3
  5187     097C  3000               	movlw	0
  5188     097D  00B8               	movwf	___flmul@b+2
  5189     097E  3000               	movlw	0
  5190     097F  00B7               	movwf	___flmul@b+1
  5191     0980  3000               	movlw	0
  5192     0981  00B6               	movwf	___flmul@b
  5193     0982                     l2667:
  5194     0982  083D               	movf	___flmul@a+3,w
  5195     0983  3980               	andlw	128
  5196     0984  00BE               	movwf	??___flmul
  5197     0985  083E               	movf	??___flmul,w
  5198     0986  06C3               	xorwf	___flmul@sign,f
  5199     0987                     l2669:
  5200     0987  083D               	movf	___flmul@a+3,w
  5201     0988  00BE               	movwf	??___flmul
  5202     0989  073E               	addwf	??___flmul,w
  5203     098A  00C8               	movwf	___flmul@aexp
  5204     098B                     l2671:
  5205     098B  1FBC               	btfss	___flmul@a+2,7
  5206     098C  298E               	goto	u4021
  5207     098D  298F               	goto	u4020
  5208     098E                     u4021:
  5209     098E  2990               	goto	l2675
  5210     098F                     u4020:
  5211     098F                     l2673:
  5212     098F  1448               	bsf	___flmul@aexp,0
  5213     0990                     l2675:
  5214     0990  0848               	movf	___flmul@aexp,w
  5215     0991  1903               	btfsc	3,2
  5216     0992  2994               	goto	u4031
  5217     0993  2995               	goto	u4030
  5218     0994                     u4031:
  5219     0994  29A4               	goto	l2683
  5220     0995                     u4030:
  5221     0995                     l2677:
  5222     0995  0A48               	incf	___flmul@aexp,w
  5223     0996  1D03               	btfss	3,2
  5224     0997  2999               	goto	u4041
  5225     0998  299A               	goto	u4040
  5226     0999                     u4041:
  5227     0999  29A2               	goto	l2681
  5228     099A                     u4040:
  5229     099A                     l2679:
  5230     099A  3000               	movlw	0
  5231     099B  00BD               	movwf	___flmul@a+3
  5232     099C  3000               	movlw	0
  5233     099D  00BC               	movwf	___flmul@a+2
  5234     099E  3000               	movlw	0
  5235     099F  00BB               	movwf	___flmul@a+1
  5236     09A0  3000               	movlw	0
  5237     09A1  00BA               	movwf	___flmul@a
  5238     09A2                     l2681:
  5239     09A2  17BC               	bsf	___flmul@a+2,7
  5240     09A3  29AC               	goto	l2685
  5241     09A4                     l2683:
  5242     09A4  3000               	movlw	0
  5243     09A5  00BD               	movwf	___flmul@a+3
  5244     09A6  3000               	movlw	0
  5245     09A7  00BC               	movwf	___flmul@a+2
  5246     09A8  3000               	movlw	0
  5247     09A9  00BB               	movwf	___flmul@a+1
  5248     09AA  3000               	movlw	0
  5249     09AB  00BA               	movwf	___flmul@a
  5250     09AC                     l2685:
  5251     09AC  0848               	movf	___flmul@aexp,w
  5252     09AD  1903               	btfsc	3,2
  5253     09AE  29B0               	goto	u4051
  5254     09AF  29B1               	goto	u4050
  5255     09B0                     u4051:
  5256     09B0  29B6               	goto	l2689
  5257     09B1                     u4050:
  5258     09B1                     l2687:
  5259     09B1  0849               	movf	___flmul@bexp,w
  5260     09B2  1D03               	btfss	3,2
  5261     09B3  29B5               	goto	u4061
  5262     09B4  29B6               	goto	u4060
  5263     09B5                     u4061:
  5264     09B5  29BF               	goto	l2693
  5265     09B6                     u4060:
  5266     09B6                     l2689:
  5267     09B6  3000               	movlw	0
  5268     09B7  00B9               	movwf	?___flmul+3
  5269     09B8  3000               	movlw	0
  5270     09B9  00B8               	movwf	?___flmul+2
  5271     09BA  3000               	movlw	0
  5272     09BB  00B7               	movwf	?___flmul+1
  5273     09BC  3000               	movlw	0
  5274     09BD  00B6               	movwf	?___flmul
  5275     09BE  2C9C               	goto	l722
  5276     09BF                     l2693:
  5277     09BF  0836               	movf	___flmul@b,w
  5278     09C0  00A6               	movwf	__Umul8_16@multiplicand
  5279     09C1  083C               	movf	___flmul@a+2,w
  5280     09C2  160A  158A  2302  120A  158A  	fcall	__Umul8_16
  5281     09C7  1283               	bcf	3,5	;RP0=0, select bank0
  5282     09C8  1303               	bcf	3,6	;RP1=0, select bank0
  5283     09C9  0827               	movf	?__Umul8_16+1,w
  5284     09CA  00CF               	movwf	___flmul@temp+1
  5285     09CB  0826               	movf	?__Umul8_16,w
  5286     09CC  00CE               	movwf	___flmul@temp
  5287     09CD                     l2695:
  5288     09CD  084E               	movf	___flmul@temp,w
  5289     09CE  00BE               	movwf	??___flmul
  5290     09CF  01BF               	clrf	??___flmul+1
  5291     09D0  01C0               	clrf	??___flmul+2
  5292     09D1  01C1               	clrf	??___flmul+3
  5293     09D2  0841               	movf	??___flmul+3,w
  5294     09D3  00C7               	movwf	___flmul@grs+3
  5295     09D4  0840               	movf	??___flmul+2,w
  5296     09D5  00C6               	movwf	___flmul@grs+2
  5297     09D6  083F               	movf	??___flmul+1,w
  5298     09D7  00C5               	movwf	___flmul@grs+1
  5299     09D8  083E               	movf	??___flmul,w
  5300     09D9  00C4               	movwf	___flmul@grs
  5301     09DA                     l2697:
  5302     09DA  084F               	movf	___flmul@temp+1,w
  5303     09DB  00BE               	movwf	??___flmul
  5304     09DC  01BF               	clrf	??___flmul+1
  5305     09DD  01C0               	clrf	??___flmul+2
  5306     09DE  01C1               	clrf	??___flmul+3
  5307     09DF  0841               	movf	??___flmul+3,w
  5308     09E0  00CD               	movwf	___flmul@prod+3
  5309     09E1  0840               	movf	??___flmul+2,w
  5310     09E2  00CC               	movwf	___flmul@prod+2
  5311     09E3  083F               	movf	??___flmul+1,w
  5312     09E4  00CB               	movwf	___flmul@prod+1
  5313     09E5  083E               	movf	??___flmul,w
  5314     09E6  00CA               	movwf	___flmul@prod
  5315     09E7  0837               	movf	___flmul@b+1,w
  5316     09E8  00A6               	movwf	__Umul8_16@multiplicand
  5317     09E9  083B               	movf	___flmul@a+1,w
  5318     09EA  160A  158A  2302  120A  158A  	fcall	__Umul8_16
  5319     09EF  1283               	bcf	3,5	;RP0=0, select bank0
  5320     09F0  1303               	bcf	3,6	;RP1=0, select bank0
  5321     09F1  0827               	movf	?__Umul8_16+1,w
  5322     09F2  00CF               	movwf	___flmul@temp+1
  5323     09F3  0826               	movf	?__Umul8_16,w
  5324     09F4  00CE               	movwf	___flmul@temp
  5325     09F5                     l2699:
  5326     09F5  084E               	movf	___flmul@temp,w
  5327     09F6  00BE               	movwf	??___flmul
  5328     09F7  01BF               	clrf	??___flmul+1
  5329     09F8  01C0               	clrf	??___flmul+2
  5330     09F9  01C1               	clrf	??___flmul+3
  5331     09FA  083E               	movf	??___flmul,w
  5332     09FB  07C4               	addwf	___flmul@grs,f
  5333     09FC  083F               	movf	??___flmul+1,w
  5334     09FD  1103               	clrz
  5335     09FE  1803               	skipnc
  5336     09FF  3E01               	addlw	1
  5337     0A00  1903               	skipnz
  5338     0A01  2A03               	goto	u4071
  5339     0A02  07C5               	addwf	___flmul@grs+1,f
  5340     0A03                     u4071:
  5341     0A03  0840               	movf	??___flmul+2,w
  5342     0A04  1103               	clrz
  5343     0A05  1803               	skipnc
  5344     0A06  3E01               	addlw	1
  5345     0A07  1903               	skipnz
  5346     0A08  2A0A               	goto	u4072
  5347     0A09  07C6               	addwf	___flmul@grs+2,f
  5348     0A0A                     u4072:
  5349     0A0A  0841               	movf	??___flmul+3,w
  5350     0A0B  1103               	clrz
  5351     0A0C  1803               	skipnc
  5352     0A0D  3E01               	addlw	1
  5353     0A0E  1903               	skipnz
  5354     0A0F  2A11               	goto	u4073
  5355     0A10  07C7               	addwf	___flmul@grs+3,f
  5356     0A11                     u4073:
  5357     0A11                     l2701:
  5358     0A11  084F               	movf	___flmul@temp+1,w
  5359     0A12  00BE               	movwf	??___flmul
  5360     0A13  01BF               	clrf	??___flmul+1
  5361     0A14  01C0               	clrf	??___flmul+2
  5362     0A15  01C1               	clrf	??___flmul+3
  5363     0A16  083E               	movf	??___flmul,w
  5364     0A17  07CA               	addwf	___flmul@prod,f
  5365     0A18  083F               	movf	??___flmul+1,w
  5366     0A19  1103               	clrz
  5367     0A1A  1803               	skipnc
  5368     0A1B  3E01               	addlw	1
  5369     0A1C  1903               	skipnz
  5370     0A1D  2A1F               	goto	u4081
  5371     0A1E  07CB               	addwf	___flmul@prod+1,f
  5372     0A1F                     u4081:
  5373     0A1F  0840               	movf	??___flmul+2,w
  5374     0A20  1103               	clrz
  5375     0A21  1803               	skipnc
  5376     0A22  3E01               	addlw	1
  5377     0A23  1903               	skipnz
  5378     0A24  2A26               	goto	u4082
  5379     0A25  07CC               	addwf	___flmul@prod+2,f
  5380     0A26                     u4082:
  5381     0A26  0841               	movf	??___flmul+3,w
  5382     0A27  1103               	clrz
  5383     0A28  1803               	skipnc
  5384     0A29  3E01               	addlw	1
  5385     0A2A  1903               	skipnz
  5386     0A2B  2A2D               	goto	u4083
  5387     0A2C  07CD               	addwf	___flmul@prod+3,f
  5388     0A2D                     u4083:
  5389     0A2D  0838               	movf	___flmul@b+2,w
  5390     0A2E  00A6               	movwf	__Umul8_16@multiplicand
  5391     0A2F  083A               	movf	___flmul@a,w
  5392     0A30  160A  158A  2302  120A  158A  	fcall	__Umul8_16
  5393     0A35  1283               	bcf	3,5	;RP0=0, select bank0
  5394     0A36  1303               	bcf	3,6	;RP1=0, select bank0
  5395     0A37  0827               	movf	?__Umul8_16+1,w
  5396     0A38  00CF               	movwf	___flmul@temp+1
  5397     0A39  0826               	movf	?__Umul8_16,w
  5398     0A3A  00CE               	movwf	___flmul@temp
  5399     0A3B                     l2703:
  5400     0A3B  084E               	movf	___flmul@temp,w
  5401     0A3C  00BE               	movwf	??___flmul
  5402     0A3D  01BF               	clrf	??___flmul+1
  5403     0A3E  01C0               	clrf	??___flmul+2
  5404     0A3F  01C1               	clrf	??___flmul+3
  5405     0A40  083E               	movf	??___flmul,w
  5406     0A41  07C4               	addwf	___flmul@grs,f
  5407     0A42  083F               	movf	??___flmul+1,w
  5408     0A43  1103               	clrz
  5409     0A44  1803               	skipnc
  5410     0A45  3E01               	addlw	1
  5411     0A46  1903               	skipnz
  5412     0A47  2A49               	goto	u4091
  5413     0A48  07C5               	addwf	___flmul@grs+1,f
  5414     0A49                     u4091:
  5415     0A49  0840               	movf	??___flmul+2,w
  5416     0A4A  1103               	clrz
  5417     0A4B  1803               	skipnc
  5418     0A4C  3E01               	addlw	1
  5419     0A4D  1903               	skipnz
  5420     0A4E  2A50               	goto	u4092
  5421     0A4F  07C6               	addwf	___flmul@grs+2,f
  5422     0A50                     u4092:
  5423     0A50  0841               	movf	??___flmul+3,w
  5424     0A51  1103               	clrz
  5425     0A52  1803               	skipnc
  5426     0A53  3E01               	addlw	1
  5427     0A54  1903               	skipnz
  5428     0A55  2A57               	goto	u4093
  5429     0A56  07C7               	addwf	___flmul@grs+3,f
  5430     0A57                     u4093:
  5431     0A57                     l2705:
  5432     0A57  084F               	movf	___flmul@temp+1,w
  5433     0A58  00BE               	movwf	??___flmul
  5434     0A59  01BF               	clrf	??___flmul+1
  5435     0A5A  01C0               	clrf	??___flmul+2
  5436     0A5B  01C1               	clrf	??___flmul+3
  5437     0A5C  083E               	movf	??___flmul,w
  5438     0A5D  07CA               	addwf	___flmul@prod,f
  5439     0A5E  083F               	movf	??___flmul+1,w
  5440     0A5F  1103               	clrz
  5441     0A60  1803               	skipnc
  5442     0A61  3E01               	addlw	1
  5443     0A62  1903               	skipnz
  5444     0A63  2A65               	goto	u4101
  5445     0A64  07CB               	addwf	___flmul@prod+1,f
  5446     0A65                     u4101:
  5447     0A65  0840               	movf	??___flmul+2,w
  5448     0A66  1103               	clrz
  5449     0A67  1803               	skipnc
  5450     0A68  3E01               	addlw	1
  5451     0A69  1903               	skipnz
  5452     0A6A  2A6C               	goto	u4102
  5453     0A6B  07CC               	addwf	___flmul@prod+2,f
  5454     0A6C                     u4102:
  5455     0A6C  0841               	movf	??___flmul+3,w
  5456     0A6D  1103               	clrz
  5457     0A6E  1803               	skipnc
  5458     0A6F  3E01               	addlw	1
  5459     0A70  1903               	skipnz
  5460     0A71  2A73               	goto	u4103
  5461     0A72  07CD               	addwf	___flmul@prod+3,f
  5462     0A73                     u4103:
  5463     0A73                     l2707:
  5464     0A73  3008               	movlw	8
  5465     0A74  00BE               	movwf	??___flmul
  5466     0A75                     u4115:
  5467     0A75  1003               	clrc
  5468     0A76  0DC4               	rlf	___flmul@grs,f
  5469     0A77  0DC5               	rlf	___flmul@grs+1,f
  5470     0A78  0DC6               	rlf	___flmul@grs+2,f
  5471     0A79  0DC7               	rlf	___flmul@grs+3,f
  5472     0A7A  0BBE               	decfsz	??___flmul,f
  5473     0A7B  2A75               	goto	u4115
  5474     0A7C                     l2709:
  5475     0A7C  0837               	movf	___flmul@b+1,w
  5476     0A7D  00A6               	movwf	__Umul8_16@multiplicand
  5477     0A7E  083A               	movf	___flmul@a,w
  5478     0A7F  160A  158A  2302  120A  158A  	fcall	__Umul8_16
  5479     0A84  1283               	bcf	3,5	;RP0=0, select bank0
  5480     0A85  1303               	bcf	3,6	;RP1=0, select bank0
  5481     0A86  0827               	movf	?__Umul8_16+1,w
  5482     0A87  00CF               	movwf	___flmul@temp+1
  5483     0A88  0826               	movf	?__Umul8_16,w
  5484     0A89  00CE               	movwf	___flmul@temp
  5485     0A8A                     l2711:
  5486     0A8A  084E               	movf	___flmul@temp,w
  5487     0A8B  00BE               	movwf	??___flmul
  5488     0A8C  084F               	movf	___flmul@temp+1,w
  5489     0A8D  00BF               	movwf	??___flmul+1
  5490     0A8E  01C0               	clrf	??___flmul+2
  5491     0A8F  01C1               	clrf	??___flmul+3
  5492     0A90  083E               	movf	??___flmul,w
  5493     0A91  07C4               	addwf	___flmul@grs,f
  5494     0A92  083F               	movf	??___flmul+1,w
  5495     0A93  1103               	clrz
  5496     0A94  1803               	skipnc
  5497     0A95  3E01               	addlw	1
  5498     0A96  1903               	skipnz
  5499     0A97  2A99               	goto	u4121
  5500     0A98  07C5               	addwf	___flmul@grs+1,f
  5501     0A99                     u4121:
  5502     0A99  0840               	movf	??___flmul+2,w
  5503     0A9A  1103               	clrz
  5504     0A9B  1803               	skipnc
  5505     0A9C  3E01               	addlw	1
  5506     0A9D  1903               	skipnz
  5507     0A9E  2AA0               	goto	u4122
  5508     0A9F  07C6               	addwf	___flmul@grs+2,f
  5509     0AA0                     u4122:
  5510     0AA0  0841               	movf	??___flmul+3,w
  5511     0AA1  1103               	clrz
  5512     0AA2  1803               	skipnc
  5513     0AA3  3E01               	addlw	1
  5514     0AA4  1903               	skipnz
  5515     0AA5  2AA7               	goto	u4123
  5516     0AA6  07C7               	addwf	___flmul@grs+3,f
  5517     0AA7                     u4123:
  5518     0AA7                     l2713:
  5519     0AA7  0836               	movf	___flmul@b,w
  5520     0AA8  00A6               	movwf	__Umul8_16@multiplicand
  5521     0AA9  083B               	movf	___flmul@a+1,w
  5522     0AAA  160A  158A  2302  120A  158A  	fcall	__Umul8_16
  5523     0AAF  1283               	bcf	3,5	;RP0=0, select bank0
  5524     0AB0  1303               	bcf	3,6	;RP1=0, select bank0
  5525     0AB1  0827               	movf	?__Umul8_16+1,w
  5526     0AB2  00CF               	movwf	___flmul@temp+1
  5527     0AB3  0826               	movf	?__Umul8_16,w
  5528     0AB4  00CE               	movwf	___flmul@temp
  5529     0AB5                     l2715:
  5530     0AB5  084E               	movf	___flmul@temp,w
  5531     0AB6  00BE               	movwf	??___flmul
  5532     0AB7  084F               	movf	___flmul@temp+1,w
  5533     0AB8  00BF               	movwf	??___flmul+1
  5534     0AB9  01C0               	clrf	??___flmul+2
  5535     0ABA  01C1               	clrf	??___flmul+3
  5536     0ABB  083E               	movf	??___flmul,w
  5537     0ABC  07C4               	addwf	___flmul@grs,f
  5538     0ABD  083F               	movf	??___flmul+1,w
  5539     0ABE  1103               	clrz
  5540     0ABF  1803               	skipnc
  5541     0AC0  3E01               	addlw	1
  5542     0AC1  1903               	skipnz
  5543     0AC2  2AC4               	goto	u4131
  5544     0AC3  07C5               	addwf	___flmul@grs+1,f
  5545     0AC4                     u4131:
  5546     0AC4  0840               	movf	??___flmul+2,w
  5547     0AC5  1103               	clrz
  5548     0AC6  1803               	skipnc
  5549     0AC7  3E01               	addlw	1
  5550     0AC8  1903               	skipnz
  5551     0AC9  2ACB               	goto	u4132
  5552     0ACA  07C6               	addwf	___flmul@grs+2,f
  5553     0ACB                     u4132:
  5554     0ACB  0841               	movf	??___flmul+3,w
  5555     0ACC  1103               	clrz
  5556     0ACD  1803               	skipnc
  5557     0ACE  3E01               	addlw	1
  5558     0ACF  1903               	skipnz
  5559     0AD0  2AD2               	goto	u4133
  5560     0AD1  07C7               	addwf	___flmul@grs+3,f
  5561     0AD2                     u4133:
  5562     0AD2                     l2717:
  5563     0AD2  3008               	movlw	8
  5564     0AD3  00BE               	movwf	??___flmul
  5565     0AD4                     u4145:
  5566     0AD4  1003               	clrc
  5567     0AD5  0DC4               	rlf	___flmul@grs,f
  5568     0AD6  0DC5               	rlf	___flmul@grs+1,f
  5569     0AD7  0DC6               	rlf	___flmul@grs+2,f
  5570     0AD8  0DC7               	rlf	___flmul@grs+3,f
  5571     0AD9  0BBE               	decfsz	??___flmul,f
  5572     0ADA  2AD4               	goto	u4145
  5573     0ADB  0836               	movf	___flmul@b,w
  5574     0ADC  00A6               	movwf	__Umul8_16@multiplicand
  5575     0ADD  083A               	movf	___flmul@a,w
  5576     0ADE  160A  158A  2302  120A  158A  	fcall	__Umul8_16
  5577     0AE3  1283               	bcf	3,5	;RP0=0, select bank0
  5578     0AE4  1303               	bcf	3,6	;RP1=0, select bank0
  5579     0AE5  0827               	movf	?__Umul8_16+1,w
  5580     0AE6  00CF               	movwf	___flmul@temp+1
  5581     0AE7  0826               	movf	?__Umul8_16,w
  5582     0AE8  00CE               	movwf	___flmul@temp
  5583     0AE9                     l2719:
  5584     0AE9  084E               	movf	___flmul@temp,w
  5585     0AEA  00BE               	movwf	??___flmul
  5586     0AEB  084F               	movf	___flmul@temp+1,w
  5587     0AEC  00BF               	movwf	??___flmul+1
  5588     0AED  01C0               	clrf	??___flmul+2
  5589     0AEE  01C1               	clrf	??___flmul+3
  5590     0AEF  083E               	movf	??___flmul,w
  5591     0AF0  07C4               	addwf	___flmul@grs,f
  5592     0AF1  083F               	movf	??___flmul+1,w
  5593     0AF2  1103               	clrz
  5594     0AF3  1803               	skipnc
  5595     0AF4  3E01               	addlw	1
  5596     0AF5  1903               	skipnz
  5597     0AF6  2AF8               	goto	u4151
  5598     0AF7  07C5               	addwf	___flmul@grs+1,f
  5599     0AF8                     u4151:
  5600     0AF8  0840               	movf	??___flmul+2,w
  5601     0AF9  1103               	clrz
  5602     0AFA  1803               	skipnc
  5603     0AFB  3E01               	addlw	1
  5604     0AFC  1903               	skipnz
  5605     0AFD  2AFF               	goto	u4152
  5606     0AFE  07C6               	addwf	___flmul@grs+2,f
  5607     0AFF                     u4152:
  5608     0AFF  0841               	movf	??___flmul+3,w
  5609     0B00  1103               	clrz
  5610     0B01  1803               	skipnc
  5611     0B02  3E01               	addlw	1
  5612     0B03  1903               	skipnz
  5613     0B04  2B06               	goto	u4153
  5614     0B05  07C7               	addwf	___flmul@grs+3,f
  5615     0B06                     u4153:
  5616     0B06                     l2721:
  5617     0B06  0837               	movf	___flmul@b+1,w
  5618     0B07  00A6               	movwf	__Umul8_16@multiplicand
  5619     0B08  083C               	movf	___flmul@a+2,w
  5620     0B09  160A  158A  2302  120A  158A  	fcall	__Umul8_16
  5621     0B0E  1283               	bcf	3,5	;RP0=0, select bank0
  5622     0B0F  1303               	bcf	3,6	;RP1=0, select bank0
  5623     0B10  0827               	movf	?__Umul8_16+1,w
  5624     0B11  00CF               	movwf	___flmul@temp+1
  5625     0B12  0826               	movf	?__Umul8_16,w
  5626     0B13  00CE               	movwf	___flmul@temp
  5627     0B14  084E               	movf	___flmul@temp,w
  5628     0B15  00BE               	movwf	??___flmul
  5629     0B16  084F               	movf	___flmul@temp+1,w
  5630     0B17  00BF               	movwf	??___flmul+1
  5631     0B18  01C0               	clrf	??___flmul+2
  5632     0B19  01C1               	clrf	??___flmul+3
  5633     0B1A  083E               	movf	??___flmul,w
  5634     0B1B  07CA               	addwf	___flmul@prod,f
  5635     0B1C  083F               	movf	??___flmul+1,w
  5636     0B1D  1103               	clrz
  5637     0B1E  1803               	skipnc
  5638     0B1F  3E01               	addlw	1
  5639     0B20  1903               	skipnz
  5640     0B21  2B23               	goto	u4161
  5641     0B22  07CB               	addwf	___flmul@prod+1,f
  5642     0B23                     u4161:
  5643     0B23  0840               	movf	??___flmul+2,w
  5644     0B24  1103               	clrz
  5645     0B25  1803               	skipnc
  5646     0B26  3E01               	addlw	1
  5647     0B27  1903               	skipnz
  5648     0B28  2B2A               	goto	u4162
  5649     0B29  07CC               	addwf	___flmul@prod+2,f
  5650     0B2A                     u4162:
  5651     0B2A  0841               	movf	??___flmul+3,w
  5652     0B2B  1103               	clrz
  5653     0B2C  1803               	skipnc
  5654     0B2D  3E01               	addlw	1
  5655     0B2E  1903               	skipnz
  5656     0B2F  2B31               	goto	u4163
  5657     0B30  07CD               	addwf	___flmul@prod+3,f
  5658     0B31                     u4163:
  5659     0B31                     l2723:
  5660     0B31  0838               	movf	___flmul@b+2,w
  5661     0B32  00A6               	movwf	__Umul8_16@multiplicand
  5662     0B33  083B               	movf	___flmul@a+1,w
  5663     0B34  160A  158A  2302  120A  158A  	fcall	__Umul8_16
  5664     0B39  1283               	bcf	3,5	;RP0=0, select bank0
  5665     0B3A  1303               	bcf	3,6	;RP1=0, select bank0
  5666     0B3B  0827               	movf	?__Umul8_16+1,w
  5667     0B3C  00CF               	movwf	___flmul@temp+1
  5668     0B3D  0826               	movf	?__Umul8_16,w
  5669     0B3E  00CE               	movwf	___flmul@temp
  5670     0B3F                     l2725:
  5671     0B3F  084E               	movf	___flmul@temp,w
  5672     0B40  00BE               	movwf	??___flmul
  5673     0B41  084F               	movf	___flmul@temp+1,w
  5674     0B42  00BF               	movwf	??___flmul+1
  5675     0B43  01C0               	clrf	??___flmul+2
  5676     0B44  01C1               	clrf	??___flmul+3
  5677     0B45  083E               	movf	??___flmul,w
  5678     0B46  07CA               	addwf	___flmul@prod,f
  5679     0B47  083F               	movf	??___flmul+1,w
  5680     0B48  1103               	clrz
  5681     0B49  1803               	skipnc
  5682     0B4A  3E01               	addlw	1
  5683     0B4B  1903               	skipnz
  5684     0B4C  2B4E               	goto	u4171
  5685     0B4D  07CB               	addwf	___flmul@prod+1,f
  5686     0B4E                     u4171:
  5687     0B4E  0840               	movf	??___flmul+2,w
  5688     0B4F  1103               	clrz
  5689     0B50  1803               	skipnc
  5690     0B51  3E01               	addlw	1
  5691     0B52  1903               	skipnz
  5692     0B53  2B55               	goto	u4172
  5693     0B54  07CC               	addwf	___flmul@prod+2,f
  5694     0B55                     u4172:
  5695     0B55  0841               	movf	??___flmul+3,w
  5696     0B56  1103               	clrz
  5697     0B57  1803               	skipnc
  5698     0B58  3E01               	addlw	1
  5699     0B59  1903               	skipnz
  5700     0B5A  2B5C               	goto	u4173
  5701     0B5B  07CD               	addwf	___flmul@prod+3,f
  5702     0B5C                     u4173:
  5703     0B5C  0838               	movf	___flmul@b+2,w
  5704     0B5D  00A6               	movwf	__Umul8_16@multiplicand
  5705     0B5E  083C               	movf	___flmul@a+2,w
  5706     0B5F  160A  158A  2302  120A  158A  	fcall	__Umul8_16
  5707     0B64  1283               	bcf	3,5	;RP0=0, select bank0
  5708     0B65  1303               	bcf	3,6	;RP1=0, select bank0
  5709     0B66  0827               	movf	?__Umul8_16+1,w
  5710     0B67  00CF               	movwf	___flmul@temp+1
  5711     0B68  0826               	movf	?__Umul8_16,w
  5712     0B69  00CE               	movwf	___flmul@temp
  5713     0B6A                     l2727:
  5714     0B6A  084E               	movf	___flmul@temp,w
  5715     0B6B  00BE               	movwf	??___flmul
  5716     0B6C  084F               	movf	___flmul@temp+1,w
  5717     0B6D  00BF               	movwf	??___flmul+1
  5718     0B6E  01C0               	clrf	??___flmul+2
  5719     0B6F  01C1               	clrf	??___flmul+3
  5720     0B70  3008               	movlw	8
  5721     0B71                     u4185:
  5722     0B71  1003               	clrc
  5723     0B72  0DBE               	rlf	??___flmul,f
  5724     0B73  0DBF               	rlf	??___flmul+1,f
  5725     0B74  0DC0               	rlf	??___flmul+2,f
  5726     0B75  0DC1               	rlf	??___flmul+3,f
  5727     0B76                     u4180:
  5728     0B76  3EFF               	addlw	-1
  5729     0B77  1D03               	skipz
  5730     0B78  2B71               	goto	u4185
  5731     0B79  083E               	movf	??___flmul,w
  5732     0B7A  07CA               	addwf	___flmul@prod,f
  5733     0B7B  083F               	movf	??___flmul+1,w
  5734     0B7C  1103               	clrz
  5735     0B7D  1803               	skipnc
  5736     0B7E  3E01               	addlw	1
  5737     0B7F  1903               	skipnz
  5738     0B80  2B82               	goto	u4191
  5739     0B81  07CB               	addwf	___flmul@prod+1,f
  5740     0B82                     u4191:
  5741     0B82  0840               	movf	??___flmul+2,w
  5742     0B83  1103               	clrz
  5743     0B84  1803               	skipnc
  5744     0B85  3E01               	addlw	1
  5745     0B86  1903               	skipnz
  5746     0B87  2B89               	goto	u4192
  5747     0B88  07CC               	addwf	___flmul@prod+2,f
  5748     0B89                     u4192:
  5749     0B89  0841               	movf	??___flmul+3,w
  5750     0B8A  1103               	clrz
  5751     0B8B  1803               	skipnc
  5752     0B8C  3E01               	addlw	1
  5753     0B8D  1903               	skipnz
  5754     0B8E  2B90               	goto	u4193
  5755     0B8F  07CD               	addwf	___flmul@prod+3,f
  5756     0B90                     u4193:
  5757     0B90                     l2729:
  5758     0B90  0844               	movf	___flmul@grs,w
  5759     0B91  00BE               	movwf	??___flmul
  5760     0B92  0845               	movf	___flmul@grs+1,w
  5761     0B93  00BF               	movwf	??___flmul+1
  5762     0B94  0846               	movf	___flmul@grs+2,w
  5763     0B95  00C0               	movwf	??___flmul+2
  5764     0B96  0847               	movf	___flmul@grs+3,w
  5765     0B97  00C1               	movwf	??___flmul+3
  5766     0B98  3018               	movlw	24
  5767     0B99                     u4205:
  5768     0B99  1003               	clrc
  5769     0B9A  0CC1               	rrf	??___flmul+3,f
  5770     0B9B  0CC0               	rrf	??___flmul+2,f
  5771     0B9C  0CBF               	rrf	??___flmul+1,f
  5772     0B9D  0CBE               	rrf	??___flmul,f
  5773     0B9E                     u4200:
  5774     0B9E  3EFF               	addlw	-1
  5775     0B9F  1D03               	skipz
  5776     0BA0  2B99               	goto	u4205
  5777     0BA1  083E               	movf	??___flmul,w
  5778     0BA2  07CA               	addwf	___flmul@prod,f
  5779     0BA3  083F               	movf	??___flmul+1,w
  5780     0BA4  1103               	clrz
  5781     0BA5  1803               	skipnc
  5782     0BA6  3E01               	addlw	1
  5783     0BA7  1903               	skipnz
  5784     0BA8  2BAA               	goto	u4211
  5785     0BA9  07CB               	addwf	___flmul@prod+1,f
  5786     0BAA                     u4211:
  5787     0BAA  0840               	movf	??___flmul+2,w
  5788     0BAB  1103               	clrz
  5789     0BAC  1803               	skipnc
  5790     0BAD  3E01               	addlw	1
  5791     0BAE  1903               	skipnz
  5792     0BAF  2BB1               	goto	u4212
  5793     0BB0  07CC               	addwf	___flmul@prod+2,f
  5794     0BB1                     u4212:
  5795     0BB1  0841               	movf	??___flmul+3,w
  5796     0BB2  1103               	clrz
  5797     0BB3  1803               	skipnc
  5798     0BB4  3E01               	addlw	1
  5799     0BB5  1903               	skipnz
  5800     0BB6  2BB8               	goto	u4213
  5801     0BB7  07CD               	addwf	___flmul@prod+3,f
  5802     0BB8                     u4213:
  5803     0BB8                     l2731:
  5804     0BB8  3008               	movlw	8
  5805     0BB9  00BE               	movwf	??___flmul
  5806     0BBA                     u4225:
  5807     0BBA  1003               	clrc
  5808     0BBB  0DC4               	rlf	___flmul@grs,f
  5809     0BBC  0DC5               	rlf	___flmul@grs+1,f
  5810     0BBD  0DC6               	rlf	___flmul@grs+2,f
  5811     0BBE  0DC7               	rlf	___flmul@grs+3,f
  5812     0BBF  0BBE               	decfsz	??___flmul,f
  5813     0BC0  2BBA               	goto	u4225
  5814     0BC1                     l2733:
  5815     0BC1  0849               	movf	___flmul@bexp,w
  5816     0BC2  0748               	addwf	___flmul@aexp,w
  5817     0BC3  00BE               	movwf	??___flmul
  5818     0BC4  01BF               	clrf	??___flmul+1
  5819     0BC5  0DBF               	rlf	??___flmul+1,f
  5820     0BC6  083E               	movf	??___flmul,w
  5821     0BC7  3E82               	addlw	130
  5822     0BC8  00CE               	movwf	___flmul@temp
  5823     0BC9  083F               	movf	??___flmul+1,w
  5824     0BCA  1803               	skipnc
  5825     0BCB  3E01               	addlw	1
  5826     0BCC  3EFF               	addlw	255
  5827     0BCD  00CF               	movwf	___flmul@temp+1
  5828     0BCE  2BEC               	goto	l2745
  5829     0BCF                     l2735:
  5830     0BCF  3001               	movlw	1
  5831     0BD0  00BE               	movwf	??___flmul
  5832     0BD1                     u4235:
  5833     0BD1  1003               	clrc
  5834     0BD2  0DCA               	rlf	___flmul@prod,f
  5835     0BD3  0DCB               	rlf	___flmul@prod+1,f
  5836     0BD4  0DCC               	rlf	___flmul@prod+2,f
  5837     0BD5  0DCD               	rlf	___flmul@prod+3,f
  5838     0BD6  0BBE               	decfsz	??___flmul,f
  5839     0BD7  2BD1               	goto	u4235
  5840     0BD8                     l2737:
  5841     0BD8  1FC7               	btfss	___flmul@grs+3,7
  5842     0BD9  2BDB               	goto	u4241
  5843     0BDA  2BDC               	goto	u4240
  5844     0BDB                     u4241:
  5845     0BDB  2BDD               	goto	l2741
  5846     0BDC                     u4240:
  5847     0BDC                     l2739:
  5848     0BDC  144A               	bsf	___flmul@prod,0
  5849     0BDD                     l2741:
  5850     0BDD  3001               	movlw	1
  5851     0BDE  00BE               	movwf	??___flmul
  5852     0BDF                     u4255:
  5853     0BDF  1003               	clrc
  5854     0BE0  0DC4               	rlf	___flmul@grs,f
  5855     0BE1  0DC5               	rlf	___flmul@grs+1,f
  5856     0BE2  0DC6               	rlf	___flmul@grs+2,f
  5857     0BE3  0DC7               	rlf	___flmul@grs+3,f
  5858     0BE4  0BBE               	decfsz	??___flmul,f
  5859     0BE5  2BDF               	goto	u4255
  5860     0BE6                     l2743:
  5861     0BE6  30FF               	movlw	255
  5862     0BE7  07CE               	addwf	___flmul@temp,f
  5863     0BE8  1803               	skipnc
  5864     0BE9  0ACF               	incf	___flmul@temp+1,f
  5865     0BEA  30FF               	movlw	255
  5866     0BEB  07CF               	addwf	___flmul@temp+1,f
  5867     0BEC                     l2745:
  5868     0BEC  1FCC               	btfss	___flmul@prod+2,7
  5869     0BED  2BEF               	goto	u4261
  5870     0BEE  2BF0               	goto	u4260
  5871     0BEF                     u4261:
  5872     0BEF  2BCF               	goto	l2735
  5873     0BF0                     u4260:
  5874     0BF0                     l2747:
  5875     0BF0  01C8               	clrf	___flmul@aexp
  5876     0BF1                     l2749:
  5877     0BF1  1FC7               	btfss	___flmul@grs+3,7
  5878     0BF2  2BF4               	goto	u4271
  5879     0BF3  2BF5               	goto	u4270
  5880     0BF4                     u4271:
  5881     0BF4  2C11               	goto	l2757
  5882     0BF5                     u4270:
  5883     0BF5                     l2751:
  5884     0BF5  30FF               	movlw	255
  5885     0BF6  0544               	andwf	___flmul@grs,w
  5886     0BF7  00BE               	movwf	??___flmul
  5887     0BF8  30FF               	movlw	255
  5888     0BF9  0545               	andwf	___flmul@grs+1,w
  5889     0BFA  00BF               	movwf	??___flmul+1
  5890     0BFB  30FF               	movlw	255
  5891     0BFC  0546               	andwf	___flmul@grs+2,w
  5892     0BFD  00C0               	movwf	??___flmul+2
  5893     0BFE  307F               	movlw	127
  5894     0BFF  0547               	andwf	___flmul@grs+3,w
  5895     0C00  00C1               	movwf	??___flmul+3
  5896     0C01  0841               	movf	??___flmul+3,w
  5897     0C02  0440               	iorwf	??___flmul+2,w
  5898     0C03  043F               	iorwf	??___flmul+1,w
  5899     0C04  043E               	iorwf	??___flmul,w
  5900     0C05  1903               	skipnz
  5901     0C06  2C08               	goto	u4281
  5902     0C07  2C09               	goto	u4280
  5903     0C08                     u4281:
  5904     0C08  2C0C               	goto	l728
  5905     0C09                     u4280:
  5906     0C09                     l2753:
  5907     0C09  01C8               	clrf	___flmul@aexp
  5908     0C0A  0AC8               	incf	___flmul@aexp,f
  5909     0C0B  2C11               	goto	l2757
  5910     0C0C                     l728:
  5911     0C0C  1C4A               	btfss	___flmul@prod,0
  5912     0C0D  2C0F               	goto	u4291
  5913     0C0E  2C10               	goto	u4290
  5914     0C0F                     u4291:
  5915     0C0F  2C11               	goto	l2757
  5916     0C10                     u4290:
  5917     0C10  2C09               	goto	l2753
  5918     0C11                     l2757:
  5919     0C11  0848               	movf	___flmul@aexp,w
  5920     0C12  1903               	btfsc	3,2
  5921     0C13  2C15               	goto	u4301
  5922     0C14  2C16               	goto	u4300
  5923     0C15                     u4301:
  5924     0C15  2C47               	goto	l2767
  5925     0C16                     u4300:
  5926     0C16                     l2759:
  5927     0C16  3001               	movlw	1
  5928     0C17  07CA               	addwf	___flmul@prod,f
  5929     0C18  3000               	movlw	0
  5930     0C19  1803               	skipnc
  5931     0C1A  3001               	movlw	1
  5932     0C1B  07CB               	addwf	___flmul@prod+1,f
  5933     0C1C  3000               	movlw	0
  5934     0C1D  1803               	skipnc
  5935     0C1E  3001               	movlw	1
  5936     0C1F  07CC               	addwf	___flmul@prod+2,f
  5937     0C20  3000               	movlw	0
  5938     0C21  1803               	skipnc
  5939     0C22  3001               	movlw	1
  5940     0C23  07CD               	addwf	___flmul@prod+3,f
  5941     0C24                     l2761:
  5942     0C24  1C4D               	btfss	___flmul@prod+3,0
  5943     0C25  2C27               	goto	u4311
  5944     0C26  2C28               	goto	u4310
  5945     0C27                     u4311:
  5946     0C27  2C47               	goto	l2767
  5947     0C28                     u4310:
  5948     0C28                     l2763:
  5949     0C28  084A               	movf	___flmul@prod,w
  5950     0C29  00BE               	movwf	??___flmul
  5951     0C2A  084B               	movf	___flmul@prod+1,w
  5952     0C2B  00BF               	movwf	??___flmul+1
  5953     0C2C  084C               	movf	___flmul@prod+2,w
  5954     0C2D  00C0               	movwf	??___flmul+2
  5955     0C2E  084D               	movf	___flmul@prod+3,w
  5956     0C2F  00C1               	movwf	??___flmul+3
  5957     0C30  3001               	movlw	1
  5958     0C31  00C2               	movwf	??___flmul+4
  5959     0C32                     u4325:
  5960     0C32  0D41               	rlf	??___flmul+3,w
  5961     0C33  0CC1               	rrf	??___flmul+3,f
  5962     0C34  0CC0               	rrf	??___flmul+2,f
  5963     0C35  0CBF               	rrf	??___flmul+1,f
  5964     0C36  0CBE               	rrf	??___flmul,f
  5965     0C37                     u4320:
  5966     0C37  0BC2               	decfsz	??___flmul+4,f
  5967     0C38  2C32               	goto	u4325
  5968     0C39  0841               	movf	??___flmul+3,w
  5969     0C3A  00CD               	movwf	___flmul@prod+3
  5970     0C3B  0840               	movf	??___flmul+2,w
  5971     0C3C  00CC               	movwf	___flmul@prod+2
  5972     0C3D  083F               	movf	??___flmul+1,w
  5973     0C3E  00CB               	movwf	___flmul@prod+1
  5974     0C3F  083E               	movf	??___flmul,w
  5975     0C40  00CA               	movwf	___flmul@prod
  5976     0C41                     l2765:
  5977     0C41  3001               	movlw	1
  5978     0C42  07CE               	addwf	___flmul@temp,f
  5979     0C43  1803               	skipnc
  5980     0C44  0ACF               	incf	___flmul@temp+1,f
  5981     0C45  3000               	movlw	0
  5982     0C46  07CF               	addwf	___flmul@temp+1,f
  5983     0C47                     l2767:
  5984     0C47  084F               	movf	___flmul@temp+1,w
  5985     0C48  3A80               	xorlw	128
  5986     0C49  00FF               	movwf	btemp+1
  5987     0C4A  3080               	movlw	128
  5988     0C4B  027F               	subwf	btemp+1,w
  5989     0C4C  1D03               	skipz
  5990     0C4D  2C50               	goto	u4335
  5991     0C4E  30FF               	movlw	255
  5992     0C4F  024E               	subwf	___flmul@temp,w
  5993     0C50                     u4335:
  5994     0C50  1C03               	skipc
  5995     0C51  2C53               	goto	u4331
  5996     0C52  2C54               	goto	u4330
  5997     0C53                     u4331:
  5998     0C53  2C5F               	goto	l2771
  5999     0C54                     u4330:
  6000     0C54                     l2769:
  6001     0C54  307F               	movlw	127
  6002     0C55  1283               	bcf	3,5	;RP0=0, select bank0
  6003     0C56  1303               	bcf	3,6	;RP1=0, select bank0
  6004     0C57  00CD               	movwf	___flmul@prod+3
  6005     0C58  3080               	movlw	128
  6006     0C59  00CC               	movwf	___flmul@prod+2
  6007     0C5A  3000               	movlw	0
  6008     0C5B  00CB               	movwf	___flmul@prod+1
  6009     0C5C  3000               	movlw	0
  6010     0C5D  00CA               	movwf	___flmul@prod
  6011     0C5E  2C90               	goto	l734
  6012     0C5F                     l2771:
  6013     0C5F  1283               	bcf	3,5	;RP0=0, select bank0
  6014     0C60  1303               	bcf	3,6	;RP1=0, select bank0
  6015     0C61  084F               	movf	___flmul@temp+1,w
  6016     0C62  3A80               	xorlw	128
  6017     0C63  00FF               	movwf	btemp+1
  6018     0C64  3080               	movlw	128
  6019     0C65  027F               	subwf	btemp+1,w
  6020     0C66  1D03               	skipz
  6021     0C67  2C6A               	goto	u4345
  6022     0C68  3001               	movlw	1
  6023     0C69  024E               	subwf	___flmul@temp,w
  6024     0C6A                     u4345:
  6025     0C6A  1803               	skipnc
  6026     0C6B  2C6D               	goto	u4341
  6027     0C6C  2C6E               	goto	u4340
  6028     0C6D                     u4341:
  6029     0C6D  2C7A               	goto	l2777
  6030     0C6E                     u4340:
  6031     0C6E                     l2773:
  6032     0C6E  3000               	movlw	0
  6033     0C6F  1283               	bcf	3,5	;RP0=0, select bank0
  6034     0C70  1303               	bcf	3,6	;RP1=0, select bank0
  6035     0C71  00CD               	movwf	___flmul@prod+3
  6036     0C72  3000               	movlw	0
  6037     0C73  00CC               	movwf	___flmul@prod+2
  6038     0C74  3000               	movlw	0
  6039     0C75  00CB               	movwf	___flmul@prod+1
  6040     0C76  3000               	movlw	0
  6041     0C77  00CA               	movwf	___flmul@prod
  6042     0C78                     l2775:
  6043     0C78  01C3               	clrf	___flmul@sign
  6044     0C79  2C90               	goto	l734
  6045     0C7A                     l2777:
  6046     0C7A  1283               	bcf	3,5	;RP0=0, select bank0
  6047     0C7B  1303               	bcf	3,6	;RP1=0, select bank0
  6048     0C7C  084E               	movf	___flmul@temp,w
  6049     0C7D  00C9               	movwf	___flmul@bexp
  6050     0C7E  30FF               	movlw	255
  6051     0C7F  05CA               	andwf	___flmul@prod,f
  6052     0C80  30FF               	movlw	255
  6053     0C81  05CB               	andwf	___flmul@prod+1,f
  6054     0C82  307F               	movlw	127
  6055     0C83  05CC               	andwf	___flmul@prod+2,f
  6056     0C84  3000               	movlw	0
  6057     0C85  05CD               	andwf	___flmul@prod+3,f
  6058     0C86                     l2779:
  6059     0C86  1C49               	btfss	___flmul@bexp,0
  6060     0C87  2C89               	goto	u4351
  6061     0C88  2C8A               	goto	u4350
  6062     0C89                     u4351:
  6063     0C89  2C8B               	goto	l2783
  6064     0C8A                     u4350:
  6065     0C8A                     l2781:
  6066     0C8A  17CC               	bsf	___flmul@prod+2,7
  6067     0C8B                     l2783:
  6068     0C8B  0849               	movf	___flmul@bexp,w
  6069     0C8C  00BE               	movwf	??___flmul
  6070     0C8D  1003               	clrc
  6071     0C8E  0C3E               	rrf	??___flmul,w
  6072     0C8F  00CD               	movwf	___flmul@prod+3
  6073     0C90                     l734:
  6074     0C90  0843               	movf	___flmul@sign,w
  6075     0C91  00BE               	movwf	??___flmul
  6076     0C92  083E               	movf	??___flmul,w
  6077     0C93  04CD               	iorwf	___flmul@prod+3,f
  6078     0C94                     l2785:
  6079     0C94  084D               	movf	___flmul@prod+3,w
  6080     0C95  00B9               	movwf	?___flmul+3
  6081     0C96  084C               	movf	___flmul@prod+2,w
  6082     0C97  00B8               	movwf	?___flmul+2
  6083     0C98  084B               	movf	___flmul@prod+1,w
  6084     0C99  00B7               	movwf	?___flmul+1
  6085     0C9A  084A               	movf	___flmul@prod,w
  6086     0C9B  00B6               	movwf	?___flmul
  6087     0C9C                     l722:
  6088     0C9C  0008               	return
  6089     0C9D                     __end_of___flmul:
  6090                           
  6091                           	psect	text9
  6092     1B02                     __ptext9:	
  6093 ;; *************** function __Umul8_16 *****************
  6094 ;; Defined at:
  6095 ;;		line 4 in file "C:\Program Files\Microchip\xc8\v2.40\pic\sources\c90\common\Umul8_16.c"
  6096 ;; Parameters:    Size  Location     Type
  6097 ;;  multiplier      1    wreg     unsigned char 
  6098 ;;  multiplicand    1    6[BANK0 ] unsigned char 
  6099 ;; Auto vars:     Size  Location     Type
  6100 ;;  multiplier      1   14[BANK0 ] unsigned char 
  6101 ;;  word_mpld       2   12[BANK0 ] unsigned int 
  6102 ;;  product         2   10[BANK0 ] unsigned int 
  6103 ;; Return value:  Size  Location     Type
  6104 ;;                  2    6[BANK0 ] unsigned int 
  6105 ;; Registers used:
  6106 ;;		wreg, status,2, status,0
  6107 ;; Tracked objects:
  6108 ;;		On entry : 0/0
  6109 ;;		On exit  : 0/0
  6110 ;;		Unchanged: 0/0
  6111 ;; Data sizes:     COMMON   BANK0   BANK1   BANK3   BANK2
  6112 ;;      Params:         0       2       0       0       0
  6113 ;;      Locals:         0       5       0       0       0
  6114 ;;      Temps:          0       2       0       0       0
  6115 ;;      Totals:         0       9       0       0       0
  6116 ;;Total ram usage:        9 bytes
  6117 ;; Hardware stack levels used: 1
  6118 ;; Hardware stack levels required when called: 2
  6119 ;; This function calls:
  6120 ;;		Nothing
  6121 ;; This function is called by:
  6122 ;;		___flmul
  6123 ;; This function uses a non-reentrant model
  6124 ;;
  6125                           
  6126     1B02                     __Umul8_16:	
  6127                           ;psect for function __Umul8_16
  6128                           
  6129                           
  6130                           ;incstack = 0
  6131                           ; Regs used in __Umul8_16: [wreg+status,2+status,0]
  6132                           ;__Umul8_16@multiplier stored from wreg
  6133     1B02  1283               	bcf	3,5	;RP0=0, select bank0
  6134     1B03  1303               	bcf	3,6	;RP1=0, select bank0
  6135     1B04  00AE               	movwf	__Umul8_16@multiplier
  6136     1B05                     l2311:
  6137     1B05  01AA               	clrf	__Umul8_16@product
  6138     1B06  01AB               	clrf	__Umul8_16@product+1
  6139     1B07                     l2313:
  6140     1B07  0826               	movf	__Umul8_16@multiplicand,w
  6141     1B08  00A8               	movwf	??__Umul8_16
  6142     1B09  01A9               	clrf	??__Umul8_16+1
  6143     1B0A  0828               	movf	??__Umul8_16,w
  6144     1B0B  00AC               	movwf	__Umul8_16@word_mpld
  6145     1B0C  0829               	movf	??__Umul8_16+1,w
  6146     1B0D  00AD               	movwf	__Umul8_16@word_mpld+1
  6147     1B0E                     l2315:
  6148     1B0E  1C2E               	btfss	__Umul8_16@multiplier,0
  6149     1B0F  2B11               	goto	u3181
  6150     1B10  2B12               	goto	u3180
  6151     1B11                     u3181:
  6152     1B11  2B18               	goto	l741
  6153     1B12                     u3180:
  6154     1B12                     l2317:
  6155     1B12  082C               	movf	__Umul8_16@word_mpld,w
  6156     1B13  07AA               	addwf	__Umul8_16@product,f
  6157     1B14  1803               	skipnc
  6158     1B15  0AAB               	incf	__Umul8_16@product+1,f
  6159     1B16  082D               	movf	__Umul8_16@word_mpld+1,w
  6160     1B17  07AB               	addwf	__Umul8_16@product+1,f
  6161     1B18                     l741:
  6162     1B18  3001               	movlw	1
  6163     1B19                     u3195:
  6164     1B19  1003               	clrc
  6165     1B1A  0DAC               	rlf	__Umul8_16@word_mpld,f
  6166     1B1B  0DAD               	rlf	__Umul8_16@word_mpld+1,f
  6167     1B1C  3EFF               	addlw	-1
  6168     1B1D  1D03               	skipz
  6169     1B1E  2B19               	goto	u3195
  6170     1B1F  1003               	clrc
  6171     1B20  0CAE               	rrf	__Umul8_16@multiplier,f
  6172     1B21                     l2319:
  6173     1B21  082E               	movf	__Umul8_16@multiplier,w
  6174     1B22  1D03               	btfss	3,2
  6175     1B23  2B25               	goto	u3201
  6176     1B24  2B26               	goto	u3200
  6177     1B25                     u3201:
  6178     1B25  2B0E               	goto	l2315
  6179     1B26                     u3200:
  6180     1B26                     l2321:
  6181     1B26  082B               	movf	__Umul8_16@product+1,w
  6182     1B27  00A7               	movwf	?__Umul8_16+1
  6183     1B28  082A               	movf	__Umul8_16@product,w
  6184     1B29  00A6               	movwf	?__Umul8_16
  6185     1B2A                     l743:
  6186     1B2A  0008               	return
  6187     1B2B                     __end_of__Umul8_16:
  6188                           
  6189                           	psect	text10
  6190     1E91                     __ptext10:	
  6191 ;; *************** function __tdiv_to_l_ *****************
  6192 ;; Defined at:
  6193 ;;		line 60 in file "C:\Program Files\Microchip\xc8\v2.40\pic\sources\c90\common\ftdivl.c"
  6194 ;; Parameters:    Size  Location     Type
  6195 ;;  f1              4    6[BANK0 ] float 
  6196 ;;  f2              4   10[BANK0 ] float 
  6197 ;; Auto vars:     Size  Location     Type
  6198 ;;  quot            4   17[BANK0 ] unsigned long 
  6199 ;;  exp1            1   22[BANK0 ] unsigned char 
  6200 ;;  cntr            1   21[BANK0 ] unsigned char 
  6201 ;; Return value:  Size  Location     Type
  6202 ;;                  4    6[BANK0 ] unsigned long 
  6203 ;; Registers used:
  6204 ;;		wreg, status,2, status,0
  6205 ;; Tracked objects:
  6206 ;;		On entry : 0/0
  6207 ;;		On exit  : 0/0
  6208 ;;		Unchanged: 0/0
  6209 ;; Data sizes:     COMMON   BANK0   BANK1   BANK3   BANK2
  6210 ;;      Params:         0       8       0       0       0
  6211 ;;      Locals:         0       6       0       0       0
  6212 ;;      Temps:          0       3       0       0       0
  6213 ;;      Totals:         0      17       0       0       0
  6214 ;;Total ram usage:       17 bytes
  6215 ;; Hardware stack levels used: 1
  6216 ;; Hardware stack levels required when called: 2
  6217 ;; This function calls:
  6218 ;;		Nothing
  6219 ;; This function is called by:
  6220 ;;		_sprintf
  6221 ;; This function uses a non-reentrant model
  6222 ;;
  6223                           
  6224     1E91                     __tdiv_to_l_:	
  6225                           ;psect for function __tdiv_to_l_
  6226                           
  6227     1E91                     l2847:	
  6228                           ;incstack = 0
  6229                           ; Regs used in __tdiv_to_l_: [wreg+status,2+status,0]
  6230                           
  6231     1E91  1283               	bcf	3,5	;RP0=0, select bank0
  6232     1E92  1303               	bcf	3,6	;RP1=0, select bank0
  6233     1E93  0826               	movf	__tdiv_to_l_@f1,w
  6234     1E94  00AE               	movwf	??__tdiv_to_l_
  6235     1E95  0827               	movf	__tdiv_to_l_@f1+1,w
  6236     1E96  00AF               	movwf	??__tdiv_to_l_+1
  6237     1E97  0828               	movf	__tdiv_to_l_@f1+2,w
  6238     1E98  00B0               	movwf	??__tdiv_to_l_+2
  6239     1E99  1003               	clrc
  6240     1E9A  0D2F               	rlf	??__tdiv_to_l_+1,w
  6241     1E9B  0D30               	rlf	??__tdiv_to_l_+2,w
  6242     1E9C  00B6               	movwf	__tdiv_to_l_@exp1
  6243     1E9D  0836               	movf	__tdiv_to_l_@exp1,w
  6244     1E9E  1D03               	btfss	3,2
  6245     1E9F  2EA1               	goto	u4611
  6246     1EA0  2EA2               	goto	u4610
  6247     1EA1                     u4611:
  6248     1EA1  2EAB               	goto	l2853
  6249     1EA2                     u4610:
  6250     1EA2                     l2849:
  6251     1EA2  3000               	movlw	0
  6252     1EA3  00A9               	movwf	?__tdiv_to_l_+3
  6253     1EA4  3000               	movlw	0
  6254     1EA5  00A8               	movwf	?__tdiv_to_l_+2
  6255     1EA6  3000               	movlw	0
  6256     1EA7  00A7               	movwf	?__tdiv_to_l_+1
  6257     1EA8  3000               	movlw	0
  6258     1EA9  00A6               	movwf	?__tdiv_to_l_
  6259     1EAA  2F47               	goto	l516
  6260     1EAB                     l2853:
  6261     1EAB  082A               	movf	__tdiv_to_l_@f2,w
  6262     1EAC  00AE               	movwf	??__tdiv_to_l_
  6263     1EAD  082B               	movf	__tdiv_to_l_@f2+1,w
  6264     1EAE  00AF               	movwf	??__tdiv_to_l_+1
  6265     1EAF  082C               	movf	__tdiv_to_l_@f2+2,w
  6266     1EB0  00B0               	movwf	??__tdiv_to_l_+2
  6267     1EB1  1003               	clrc
  6268     1EB2  0D2F               	rlf	??__tdiv_to_l_+1,w
  6269     1EB3  0D30               	rlf	??__tdiv_to_l_+2,w
  6270     1EB4  00B5               	movwf	__tdiv_to_l_@cntr
  6271     1EB5  0835               	movf	__tdiv_to_l_@cntr,w
  6272     1EB6  1D03               	btfss	3,2
  6273     1EB7  2EB9               	goto	u4621
  6274     1EB8  2EBA               	goto	u4620
  6275     1EB9                     u4621:
  6276     1EB9  2EBB               	goto	l517
  6277     1EBA                     u4620:
  6278     1EBA  2EA2               	goto	l2849
  6279     1EBB                     l517:
  6280     1EBB  17A7               	bsf	__tdiv_to_l_@f1+1,7
  6281     1EBC                     l2859:
  6282     1EBC  30FF               	movlw	255
  6283     1EBD  05A6               	andwf	__tdiv_to_l_@f1,f
  6284     1EBE  30FF               	movlw	255
  6285     1EBF  05A7               	andwf	__tdiv_to_l_@f1+1,f
  6286     1EC0  3000               	movlw	0
  6287     1EC1  05A8               	andwf	__tdiv_to_l_@f1+2,f
  6288     1EC2                     l2861:
  6289     1EC2  17AB               	bsf	__tdiv_to_l_@f2+1,7
  6290     1EC3  30FF               	movlw	255
  6291     1EC4  05AA               	andwf	__tdiv_to_l_@f2,f
  6292     1EC5  30FF               	movlw	255
  6293     1EC6  05AB               	andwf	__tdiv_to_l_@f2+1,f
  6294     1EC7  3000               	movlw	0
  6295     1EC8  05AC               	andwf	__tdiv_to_l_@f2+2,f
  6296     1EC9  3000               	movlw	0
  6297     1ECA  00B4               	movwf	__tdiv_to_l_@quot+3
  6298     1ECB  3000               	movlw	0
  6299     1ECC  00B3               	movwf	__tdiv_to_l_@quot+2
  6300     1ECD  3000               	movlw	0
  6301     1ECE  00B2               	movwf	__tdiv_to_l_@quot+1
  6302     1ECF  3000               	movlw	0
  6303     1ED0  00B1               	movwf	__tdiv_to_l_@quot
  6304     1ED1                     l2863:
  6305     1ED1  307F               	movlw	127
  6306     1ED2  02B6               	subwf	__tdiv_to_l_@exp1,f
  6307     1ED3                     l2865:
  6308     1ED3  3098               	movlw	152
  6309     1ED4  0735               	addwf	__tdiv_to_l_@cntr,w
  6310     1ED5  00AE               	movwf	??__tdiv_to_l_
  6311     1ED6  082E               	movf	??__tdiv_to_l_,w
  6312     1ED7  02B6               	subwf	__tdiv_to_l_@exp1,f
  6313     1ED8  3018               	movlw	24
  6314     1ED9  00B5               	movwf	__tdiv_to_l_@cntr
  6315     1EDA                     l2867:
  6316     1EDA  3001               	movlw	1
  6317     1EDB  00AE               	movwf	??__tdiv_to_l_
  6318     1EDC                     u4635:
  6319     1EDC  1003               	clrc
  6320     1EDD  0DB1               	rlf	__tdiv_to_l_@quot,f
  6321     1EDE  0DB2               	rlf	__tdiv_to_l_@quot+1,f
  6322     1EDF  0DB3               	rlf	__tdiv_to_l_@quot+2,f
  6323     1EE0  0DB4               	rlf	__tdiv_to_l_@quot+3,f
  6324     1EE1  0BAE               	decfsz	??__tdiv_to_l_,f
  6325     1EE2  2EDC               	goto	u4635
  6326     1EE3                     l2869:
  6327     1EE3  082C               	movf	__tdiv_to_l_@f2+2,w
  6328     1EE4  0228               	subwf	__tdiv_to_l_@f1+2,w
  6329     1EE5  1D03               	skipz
  6330     1EE6  2EED               	goto	u4645
  6331     1EE7  082B               	movf	__tdiv_to_l_@f2+1,w
  6332     1EE8  0227               	subwf	__tdiv_to_l_@f1+1,w
  6333     1EE9  1D03               	skipz
  6334     1EEA  2EED               	goto	u4645
  6335     1EEB  082A               	movf	__tdiv_to_l_@f2,w
  6336     1EEC  0226               	subwf	__tdiv_to_l_@f1,w
  6337     1EED                     u4645:
  6338     1EED  1C03               	skipc
  6339     1EEE  2EF0               	goto	u4641
  6340     1EEF  2EF1               	goto	u4640
  6341     1EF0                     u4641:
  6342     1EF0  2EFC               	goto	l2875
  6343     1EF1                     u4640:
  6344     1EF1                     l2871:
  6345     1EF1  082A               	movf	__tdiv_to_l_@f2,w
  6346     1EF2  02A6               	subwf	__tdiv_to_l_@f1,f
  6347     1EF3  082B               	movf	__tdiv_to_l_@f2+1,w
  6348     1EF4  1C03               	skipc
  6349     1EF5  0F2B               	incfsz	__tdiv_to_l_@f2+1,w
  6350     1EF6  02A7               	subwf	__tdiv_to_l_@f1+1,f
  6351     1EF7  082C               	movf	__tdiv_to_l_@f2+2,w
  6352     1EF8  1C03               	skipc
  6353     1EF9  0A2C               	incf	__tdiv_to_l_@f2+2,w
  6354     1EFA  02A8               	subwf	__tdiv_to_l_@f1+2,f
  6355     1EFB                     l2873:
  6356     1EFB  1431               	bsf	__tdiv_to_l_@quot,0
  6357     1EFC                     l2875:
  6358     1EFC  3001               	movlw	1
  6359     1EFD                     u4655:
  6360     1EFD  1003               	clrc
  6361     1EFE  0DA6               	rlf	__tdiv_to_l_@f1,f
  6362     1EFF  0DA7               	rlf	__tdiv_to_l_@f1+1,f
  6363     1F00  0DA8               	rlf	__tdiv_to_l_@f1+2,f
  6364     1F01  3EFF               	addlw	-1
  6365     1F02  1D03               	skipz
  6366     1F03  2EFD               	goto	u4655
  6367     1F04                     l2877:
  6368     1F04  3001               	movlw	1
  6369     1F05  02B5               	subwf	__tdiv_to_l_@cntr,f
  6370     1F06  1D03               	btfss	3,2
  6371     1F07  2F09               	goto	u4661
  6372     1F08  2F0A               	goto	u4660
  6373     1F09                     u4661:
  6374     1F09  2EDA               	goto	l2867
  6375     1F0A                     u4660:
  6376     1F0A                     l520:
  6377     1F0A  1FB6               	btfss	__tdiv_to_l_@exp1,7
  6378     1F0B  2F0D               	goto	u4671
  6379     1F0C  2F0E               	goto	u4670
  6380     1F0D                     u4671:
  6381     1F0D  2F28               	goto	l2887
  6382     1F0E                     u4670:
  6383     1F0E                     l2879:
  6384     1F0E  0836               	movf	__tdiv_to_l_@exp1,w
  6385     1F0F  3A80               	xorlw	128
  6386     1F10  3E97               	addlw	151
  6387     1F11  1803               	skipnc
  6388     1F12  2F14               	goto	u4681
  6389     1F13  2F15               	goto	u4680
  6390     1F14                     u4681:
  6391     1F14  2F16               	goto	l2885
  6392     1F15                     u4680:
  6393     1F15  2EA2               	goto	l2849
  6394     1F16                     l2885:
  6395     1F16  3001               	movlw	1
  6396     1F17                     u4695:
  6397     1F17  1003               	clrc
  6398     1F18  0CB4               	rrf	__tdiv_to_l_@quot+3,f
  6399     1F19  0CB3               	rrf	__tdiv_to_l_@quot+2,f
  6400     1F1A  0CB2               	rrf	__tdiv_to_l_@quot+1,f
  6401     1F1B  0CB1               	rrf	__tdiv_to_l_@quot,f
  6402     1F1C  3EFF               	addlw	-1
  6403     1F1D  1D03               	skipz
  6404     1F1E  2F17               	goto	u4695
  6405     1F1F  3001               	movlw	1
  6406     1F20  00AE               	movwf	??__tdiv_to_l_
  6407     1F21  082E               	movf	??__tdiv_to_l_,w
  6408     1F22  07B6               	addwf	__tdiv_to_l_@exp1,f
  6409     1F23  1D03               	btfss	3,2
  6410     1F24  2F26               	goto	u4701
  6411     1F25  2F27               	goto	u4700
  6412     1F26                     u4701:
  6413     1F26  2F16               	goto	l2885
  6414     1F27                     u4700:
  6415     1F27  2F3F               	goto	l2895
  6416     1F28                     l2887:
  6417     1F28  3018               	movlw	24
  6418     1F29  0236               	subwf	__tdiv_to_l_@exp1,w
  6419     1F2A  1C03               	skipc
  6420     1F2B  2F2D               	goto	u4711
  6421     1F2C  2F2E               	goto	u4710
  6422     1F2D                     u4711:
  6423     1F2D  2F3A               	goto	l527
  6424     1F2E                     u4710:
  6425     1F2E  2EA2               	goto	l2849
  6426     1F2F                     l2893:
  6427     1F2F  3001               	movlw	1
  6428     1F30  00AE               	movwf	??__tdiv_to_l_
  6429     1F31                     u4725:
  6430     1F31  1003               	clrc
  6431     1F32  0DB1               	rlf	__tdiv_to_l_@quot,f
  6432     1F33  0DB2               	rlf	__tdiv_to_l_@quot+1,f
  6433     1F34  0DB3               	rlf	__tdiv_to_l_@quot+2,f
  6434     1F35  0DB4               	rlf	__tdiv_to_l_@quot+3,f
  6435     1F36  0BAE               	decfsz	??__tdiv_to_l_,f
  6436     1F37  2F31               	goto	u4725
  6437     1F38  3001               	movlw	1
  6438     1F39  02B6               	subwf	__tdiv_to_l_@exp1,f
  6439     1F3A                     l527:
  6440     1F3A  0836               	movf	__tdiv_to_l_@exp1,w
  6441     1F3B  1D03               	btfss	3,2
  6442     1F3C  2F3E               	goto	u4731
  6443     1F3D  2F3F               	goto	u4730
  6444     1F3E                     u4731:
  6445     1F3E  2F2F               	goto	l2893
  6446     1F3F                     u4730:
  6447     1F3F                     l2895:
  6448     1F3F  0834               	movf	__tdiv_to_l_@quot+3,w
  6449     1F40  00A9               	movwf	?__tdiv_to_l_+3
  6450     1F41  0833               	movf	__tdiv_to_l_@quot+2,w
  6451     1F42  00A8               	movwf	?__tdiv_to_l_+2
  6452     1F43  0832               	movf	__tdiv_to_l_@quot+1,w
  6453     1F44  00A7               	movwf	?__tdiv_to_l_+1
  6454     1F45  0831               	movf	__tdiv_to_l_@quot,w
  6455     1F46  00A6               	movwf	?__tdiv_to_l_
  6456     1F47                     l516:
  6457     1F47  0008               	return
  6458     1F48                     __end_of__tdiv_to_l_:
  6459                           
  6460                           	psect	text11
  6461     1051                     __ptext11:	
  6462 ;; *************** function __div_to_l_ *****************
  6463 ;; Defined at:
  6464 ;;		line 60 in file "C:\Program Files\Microchip\xc8\v2.40\pic\sources\c90\common\fldivl.c"
  6465 ;; Parameters:    Size  Location     Type
  6466 ;;  f1              4    6[BANK0 ] unsigned long 
  6467 ;;  f2              4   10[BANK0 ] unsigned long 
  6468 ;; Auto vars:     Size  Location     Type
  6469 ;;  quot            4   15[BANK0 ] unsigned long 
  6470 ;;  exp1            1   20[BANK0 ] unsigned char 
  6471 ;;  cntr            1   19[BANK0 ] unsigned char 
  6472 ;; Return value:  Size  Location     Type
  6473 ;;                  4    6[BANK0 ] unsigned long 
  6474 ;; Registers used:
  6475 ;;		wreg, status,2, status,0
  6476 ;; Tracked objects:
  6477 ;;		On entry : 0/0
  6478 ;;		On exit  : 0/0
  6479 ;;		Unchanged: 0/0
  6480 ;; Data sizes:     COMMON   BANK0   BANK1   BANK3   BANK2
  6481 ;;      Params:         0       8       0       0       0
  6482 ;;      Locals:         0       6       0       0       0
  6483 ;;      Temps:          0       1       0       0       0
  6484 ;;      Totals:         0      15       0       0       0
  6485 ;;Total ram usage:       15 bytes
  6486 ;; Hardware stack levels used: 1
  6487 ;; Hardware stack levels required when called: 2
  6488 ;; This function calls:
  6489 ;;		Nothing
  6490 ;; This function is called by:
  6491 ;;		_sprintf
  6492 ;; This function uses a non-reentrant model
  6493 ;;
  6494                           
  6495     1051                     __div_to_l_:	
  6496                           ;psect for function __div_to_l_
  6497                           
  6498     1051                     l2899:	
  6499                           ;incstack = 0
  6500                           ; Regs used in __div_to_l_: [wreg+status,2+status,0]
  6501                           
  6502     1051  1003               	clrc
  6503     1052  1283               	bcf	3,5	;RP0=0, select bank0
  6504     1053  1303               	bcf	3,6	;RP1=0, select bank0
  6505     1054  0D28               	rlf	__div_to_l_@f1+2,w
  6506     1055  0D29               	rlf	__div_to_l_@f1+3,w
  6507     1056  00B4               	movwf	__div_to_l_@exp1
  6508     1057  0834               	movf	__div_to_l_@exp1,w
  6509     1058  1D03               	btfss	3,2
  6510     1059  285B               	goto	u4741
  6511     105A  285C               	goto	u4740
  6512     105B                     u4741:
  6513     105B  2865               	goto	l2905
  6514     105C                     u4740:
  6515     105C                     l2901:
  6516     105C  3000               	movlw	0
  6517     105D  00A9               	movwf	?__div_to_l_+3
  6518     105E  3000               	movlw	0
  6519     105F  00A8               	movwf	?__div_to_l_+2
  6520     1060  3000               	movlw	0
  6521     1061  00A7               	movwf	?__div_to_l_+1
  6522     1062  3000               	movlw	0
  6523     1063  00A6               	movwf	?__div_to_l_
  6524     1064  2908               	goto	l469
  6525     1065                     l2905:
  6526     1065  1003               	clrc
  6527     1066  0D2C               	rlf	__div_to_l_@f2+2,w
  6528     1067  0D2D               	rlf	__div_to_l_@f2+3,w
  6529     1068  00B3               	movwf	__div_to_l_@cntr
  6530     1069  0833               	movf	__div_to_l_@cntr,w
  6531     106A  1D03               	btfss	3,2
  6532     106B  286D               	goto	u4751
  6533     106C  286E               	goto	u4750
  6534     106D                     u4751:
  6535     106D  286F               	goto	l470
  6536     106E                     u4750:
  6537     106E  285C               	goto	l2901
  6538     106F                     l470:
  6539     106F  17A8               	bsf	__div_to_l_@f1+2,7
  6540     1070                     l2911:
  6541     1070  30FF               	movlw	255
  6542     1071  05A6               	andwf	__div_to_l_@f1,f
  6543     1072  30FF               	movlw	255
  6544     1073  05A7               	andwf	__div_to_l_@f1+1,f
  6545     1074  30FF               	movlw	255
  6546     1075  05A8               	andwf	__div_to_l_@f1+2,f
  6547     1076  3000               	movlw	0
  6548     1077  05A9               	andwf	__div_to_l_@f1+3,f
  6549     1078                     l2913:
  6550     1078  17AC               	bsf	__div_to_l_@f2+2,7
  6551     1079  30FF               	movlw	255
  6552     107A  05AA               	andwf	__div_to_l_@f2,f
  6553     107B  30FF               	movlw	255
  6554     107C  05AB               	andwf	__div_to_l_@f2+1,f
  6555     107D  30FF               	movlw	255
  6556     107E  05AC               	andwf	__div_to_l_@f2+2,f
  6557     107F  3000               	movlw	0
  6558     1080  05AD               	andwf	__div_to_l_@f2+3,f
  6559     1081  3000               	movlw	0
  6560     1082  00B2               	movwf	__div_to_l_@quot+3
  6561     1083  3000               	movlw	0
  6562     1084  00B1               	movwf	__div_to_l_@quot+2
  6563     1085  3000               	movlw	0
  6564     1086  00B0               	movwf	__div_to_l_@quot+1
  6565     1087  3000               	movlw	0
  6566     1088  00AF               	movwf	__div_to_l_@quot
  6567     1089                     l2915:
  6568     1089  307F               	movlw	127
  6569     108A  02B4               	subwf	__div_to_l_@exp1,f
  6570     108B                     l2917:
  6571     108B  30A0               	movlw	160
  6572     108C  0733               	addwf	__div_to_l_@cntr,w
  6573     108D  00AE               	movwf	??__div_to_l_
  6574     108E  082E               	movf	??__div_to_l_,w
  6575     108F  02B4               	subwf	__div_to_l_@exp1,f
  6576     1090  3020               	movlw	32
  6577     1091  00B3               	movwf	__div_to_l_@cntr
  6578     1092                     l2919:
  6579     1092  3001               	movlw	1
  6580     1093  00AE               	movwf	??__div_to_l_
  6581     1094                     u4765:
  6582     1094  1003               	clrc
  6583     1095  0DAF               	rlf	__div_to_l_@quot,f
  6584     1096  0DB0               	rlf	__div_to_l_@quot+1,f
  6585     1097  0DB1               	rlf	__div_to_l_@quot+2,f
  6586     1098  0DB2               	rlf	__div_to_l_@quot+3,f
  6587     1099  0BAE               	decfsz	??__div_to_l_,f
  6588     109A  2894               	goto	u4765
  6589     109B                     l2921:
  6590     109B  082D               	movf	__div_to_l_@f2+3,w
  6591     109C  0229               	subwf	__div_to_l_@f1+3,w
  6592     109D  1D03               	skipz
  6593     109E  28A9               	goto	u4775
  6594     109F  082C               	movf	__div_to_l_@f2+2,w
  6595     10A0  0228               	subwf	__div_to_l_@f1+2,w
  6596     10A1  1D03               	skipz
  6597     10A2  28A9               	goto	u4775
  6598     10A3  082B               	movf	__div_to_l_@f2+1,w
  6599     10A4  0227               	subwf	__div_to_l_@f1+1,w
  6600     10A5  1D03               	skipz
  6601     10A6  28A9               	goto	u4775
  6602     10A7  082A               	movf	__div_to_l_@f2,w
  6603     10A8  0226               	subwf	__div_to_l_@f1,w
  6604     10A9                     u4775:
  6605     10A9  1C03               	skipc
  6606     10AA  28AC               	goto	u4771
  6607     10AB  28AD               	goto	u4770
  6608     10AC                     u4771:
  6609     10AC  28BC               	goto	l2927
  6610     10AD                     u4770:
  6611     10AD                     l2923:
  6612     10AD  082A               	movf	__div_to_l_@f2,w
  6613     10AE  02A6               	subwf	__div_to_l_@f1,f
  6614     10AF  082B               	movf	__div_to_l_@f2+1,w
  6615     10B0  1C03               	skipc
  6616     10B1  0F2B               	incfsz	__div_to_l_@f2+1,w
  6617     10B2  02A7               	subwf	__div_to_l_@f1+1,f
  6618     10B3  082C               	movf	__div_to_l_@f2+2,w
  6619     10B4  1C03               	skipc
  6620     10B5  0F2C               	incfsz	__div_to_l_@f2+2,w
  6621     10B6  02A8               	subwf	__div_to_l_@f1+2,f
  6622     10B7  082D               	movf	__div_to_l_@f2+3,w
  6623     10B8  1C03               	skipc
  6624     10B9  0F2D               	incfsz	__div_to_l_@f2+3,w
  6625     10BA  02A9               	subwf	__div_to_l_@f1+3,f
  6626     10BB                     l2925:
  6627     10BB  142F               	bsf	__div_to_l_@quot,0
  6628     10BC                     l2927:
  6629     10BC  3001               	movlw	1
  6630     10BD  00AE               	movwf	??__div_to_l_
  6631     10BE                     u4785:
  6632     10BE  1003               	clrc
  6633     10BF  0DA6               	rlf	__div_to_l_@f1,f
  6634     10C0  0DA7               	rlf	__div_to_l_@f1+1,f
  6635     10C1  0DA8               	rlf	__div_to_l_@f1+2,f
  6636     10C2  0DA9               	rlf	__div_to_l_@f1+3,f
  6637     10C3  0BAE               	decfsz	??__div_to_l_,f
  6638     10C4  28BE               	goto	u4785
  6639     10C5                     l2929:
  6640     10C5  3001               	movlw	1
  6641     10C6  02B3               	subwf	__div_to_l_@cntr,f
  6642     10C7  1D03               	btfss	3,2
  6643     10C8  28CA               	goto	u4791
  6644     10C9  28CB               	goto	u4790
  6645     10CA                     u4791:
  6646     10CA  2892               	goto	l2919
  6647     10CB                     u4790:
  6648     10CB                     l473:
  6649     10CB  1FB4               	btfss	__div_to_l_@exp1,7
  6650     10CC  28CE               	goto	u4801
  6651     10CD  28CF               	goto	u4800
  6652     10CE                     u4801:
  6653     10CE  28E9               	goto	l2939
  6654     10CF                     u4800:
  6655     10CF                     l2931:
  6656     10CF  0834               	movf	__div_to_l_@exp1,w
  6657     10D0  3A80               	xorlw	128
  6658     10D1  3E9F               	addlw	159
  6659     10D2  1803               	skipnc
  6660     10D3  28D5               	goto	u4811
  6661     10D4  28D6               	goto	u4810
  6662     10D5                     u4811:
  6663     10D5  28D7               	goto	l2937
  6664     10D6                     u4810:
  6665     10D6  285C               	goto	l2901
  6666     10D7                     l2937:
  6667     10D7  3001               	movlw	1
  6668     10D8                     u4825:
  6669     10D8  1003               	clrc
  6670     10D9  0CB2               	rrf	__div_to_l_@quot+3,f
  6671     10DA  0CB1               	rrf	__div_to_l_@quot+2,f
  6672     10DB  0CB0               	rrf	__div_to_l_@quot+1,f
  6673     10DC  0CAF               	rrf	__div_to_l_@quot,f
  6674     10DD  3EFF               	addlw	-1
  6675     10DE  1D03               	skipz
  6676     10DF  28D8               	goto	u4825
  6677     10E0  3001               	movlw	1
  6678     10E1  00AE               	movwf	??__div_to_l_
  6679     10E2  082E               	movf	??__div_to_l_,w
  6680     10E3  07B4               	addwf	__div_to_l_@exp1,f
  6681     10E4  1D03               	btfss	3,2
  6682     10E5  28E7               	goto	u4831
  6683     10E6  28E8               	goto	u4830
  6684     10E7                     u4831:
  6685     10E7  28D7               	goto	l2937
  6686     10E8                     u4830:
  6687     10E8  2900               	goto	l2947
  6688     10E9                     l2939:
  6689     10E9  3020               	movlw	32
  6690     10EA  0234               	subwf	__div_to_l_@exp1,w
  6691     10EB  1C03               	skipc
  6692     10EC  28EE               	goto	u4841
  6693     10ED  28EF               	goto	u4840
  6694     10EE                     u4841:
  6695     10EE  28FB               	goto	l480
  6696     10EF                     u4840:
  6697     10EF  285C               	goto	l2901
  6698     10F0                     l2945:
  6699     10F0  3001               	movlw	1
  6700     10F1  00AE               	movwf	??__div_to_l_
  6701     10F2                     u4855:
  6702     10F2  1003               	clrc
  6703     10F3  0DAF               	rlf	__div_to_l_@quot,f
  6704     10F4  0DB0               	rlf	__div_to_l_@quot+1,f
  6705     10F5  0DB1               	rlf	__div_to_l_@quot+2,f
  6706     10F6  0DB2               	rlf	__div_to_l_@quot+3,f
  6707     10F7  0BAE               	decfsz	??__div_to_l_,f
  6708     10F8  28F2               	goto	u4855
  6709     10F9  3001               	movlw	1
  6710     10FA  02B4               	subwf	__div_to_l_@exp1,f
  6711     10FB                     l480:
  6712     10FB  0834               	movf	__div_to_l_@exp1,w
  6713     10FC  1D03               	btfss	3,2
  6714     10FD  28FF               	goto	u4861
  6715     10FE  2900               	goto	u4860
  6716     10FF                     u4861:
  6717     10FF  28F0               	goto	l2945
  6718     1100                     u4860:
  6719     1100                     l2947:
  6720     1100  0832               	movf	__div_to_l_@quot+3,w
  6721     1101  00A9               	movwf	?__div_to_l_+3
  6722     1102  0831               	movf	__div_to_l_@quot+2,w
  6723     1103  00A8               	movwf	?__div_to_l_+2
  6724     1104  0830               	movf	__div_to_l_@quot+1,w
  6725     1105  00A7               	movwf	?__div_to_l_+1
  6726     1106  082F               	movf	__div_to_l_@quot,w
  6727     1107  00A6               	movwf	?__div_to_l_
  6728     1108                     l469:
  6729     1108  0008               	return
  6730     1109                     __end_of__div_to_l_:
  6731                           
  6732                           	psect	text12
  6733     089E                     __ptext12:	
  6734 ;; *************** function ___xxtofl *****************
  6735 ;; Defined at:
  6736 ;;		line 10 in file "C:\Program Files\Microchip\xc8\v2.40\pic\sources\c90\common\xxtofl.c"
  6737 ;; Parameters:    Size  Location     Type
  6738 ;;  sign            1    wreg     unsigned char 
  6739 ;;  val             4    6[BANK0 ] long 
  6740 ;; Auto vars:     Size  Location     Type
  6741 ;;  sign            1   14[BANK0 ] unsigned char 
  6742 ;;  arg             4   16[BANK0 ] unsigned long 
  6743 ;;  exp             1   15[BANK0 ] unsigned char 
  6744 ;; Return value:  Size  Location     Type
  6745 ;;                  4    6[BANK0 ] unsigned char 
  6746 ;; Registers used:
  6747 ;;		wreg, status,2, status,0
  6748 ;; Tracked objects:
  6749 ;;		On entry : 0/0
  6750 ;;		On exit  : 0/0
  6751 ;;		Unchanged: 0/0
  6752 ;; Data sizes:     COMMON   BANK0   BANK1   BANK3   BANK2
  6753 ;;      Params:         0       4       0       0       0
  6754 ;;      Locals:         0       6       0       0       0
  6755 ;;      Temps:          0       4       0       0       0
  6756 ;;      Totals:         0      14       0       0       0
  6757 ;;Total ram usage:       14 bytes
  6758 ;; Hardware stack levels used: 1
  6759 ;; Hardware stack levels required when called: 2
  6760 ;; This function calls:
  6761 ;;		Nothing
  6762 ;; This function is called by:
  6763 ;;		_sprintf
  6764 ;; This function uses a non-reentrant model
  6765 ;;
  6766                           
  6767     089E                     ___xxtofl:	
  6768                           ;psect for function ___xxtofl
  6769                           
  6770                           
  6771                           ;incstack = 0
  6772                           ; Regs used in ___xxtofl: [wreg+status,2+status,0]
  6773                           ;___xxtofl@sign stored from wreg
  6774     089E  1283               	bcf	3,5	;RP0=0, select bank0
  6775     089F  1303               	bcf	3,6	;RP1=0, select bank0
  6776     08A0  00AE               	movwf	___xxtofl@sign
  6777     08A1                     l3091:
  6778     08A1  082E               	movf	___xxtofl@sign,w
  6779     08A2  1903               	btfsc	3,2
  6780     08A3  28A5               	goto	u5251
  6781     08A4  28A6               	goto	u5250
  6782     08A5                     u5251:
  6783     08A5  28BA               	goto	l3097
  6784     08A6                     u5250:
  6785     08A6                     l3093:
  6786     08A6  1FA9               	btfss	___xxtofl@val+3,7
  6787     08A7  28A9               	goto	u5261
  6788     08A8  28AA               	goto	u5260
  6789     08A9                     u5261:
  6790     08A9  28BA               	goto	l3097
  6791     08AA                     u5260:
  6792     08AA                     l3095:
  6793     08AA  0926               	comf	___xxtofl@val,w
  6794     08AB  00B0               	movwf	___xxtofl@arg
  6795     08AC  0927               	comf	___xxtofl@val+1,w
  6796     08AD  00B1               	movwf	___xxtofl@arg+1
  6797     08AE  0928               	comf	___xxtofl@val+2,w
  6798     08AF  00B2               	movwf	___xxtofl@arg+2
  6799     08B0  0929               	comf	___xxtofl@val+3,w
  6800     08B1  00B3               	movwf	___xxtofl@arg+3
  6801     08B2  0AB0               	incf	___xxtofl@arg,f
  6802     08B3  1903               	skipnz
  6803     08B4  0AB1               	incf	___xxtofl@arg+1,f
  6804     08B5  1903               	skipnz
  6805     08B6  0AB2               	incf	___xxtofl@arg+2,f
  6806     08B7  1903               	skipnz
  6807     08B8  0AB3               	incf	___xxtofl@arg+3,f
  6808     08B9  28C2               	goto	l766
  6809     08BA                     l3097:
  6810     08BA  0829               	movf	___xxtofl@val+3,w
  6811     08BB  00B3               	movwf	___xxtofl@arg+3
  6812     08BC  0828               	movf	___xxtofl@val+2,w
  6813     08BD  00B2               	movwf	___xxtofl@arg+2
  6814     08BE  0827               	movf	___xxtofl@val+1,w
  6815     08BF  00B1               	movwf	___xxtofl@arg+1
  6816     08C0  0826               	movf	___xxtofl@val,w
  6817     08C1  00B0               	movwf	___xxtofl@arg
  6818     08C2                     l766:
  6819     08C2  0829               	movf	___xxtofl@val+3,w
  6820     08C3  0428               	iorwf	___xxtofl@val+2,w
  6821     08C4  0427               	iorwf	___xxtofl@val+1,w
  6822     08C5  0426               	iorwf	___xxtofl@val,w
  6823     08C6  1D03               	skipz
  6824     08C7  28C9               	goto	u5271
  6825     08C8  28CA               	goto	u5270
  6826     08C9                     u5271:
  6827     08C9  28D3               	goto	l3103
  6828     08CA                     u5270:
  6829     08CA                     l3099:
  6830     08CA  3000               	movlw	0
  6831     08CB  00A9               	movwf	?___xxtofl+3
  6832     08CC  3000               	movlw	0
  6833     08CD  00A8               	movwf	?___xxtofl+2
  6834     08CE  3000               	movlw	0
  6835     08CF  00A7               	movwf	?___xxtofl+1
  6836     08D0  3000               	movlw	0
  6837     08D1  00A6               	movwf	?___xxtofl
  6838     08D2  2957               	goto	l768
  6839     08D3                     l3103:
  6840     08D3  3096               	movlw	150
  6841     08D4  00AF               	movwf	___xxtofl@exp
  6842     08D5  28E3               	goto	l3107
  6843     08D6                     l3105:
  6844     08D6  3001               	movlw	1
  6845     08D7  00AA               	movwf	??___xxtofl
  6846     08D8  082A               	movf	??___xxtofl,w
  6847     08D9  07AF               	addwf	___xxtofl@exp,f
  6848     08DA  3001               	movlw	1
  6849     08DB                     u5285:
  6850     08DB  1003               	clrc
  6851     08DC  0CB3               	rrf	___xxtofl@arg+3,f
  6852     08DD  0CB2               	rrf	___xxtofl@arg+2,f
  6853     08DE  0CB1               	rrf	___xxtofl@arg+1,f
  6854     08DF  0CB0               	rrf	___xxtofl@arg,f
  6855     08E0  3EFF               	addlw	-1
  6856     08E1  1D03               	skipz
  6857     08E2  28DB               	goto	u5285
  6858     08E3                     l3107:
  6859     08E3  30FE               	movlw	254
  6860     08E4  0533               	andwf	___xxtofl@arg+3,w
  6861     08E5  1D03               	btfss	3,2
  6862     08E6  28E8               	goto	u5291
  6863     08E7  28E9               	goto	u5290
  6864     08E8                     u5291:
  6865     08E8  28D6               	goto	l3105
  6866     08E9                     u5290:
  6867     08E9  2905               	goto	l772
  6868     08EA                     l3109:
  6869     08EA  3001               	movlw	1
  6870     08EB  00AA               	movwf	??___xxtofl
  6871     08EC  082A               	movf	??___xxtofl,w
  6872     08ED  07AF               	addwf	___xxtofl@exp,f
  6873     08EE                     l3111:
  6874     08EE  3001               	movlw	1
  6875     08EF  07B0               	addwf	___xxtofl@arg,f
  6876     08F0  3000               	movlw	0
  6877     08F1  1803               	skipnc
  6878     08F2  3001               	movlw	1
  6879     08F3  07B1               	addwf	___xxtofl@arg+1,f
  6880     08F4  3000               	movlw	0
  6881     08F5  1803               	skipnc
  6882     08F6  3001               	movlw	1
  6883     08F7  07B2               	addwf	___xxtofl@arg+2,f
  6884     08F8  3000               	movlw	0
  6885     08F9  1803               	skipnc
  6886     08FA  3001               	movlw	1
  6887     08FB  07B3               	addwf	___xxtofl@arg+3,f
  6888     08FC                     l3113:
  6889     08FC  3001               	movlw	1
  6890     08FD                     u5305:
  6891     08FD  1003               	clrc
  6892     08FE  0CB3               	rrf	___xxtofl@arg+3,f
  6893     08FF  0CB2               	rrf	___xxtofl@arg+2,f
  6894     0900  0CB1               	rrf	___xxtofl@arg+1,f
  6895     0901  0CB0               	rrf	___xxtofl@arg,f
  6896     0902  3EFF               	addlw	-1
  6897     0903  1D03               	skipz
  6898     0904  28FD               	goto	u5305
  6899     0905                     l772:
  6900     0905  30FF               	movlw	255
  6901     0906  0533               	andwf	___xxtofl@arg+3,w
  6902     0907  1D03               	btfss	3,2
  6903     0908  290A               	goto	u5311
  6904     0909  290B               	goto	u5310
  6905     090A                     u5311:
  6906     090A  28EA               	goto	l3109
  6907     090B                     u5310:
  6908     090B  2917               	goto	l3117
  6909     090C                     l3115:
  6910     090C  3001               	movlw	1
  6911     090D  02AF               	subwf	___xxtofl@exp,f
  6912     090E  3001               	movlw	1
  6913     090F  00AA               	movwf	??___xxtofl
  6914     0910                     u5325:
  6915     0910  1003               	clrc
  6916     0911  0DB0               	rlf	___xxtofl@arg,f
  6917     0912  0DB1               	rlf	___xxtofl@arg+1,f
  6918     0913  0DB2               	rlf	___xxtofl@arg+2,f
  6919     0914  0DB3               	rlf	___xxtofl@arg+3,f
  6920     0915  0BAA               	decfsz	??___xxtofl,f
  6921     0916  2910               	goto	u5325
  6922     0917                     l3117:
  6923     0917  1BB2               	btfsc	___xxtofl@arg+2,7
  6924     0918  291A               	goto	u5331
  6925     0919  291B               	goto	u5330
  6926     091A                     u5331:
  6927     091A  2921               	goto	l779
  6928     091B                     u5330:
  6929     091B                     l3119:
  6930     091B  3002               	movlw	2
  6931     091C  022F               	subwf	___xxtofl@exp,w
  6932     091D  1803               	skipnc
  6933     091E  2920               	goto	u5341
  6934     091F  2921               	goto	u5340
  6935     0920                     u5341:
  6936     0920  290C               	goto	l3115
  6937     0921                     u5340:
  6938     0921                     l779:
  6939     0921  182F               	btfsc	___xxtofl@exp,0
  6940     0922  2924               	goto	u5351
  6941     0923  2925               	goto	u5350
  6942     0924                     u5351:
  6943     0924  292D               	goto	l780
  6944     0925                     u5350:
  6945     0925                     l3121:
  6946     0925  30FF               	movlw	255
  6947     0926  05B0               	andwf	___xxtofl@arg,f
  6948     0927  30FF               	movlw	255
  6949     0928  05B1               	andwf	___xxtofl@arg+1,f
  6950     0929  307F               	movlw	127
  6951     092A  05B2               	andwf	___xxtofl@arg+2,f
  6952     092B  30FF               	movlw	255
  6953     092C  05B3               	andwf	___xxtofl@arg+3,f
  6954     092D                     l780:
  6955     092D  1003               	clrc
  6956     092E  0CAF               	rrf	___xxtofl@exp,f
  6957     092F                     l3123:
  6958     092F  082F               	movf	___xxtofl@exp,w
  6959     0930  00AA               	movwf	??___xxtofl
  6960     0931  01AB               	clrf	??___xxtofl+1
  6961     0932  01AC               	clrf	??___xxtofl+2
  6962     0933  01AD               	clrf	??___xxtofl+3
  6963     0934  3018               	movlw	24
  6964     0935                     u5365:
  6965     0935  1003               	clrc
  6966     0936  0DAA               	rlf	??___xxtofl,f
  6967     0937  0DAB               	rlf	??___xxtofl+1,f
  6968     0938  0DAC               	rlf	??___xxtofl+2,f
  6969     0939  0DAD               	rlf	??___xxtofl+3,f
  6970     093A                     u5360:
  6971     093A  3EFF               	addlw	-1
  6972     093B  1D03               	skipz
  6973     093C  2935               	goto	u5365
  6974     093D  082A               	movf	??___xxtofl,w
  6975     093E  04B0               	iorwf	___xxtofl@arg,f
  6976     093F  082B               	movf	??___xxtofl+1,w
  6977     0940  04B1               	iorwf	___xxtofl@arg+1,f
  6978     0941  082C               	movf	??___xxtofl+2,w
  6979     0942  04B2               	iorwf	___xxtofl@arg+2,f
  6980     0943  082D               	movf	??___xxtofl+3,w
  6981     0944  04B3               	iorwf	___xxtofl@arg+3,f
  6982     0945                     l3125:
  6983     0945  082E               	movf	___xxtofl@sign,w
  6984     0946  1903               	btfsc	3,2
  6985     0947  2949               	goto	u5371
  6986     0948  294A               	goto	u5370
  6987     0949                     u5371:
  6988     0949  294F               	goto	l3131
  6989     094A                     u5370:
  6990     094A                     l3127:
  6991     094A  1FA9               	btfss	___xxtofl@val+3,7
  6992     094B  294D               	goto	u5381
  6993     094C  294E               	goto	u5380
  6994     094D                     u5381:
  6995     094D  294F               	goto	l3131
  6996     094E                     u5380:
  6997     094E                     l3129:
  6998     094E  17B3               	bsf	___xxtofl@arg+3,7
  6999     094F                     l3131:
  7000     094F  0833               	movf	___xxtofl@arg+3,w
  7001     0950  00A9               	movwf	?___xxtofl+3
  7002     0951  0832               	movf	___xxtofl@arg+2,w
  7003     0952  00A8               	movwf	?___xxtofl+2
  7004     0953  0831               	movf	___xxtofl@arg+1,w
  7005     0954  00A7               	movwf	?___xxtofl+1
  7006     0955  0830               	movf	___xxtofl@arg,w
  7007     0956  00A6               	movwf	?___xxtofl
  7008     0957                     l768:
  7009     0957  0008               	return
  7010     0958                     __end_of___xxtofl:
  7011                           
  7012                           	psect	text13
  7013     1ADB                     __ptext13:	
  7014 ;; *************** function ___wmul *****************
  7015 ;; Defined at:
  7016 ;;		line 15 in file "C:\Program Files\Microchip\xc8\v2.40\pic\sources\c90\common\Umul16.c"
  7017 ;; Parameters:    Size  Location     Type
  7018 ;;  multiplier      2    6[BANK0 ] unsigned int 
  7019 ;;  multiplicand    2    8[BANK0 ] unsigned int 
  7020 ;; Auto vars:     Size  Location     Type
  7021 ;;  product         2   10[BANK0 ] unsigned int 
  7022 ;; Return value:  Size  Location     Type
  7023 ;;                  2    6[BANK0 ] unsigned int 
  7024 ;; Registers used:
  7025 ;;		wreg, status,2, status,0
  7026 ;; Tracked objects:
  7027 ;;		On entry : 0/0
  7028 ;;		On exit  : 0/0
  7029 ;;		Unchanged: 0/0
  7030 ;; Data sizes:     COMMON   BANK0   BANK1   BANK3   BANK2
  7031 ;;      Params:         0       4       0       0       0
  7032 ;;      Locals:         0       2       0       0       0
  7033 ;;      Temps:          0       0       0       0       0
  7034 ;;      Totals:         0       6       0       0       0
  7035 ;;Total ram usage:        6 bytes
  7036 ;; Hardware stack levels used: 1
  7037 ;; Hardware stack levels required when called: 2
  7038 ;; This function calls:
  7039 ;;		Nothing
  7040 ;; This function is called by:
  7041 ;;		_sprintf
  7042 ;; This function uses a non-reentrant model
  7043 ;;
  7044                           
  7045     1ADB                     ___wmul:	
  7046                           ;psect for function ___wmul
  7047                           
  7048     1ADB                     l2951:	
  7049                           ;incstack = 0
  7050                           ; Regs used in ___wmul: [wreg+status,2+status,0]
  7051                           
  7052     1ADB  1283               	bcf	3,5	;RP0=0, select bank0
  7053     1ADC  1303               	bcf	3,6	;RP1=0, select bank0
  7054     1ADD  01AA               	clrf	___wmul@product
  7055     1ADE  01AB               	clrf	___wmul@product+1
  7056     1ADF                     l2953:
  7057     1ADF  1C26               	btfss	___wmul@multiplier,0
  7058     1AE0  2AE2               	goto	u4871
  7059     1AE1  2AE3               	goto	u4870
  7060     1AE2                     u4871:
  7061     1AE2  2AE9               	goto	l299
  7062     1AE3                     u4870:
  7063     1AE3                     l2955:
  7064     1AE3  0828               	movf	___wmul@multiplicand,w
  7065     1AE4  07AA               	addwf	___wmul@product,f
  7066     1AE5  1803               	skipnc
  7067     1AE6  0AAB               	incf	___wmul@product+1,f
  7068     1AE7  0829               	movf	___wmul@multiplicand+1,w
  7069     1AE8  07AB               	addwf	___wmul@product+1,f
  7070     1AE9                     l299:
  7071     1AE9  3001               	movlw	1
  7072     1AEA                     u4885:
  7073     1AEA  1003               	clrc
  7074     1AEB  0DA8               	rlf	___wmul@multiplicand,f
  7075     1AEC  0DA9               	rlf	___wmul@multiplicand+1,f
  7076     1AED  3EFF               	addlw	-1
  7077     1AEE  1D03               	skipz
  7078     1AEF  2AEA               	goto	u4885
  7079     1AF0                     l2957:
  7080     1AF0  3001               	movlw	1
  7081     1AF1                     u4895:
  7082     1AF1  1003               	clrc
  7083     1AF2  0CA7               	rrf	___wmul@multiplier+1,f
  7084     1AF3  0CA6               	rrf	___wmul@multiplier,f
  7085     1AF4  3EFF               	addlw	-1
  7086     1AF5  1D03               	skipz
  7087     1AF6  2AF1               	goto	u4895
  7088     1AF7                     l2959:
  7089     1AF7  0826               	movf	___wmul@multiplier,w
  7090     1AF8  0427               	iorwf	___wmul@multiplier+1,w
  7091     1AF9  1D03               	btfss	3,2
  7092     1AFA  2AFC               	goto	u4901
  7093     1AFB  2AFD               	goto	u4900
  7094     1AFC                     u4901:
  7095     1AFC  2ADF               	goto	l2953
  7096     1AFD                     u4900:
  7097     1AFD                     l2961:
  7098     1AFD  082B               	movf	___wmul@product+1,w
  7099     1AFE  00A7               	movwf	?___wmul+1
  7100     1AFF  082A               	movf	___wmul@product,w
  7101     1B00  00A6               	movwf	?___wmul
  7102     1B01                     l301:
  7103     1B01  0008               	return
  7104     1B02                     __end_of___wmul:
  7105                           
  7106                           	psect	text14
  7107     1B9F                     __ptext14:	
  7108 ;; *************** function ___llmod *****************
  7109 ;; Defined at:
  7110 ;;		line 5 in file "C:\Program Files\Microchip\xc8\v2.40\pic\sources\c90\common\llmod.c"
  7111 ;; Parameters:    Size  Location     Type
  7112 ;;  divisor         4    6[BANK0 ] unsigned long 
  7113 ;;  dividend        4   10[BANK0 ] unsigned long 
  7114 ;; Auto vars:     Size  Location     Type
  7115 ;;  counter         1   15[BANK0 ] unsigned char 
  7116 ;; Return value:  Size  Location     Type
  7117 ;;                  4    6[BANK0 ] unsigned long 
  7118 ;; Registers used:
  7119 ;;		wreg, status,2, status,0
  7120 ;; Tracked objects:
  7121 ;;		On entry : 0/0
  7122 ;;		On exit  : 0/0
  7123 ;;		Unchanged: 0/0
  7124 ;; Data sizes:     COMMON   BANK0   BANK1   BANK3   BANK2
  7125 ;;      Params:         0       8       0       0       0
  7126 ;;      Locals:         0       1       0       0       0
  7127 ;;      Temps:          0       1       0       0       0
  7128 ;;      Totals:         0      10       0       0       0
  7129 ;;Total ram usage:       10 bytes
  7130 ;; Hardware stack levels used: 1
  7131 ;; Hardware stack levels required when called: 2
  7132 ;; This function calls:
  7133 ;;		Nothing
  7134 ;; This function is called by:
  7135 ;;		_sprintf
  7136 ;; This function uses a non-reentrant model
  7137 ;;
  7138                           
  7139     1B9F                     ___llmod:	
  7140                           ;psect for function ___llmod
  7141                           
  7142     1B9F                     l3065:	
  7143                           ;incstack = 0
  7144                           ; Regs used in ___llmod: [wreg+status,2+status,0]
  7145                           
  7146     1B9F  1283               	bcf	3,5	;RP0=0, select bank0
  7147     1BA0  1303               	bcf	3,6	;RP1=0, select bank0
  7148     1BA1  0829               	movf	___llmod@divisor+3,w
  7149     1BA2  0428               	iorwf	___llmod@divisor+2,w
  7150     1BA3  0427               	iorwf	___llmod@divisor+1,w
  7151     1BA4  0426               	iorwf	___llmod@divisor,w
  7152     1BA5  1903               	skipnz
  7153     1BA6  2BA8               	goto	u5191
  7154     1BA7  2BA9               	goto	u5190
  7155     1BA8                     u5191:
  7156     1BA8  2BEC               	goto	l3081
  7157     1BA9                     u5190:
  7158     1BA9                     l3067:
  7159     1BA9  01AF               	clrf	___llmod@counter
  7160     1BAA  0AAF               	incf	___llmod@counter,f
  7161     1BAB  2BB9               	goto	l3071
  7162     1BAC                     l3069:
  7163     1BAC  3001               	movlw	1
  7164     1BAD  00AE               	movwf	??___llmod
  7165     1BAE                     u5205:
  7166     1BAE  1003               	clrc
  7167     1BAF  0DA6               	rlf	___llmod@divisor,f
  7168     1BB0  0DA7               	rlf	___llmod@divisor+1,f
  7169     1BB1  0DA8               	rlf	___llmod@divisor+2,f
  7170     1BB2  0DA9               	rlf	___llmod@divisor+3,f
  7171     1BB3  0BAE               	decfsz	??___llmod,f
  7172     1BB4  2BAE               	goto	u5205
  7173     1BB5  3001               	movlw	1
  7174     1BB6  00AE               	movwf	??___llmod
  7175     1BB7  082E               	movf	??___llmod,w
  7176     1BB8  07AF               	addwf	___llmod@counter,f
  7177     1BB9                     l3071:
  7178     1BB9  1FA9               	btfss	___llmod@divisor+3,7
  7179     1BBA  2BBC               	goto	u5211
  7180     1BBB  2BBD               	goto	u5210
  7181     1BBC                     u5211:
  7182     1BBC  2BAC               	goto	l3069
  7183     1BBD                     u5210:
  7184     1BBD                     l3073:
  7185     1BBD  0829               	movf	___llmod@divisor+3,w
  7186     1BBE  022D               	subwf	___llmod@dividend+3,w
  7187     1BBF  1D03               	skipz
  7188     1BC0  2BCB               	goto	u5225
  7189     1BC1  0828               	movf	___llmod@divisor+2,w
  7190     1BC2  022C               	subwf	___llmod@dividend+2,w
  7191     1BC3  1D03               	skipz
  7192     1BC4  2BCB               	goto	u5225
  7193     1BC5  0827               	movf	___llmod@divisor+1,w
  7194     1BC6  022B               	subwf	___llmod@dividend+1,w
  7195     1BC7  1D03               	skipz
  7196     1BC8  2BCB               	goto	u5225
  7197     1BC9  0826               	movf	___llmod@divisor,w
  7198     1BCA  022A               	subwf	___llmod@dividend,w
  7199     1BCB                     u5225:
  7200     1BCB  1C03               	skipc
  7201     1BCC  2BCE               	goto	u5221
  7202     1BCD  2BCF               	goto	u5220
  7203     1BCE                     u5221:
  7204     1BCE  2BDD               	goto	l3077
  7205     1BCF                     u5220:
  7206     1BCF                     l3075:
  7207     1BCF  0826               	movf	___llmod@divisor,w
  7208     1BD0  02AA               	subwf	___llmod@dividend,f
  7209     1BD1  0827               	movf	___llmod@divisor+1,w
  7210     1BD2  1C03               	skipc
  7211     1BD3  0F27               	incfsz	___llmod@divisor+1,w
  7212     1BD4  02AB               	subwf	___llmod@dividend+1,f
  7213     1BD5  0828               	movf	___llmod@divisor+2,w
  7214     1BD6  1C03               	skipc
  7215     1BD7  0F28               	incfsz	___llmod@divisor+2,w
  7216     1BD8  02AC               	subwf	___llmod@dividend+2,f
  7217     1BD9  0829               	movf	___llmod@divisor+3,w
  7218     1BDA  1C03               	skipc
  7219     1BDB  0F29               	incfsz	___llmod@divisor+3,w
  7220     1BDC  02AD               	subwf	___llmod@dividend+3,f
  7221     1BDD                     l3077:
  7222     1BDD  3001               	movlw	1
  7223     1BDE                     u5235:
  7224     1BDE  1003               	clrc
  7225     1BDF  0CA9               	rrf	___llmod@divisor+3,f
  7226     1BE0  0CA8               	rrf	___llmod@divisor+2,f
  7227     1BE1  0CA7               	rrf	___llmod@divisor+1,f
  7228     1BE2  0CA6               	rrf	___llmod@divisor,f
  7229     1BE3  3EFF               	addlw	-1
  7230     1BE4  1D03               	skipz
  7231     1BE5  2BDE               	goto	u5235
  7232     1BE6                     l3079:
  7233     1BE6  3001               	movlw	1
  7234     1BE7  02AF               	subwf	___llmod@counter,f
  7235     1BE8  1D03               	btfss	3,2
  7236     1BE9  2BEB               	goto	u5241
  7237     1BEA  2BEC               	goto	u5240
  7238     1BEB                     u5241:
  7239     1BEB  2BBD               	goto	l3073
  7240     1BEC                     u5240:
  7241     1BEC                     l3081:
  7242     1BEC  082D               	movf	___llmod@dividend+3,w
  7243     1BED  00A9               	movwf	?___llmod+3
  7244     1BEE  082C               	movf	___llmod@dividend+2,w
  7245     1BEF  00A8               	movwf	?___llmod+2
  7246     1BF0  082B               	movf	___llmod@dividend+1,w
  7247     1BF1  00A7               	movwf	?___llmod+1
  7248     1BF2  082A               	movf	___llmod@dividend,w
  7249     1BF3  00A6               	movwf	?___llmod
  7250     1BF4                     l555:
  7251     1BF4  0008               	return
  7252     1BF5                     __end_of___llmod:
  7253                           
  7254                           	psect	text15
  7255     1D1C                     __ptext15:	
  7256 ;; *************** function ___lldiv *****************
  7257 ;; Defined at:
  7258 ;;		line 5 in file "C:\Program Files\Microchip\xc8\v2.40\pic\sources\c90\common\__lldiv.c"
  7259 ;; Parameters:    Size  Location     Type
  7260 ;;  divisor         4    6[BANK0 ] unsigned long 
  7261 ;;  dividend        4   10[BANK0 ] unsigned long 
  7262 ;; Auto vars:     Size  Location     Type
  7263 ;;  quotient        4   15[BANK0 ] unsigned long 
  7264 ;;  counter         1   19[BANK0 ] unsigned char 
  7265 ;; Return value:  Size  Location     Type
  7266 ;;                  4    6[BANK0 ] unsigned long 
  7267 ;; Registers used:
  7268 ;;		wreg, status,2, status,0
  7269 ;; Tracked objects:
  7270 ;;		On entry : 0/0
  7271 ;;		On exit  : 0/0
  7272 ;;		Unchanged: 0/0
  7273 ;; Data sizes:     COMMON   BANK0   BANK1   BANK3   BANK2
  7274 ;;      Params:         0       8       0       0       0
  7275 ;;      Locals:         0       5       0       0       0
  7276 ;;      Temps:          0       1       0       0       0
  7277 ;;      Totals:         0      14       0       0       0
  7278 ;;Total ram usage:       14 bytes
  7279 ;; Hardware stack levels used: 1
  7280 ;; Hardware stack levels required when called: 2
  7281 ;; This function calls:
  7282 ;;		Nothing
  7283 ;; This function is called by:
  7284 ;;		_sprintf
  7285 ;; This function uses a non-reentrant model
  7286 ;;
  7287                           
  7288     1D1C                     ___lldiv:	
  7289                           ;psect for function ___lldiv
  7290                           
  7291     1D1C                     l2965:	
  7292                           ;incstack = 0
  7293                           ; Regs used in ___lldiv: [wreg+status,2+status,0]
  7294                           
  7295     1D1C  3000               	movlw	0
  7296     1D1D  1283               	bcf	3,5	;RP0=0, select bank0
  7297     1D1E  1303               	bcf	3,6	;RP1=0, select bank0
  7298     1D1F  00B2               	movwf	___lldiv@quotient+3
  7299     1D20  3000               	movlw	0
  7300     1D21  00B1               	movwf	___lldiv@quotient+2
  7301     1D22  3000               	movlw	0
  7302     1D23  00B0               	movwf	___lldiv@quotient+1
  7303     1D24  3000               	movlw	0
  7304     1D25  00AF               	movwf	___lldiv@quotient
  7305     1D26  0829               	movf	___lldiv@divisor+3,w
  7306     1D27  0428               	iorwf	___lldiv@divisor+2,w
  7307     1D28  0427               	iorwf	___lldiv@divisor+1,w
  7308     1D29  0426               	iorwf	___lldiv@divisor,w
  7309     1D2A  1903               	skipnz
  7310     1D2B  2D2D               	goto	u4911
  7311     1D2C  2D2E               	goto	u4910
  7312     1D2D                     u4911:
  7313     1D2D  2D7B               	goto	l2985
  7314     1D2E                     u4910:
  7315     1D2E                     l2967:
  7316     1D2E  01B3               	clrf	___lldiv@counter
  7317     1D2F  0AB3               	incf	___lldiv@counter,f
  7318     1D30  2D3E               	goto	l2971
  7319     1D31                     l2969:
  7320     1D31  3001               	movlw	1
  7321     1D32  00AE               	movwf	??___lldiv
  7322     1D33                     u4925:
  7323     1D33  1003               	clrc
  7324     1D34  0DA6               	rlf	___lldiv@divisor,f
  7325     1D35  0DA7               	rlf	___lldiv@divisor+1,f
  7326     1D36  0DA8               	rlf	___lldiv@divisor+2,f
  7327     1D37  0DA9               	rlf	___lldiv@divisor+3,f
  7328     1D38  0BAE               	decfsz	??___lldiv,f
  7329     1D39  2D33               	goto	u4925
  7330     1D3A  3001               	movlw	1
  7331     1D3B  00AE               	movwf	??___lldiv
  7332     1D3C  082E               	movf	??___lldiv,w
  7333     1D3D  07B3               	addwf	___lldiv@counter,f
  7334     1D3E                     l2971:
  7335     1D3E  1FA9               	btfss	___lldiv@divisor+3,7
  7336     1D3F  2D41               	goto	u4931
  7337     1D40  2D42               	goto	u4930
  7338     1D41                     u4931:
  7339     1D41  2D31               	goto	l2969
  7340     1D42                     u4930:
  7341     1D42                     l2973:
  7342     1D42  3001               	movlw	1
  7343     1D43  00AE               	movwf	??___lldiv
  7344     1D44                     u4945:
  7345     1D44  1003               	clrc
  7346     1D45  0DAF               	rlf	___lldiv@quotient,f
  7347     1D46  0DB0               	rlf	___lldiv@quotient+1,f
  7348     1D47  0DB1               	rlf	___lldiv@quotient+2,f
  7349     1D48  0DB2               	rlf	___lldiv@quotient+3,f
  7350     1D49  0BAE               	decfsz	??___lldiv,f
  7351     1D4A  2D44               	goto	u4945
  7352     1D4B                     l2975:
  7353     1D4B  0829               	movf	___lldiv@divisor+3,w
  7354     1D4C  022D               	subwf	___lldiv@dividend+3,w
  7355     1D4D  1D03               	skipz
  7356     1D4E  2D59               	goto	u4955
  7357     1D4F  0828               	movf	___lldiv@divisor+2,w
  7358     1D50  022C               	subwf	___lldiv@dividend+2,w
  7359     1D51  1D03               	skipz
  7360     1D52  2D59               	goto	u4955
  7361     1D53  0827               	movf	___lldiv@divisor+1,w
  7362     1D54  022B               	subwf	___lldiv@dividend+1,w
  7363     1D55  1D03               	skipz
  7364     1D56  2D59               	goto	u4955
  7365     1D57  0826               	movf	___lldiv@divisor,w
  7366     1D58  022A               	subwf	___lldiv@dividend,w
  7367     1D59                     u4955:
  7368     1D59  1C03               	skipc
  7369     1D5A  2D5C               	goto	u4951
  7370     1D5B  2D5D               	goto	u4950
  7371     1D5C                     u4951:
  7372     1D5C  2D6C               	goto	l2981
  7373     1D5D                     u4950:
  7374     1D5D                     l2977:
  7375     1D5D  0826               	movf	___lldiv@divisor,w
  7376     1D5E  02AA               	subwf	___lldiv@dividend,f
  7377     1D5F  0827               	movf	___lldiv@divisor+1,w
  7378     1D60  1C03               	skipc
  7379     1D61  0F27               	incfsz	___lldiv@divisor+1,w
  7380     1D62  02AB               	subwf	___lldiv@dividend+1,f
  7381     1D63  0828               	movf	___lldiv@divisor+2,w
  7382     1D64  1C03               	skipc
  7383     1D65  0F28               	incfsz	___lldiv@divisor+2,w
  7384     1D66  02AC               	subwf	___lldiv@dividend+2,f
  7385     1D67  0829               	movf	___lldiv@divisor+3,w
  7386     1D68  1C03               	skipc
  7387     1D69  0F29               	incfsz	___lldiv@divisor+3,w
  7388     1D6A  02AD               	subwf	___lldiv@dividend+3,f
  7389     1D6B                     l2979:
  7390     1D6B  142F               	bsf	___lldiv@quotient,0
  7391     1D6C                     l2981:
  7392     1D6C  3001               	movlw	1
  7393     1D6D                     u4965:
  7394     1D6D  1003               	clrc
  7395     1D6E  0CA9               	rrf	___lldiv@divisor+3,f
  7396     1D6F  0CA8               	rrf	___lldiv@divisor+2,f
  7397     1D70  0CA7               	rrf	___lldiv@divisor+1,f
  7398     1D71  0CA6               	rrf	___lldiv@divisor,f
  7399     1D72  3EFF               	addlw	-1
  7400     1D73  1D03               	skipz
  7401     1D74  2D6D               	goto	u4965
  7402     1D75                     l2983:
  7403     1D75  3001               	movlw	1
  7404     1D76  02B3               	subwf	___lldiv@counter,f
  7405     1D77  1D03               	btfss	3,2
  7406     1D78  2D7A               	goto	u4971
  7407     1D79  2D7B               	goto	u4970
  7408     1D7A                     u4971:
  7409     1D7A  2D42               	goto	l2973
  7410     1D7B                     u4970:
  7411     1D7B                     l2985:
  7412     1D7B  0832               	movf	___lldiv@quotient+3,w
  7413     1D7C  00A9               	movwf	?___lldiv+3
  7414     1D7D  0831               	movf	___lldiv@quotient+2,w
  7415     1D7E  00A8               	movwf	?___lldiv+2
  7416     1D7F  0830               	movf	___lldiv@quotient+1,w
  7417     1D80  00A7               	movwf	?___lldiv+1
  7418     1D81  082F               	movf	___lldiv@quotient,w
  7419     1D82  00A6               	movwf	?___lldiv
  7420     1D83                     l335:
  7421     1D83  0008               	return
  7422     1D84                     __end_of___lldiv:
  7423                           
  7424                           	psect	text16
  7425     0826                     __ptext16:	
  7426 ;; *************** function ___fltol *****************
  7427 ;; Defined at:
  7428 ;;		line 43 in file "C:\Program Files\Microchip\xc8\v2.40\pic\sources\c90\common\fltol.c"
  7429 ;; Parameters:    Size  Location     Type
  7430 ;;  f1              4    0[BANK1 ] unsigned long 
  7431 ;; Auto vars:     Size  Location     Type
  7432 ;;  exp1            1    9[BANK1 ] unsigned char 
  7433 ;;  sign1           1    8[BANK1 ] unsigned char 
  7434 ;; Return value:  Size  Location     Type
  7435 ;;                  4    0[BANK1 ] long 
  7436 ;; Registers used:
  7437 ;;		wreg, status,2, status,0
  7438 ;; Tracked objects:
  7439 ;;		On entry : 0/0
  7440 ;;		On exit  : 0/0
  7441 ;;		Unchanged: 0/0
  7442 ;; Data sizes:     COMMON   BANK0   BANK1   BANK3   BANK2
  7443 ;;      Params:         0       0       4       0       0
  7444 ;;      Locals:         0       0       2       0       0
  7445 ;;      Temps:          0       0       4       0       0
  7446 ;;      Totals:         0       0      10       0       0
  7447 ;;Total ram usage:       10 bytes
  7448 ;; Hardware stack levels used: 1
  7449 ;; Hardware stack levels required when called: 2
  7450 ;; This function calls:
  7451 ;;		Nothing
  7452 ;; This function is called by:
  7453 ;;		_sprintf
  7454 ;; This function uses a non-reentrant model
  7455 ;;
  7456                           
  7457     0826                     ___fltol:	
  7458                           ;psect for function ___fltol
  7459                           
  7460     0826                     l3857:	
  7461                           ;incstack = 0
  7462                           ; Regs used in ___fltol: [wreg+status,2+status,0]
  7463                           
  7464     0826  1003               	clrc
  7465     0827  1683               	bsf	3,5	;RP0=1, select bank1
  7466     0828  1303               	bcf	3,6	;RP1=0, select bank1
  7467     0829  0D22               	rlf	(___fltol@f1+2)^(0+128),w
  7468     082A  0D23               	rlf	(___fltol@f1+3)^(0+128),w
  7469     082B  00A9               	movwf	___fltol@exp1^(0+128)
  7470     082C  0829               	movf	___fltol@exp1^(0+128),w
  7471     082D  1D03               	btfss	3,2
  7472     082E  2830               	goto	u6711
  7473     082F  2831               	goto	u6710
  7474     0830                     u6711:
  7475     0830  283A               	goto	l3863
  7476     0831                     u6710:
  7477     0831                     l3859:
  7478     0831  3000               	movlw	0
  7479     0832  00A3               	movwf	(?___fltol+3)^(0+128)
  7480     0833  3000               	movlw	0
  7481     0834  00A2               	movwf	(?___fltol+2)^(0+128)
  7482     0835  3000               	movlw	0
  7483     0836  00A1               	movwf	(?___fltol+1)^(0+128)
  7484     0837  3000               	movlw	0
  7485     0838  00A0               	movwf	?___fltol^(0+128)
  7486     0839  289D               	goto	l502
  7487     083A                     l3863:
  7488     083A  0820               	movf	___fltol@f1^(0+128),w
  7489     083B  00A4               	movwf	??___fltol^(0+128)
  7490     083C  0821               	movf	(___fltol@f1+1)^(0+128),w
  7491     083D  00A5               	movwf	(??___fltol^(0+128)+1)
  7492     083E  0822               	movf	(___fltol@f1+2)^(0+128),w
  7493     083F  00A6               	movwf	(??___fltol^(0+128)+2)
  7494     0840  0823               	movf	(___fltol@f1+3)^(0+128),w
  7495     0841  00A7               	movwf	(??___fltol^(0+128)+3)
  7496     0842  301F               	movlw	31
  7497     0843                     u6725:
  7498     0843  1003               	clrc
  7499     0844  0CA7               	rrf	(??___fltol^(0+128)+3),f
  7500     0845  0CA6               	rrf	(??___fltol^(0+128)+2),f
  7501     0846  0CA5               	rrf	(??___fltol^(0+128)+1),f
  7502     0847  0CA4               	rrf	??___fltol^(0+128),f
  7503     0848                     u6720:
  7504     0848  3EFF               	addlw	-1
  7505     0849  1D03               	skipz
  7506     084A  2843               	goto	u6725
  7507     084B  0824               	movf	??___fltol^(0+128),w
  7508     084C  00A8               	movwf	___fltol@sign1^(0+128)
  7509     084D                     l3865:
  7510     084D  17A2               	bsf	(___fltol@f1^(0+128)+2),7
  7511     084E                     l3867:
  7512     084E  30FF               	movlw	255
  7513     084F  05A0               	andwf	___fltol@f1^(0+128),f
  7514     0850  30FF               	movlw	255
  7515     0851  05A1               	andwf	(___fltol@f1+1)^(0+128),f
  7516     0852  30FF               	movlw	255
  7517     0853  05A2               	andwf	(___fltol@f1+2)^(0+128),f
  7518     0854  3000               	movlw	0
  7519     0855  05A3               	andwf	(___fltol@f1+3)^(0+128),f
  7520     0856                     l3869:
  7521     0856  3096               	movlw	150
  7522     0857  02A9               	subwf	___fltol@exp1^(0+128),f
  7523     0858                     l3871:
  7524     0858  1FA9               	btfss	___fltol@exp1^(0+128),7
  7525     0859  285B               	goto	u6731
  7526     085A  285C               	goto	u6730
  7527     085B                     u6731:
  7528     085B  2876               	goto	l3881
  7529     085C                     u6730:
  7530     085C                     l3873:
  7531     085C  0829               	movf	___fltol@exp1^(0+128),w
  7532     085D  3A80               	xorlw	128
  7533     085E  3E97               	addlw	151
  7534     085F  1803               	skipnc
  7535     0860  2862               	goto	u6741
  7536     0861  2863               	goto	u6740
  7537     0862                     u6741:
  7538     0862  2864               	goto	l3879
  7539     0863                     u6740:
  7540     0863  2831               	goto	l3859
  7541     0864                     l3879:
  7542     0864  3001               	movlw	1
  7543     0865                     u6755:
  7544     0865  1003               	clrc
  7545     0866  0CA3               	rrf	(___fltol@f1+3)^(0+128),f
  7546     0867  0CA2               	rrf	(___fltol@f1+2)^(0+128),f
  7547     0868  0CA1               	rrf	(___fltol@f1+1)^(0+128),f
  7548     0869  0CA0               	rrf	___fltol@f1^(0+128),f
  7549     086A  3EFF               	addlw	-1
  7550     086B  1D03               	skipz
  7551     086C  2865               	goto	u6755
  7552     086D  3001               	movlw	1
  7553     086E  00A4               	movwf	??___fltol^(0+128)
  7554     086F  0824               	movf	??___fltol^(0+128),w
  7555     0870  07A9               	addwf	___fltol@exp1^(0+128),f
  7556     0871  1D03               	btfss	3,2
  7557     0872  2874               	goto	u6761
  7558     0873  2875               	goto	u6760
  7559     0874                     u6761:
  7560     0874  2864               	goto	l3879
  7561     0875                     u6760:
  7562     0875  288D               	goto	l3889
  7563     0876                     l3881:
  7564     0876  3020               	movlw	32
  7565     0877  0229               	subwf	___fltol@exp1^(0+128),w
  7566     0878  1C03               	skipc
  7567     0879  287B               	goto	u6771
  7568     087A  287C               	goto	u6770
  7569     087B                     u6771:
  7570     087B  2888               	goto	l509
  7571     087C                     u6770:
  7572     087C  2831               	goto	l3859
  7573     087D                     l3887:
  7574     087D  3001               	movlw	1
  7575     087E  00A4               	movwf	??___fltol^(0+128)
  7576     087F                     u6785:
  7577     087F  1003               	clrc
  7578     0880  0DA0               	rlf	___fltol@f1^(0+128),f
  7579     0881  0DA1               	rlf	(___fltol@f1+1)^(0+128),f
  7580     0882  0DA2               	rlf	(___fltol@f1+2)^(0+128),f
  7581     0883  0DA3               	rlf	(___fltol@f1+3)^(0+128),f
  7582     0884  0BA4               	decfsz	??___fltol^(0+128),f
  7583     0885  287F               	goto	u6785
  7584     0886  3001               	movlw	1
  7585     0887  02A9               	subwf	___fltol@exp1^(0+128),f
  7586     0888                     l509:
  7587     0888  0829               	movf	___fltol@exp1^(0+128),w
  7588     0889  1D03               	btfss	3,2
  7589     088A  288C               	goto	u6791
  7590     088B  288D               	goto	u6790
  7591     088C                     u6791:
  7592     088C  287D               	goto	l3887
  7593     088D                     u6790:
  7594     088D                     l3889:
  7595     088D  0828               	movf	___fltol@sign1^(0+128),w
  7596     088E  1903               	btfsc	3,2
  7597     088F  2891               	goto	u6801
  7598     0890  2892               	goto	u6800
  7599     0891                     u6801:
  7600     0891  289D               	goto	l512
  7601     0892                     u6800:
  7602     0892                     l3891:
  7603     0892  09A0               	comf	___fltol@f1^(0+128),f
  7604     0893  09A1               	comf	(___fltol@f1+1)^(0+128),f
  7605     0894  09A2               	comf	(___fltol@f1+2)^(0+128),f
  7606     0895  09A3               	comf	(___fltol@f1+3)^(0+128),f
  7607     0896  0AA0               	incf	___fltol@f1^(0+128),f
  7608     0897  1903               	skipnz
  7609     0898  0AA1               	incf	(___fltol@f1+1)^(0+128),f
  7610     0899  1903               	skipnz
  7611     089A  0AA2               	incf	(___fltol@f1+2)^(0+128),f
  7612     089B  1903               	skipnz
  7613     089C  0AA3               	incf	(___fltol@f1+3)^(0+128),f
  7614     089D                     l512:
  7615     089D                     l502:
  7616     089D  0008               	return
  7617     089E                     __end_of___fltol:
  7618                           
  7619                           	psect	text17
  7620     0802                     __ptext17:	
  7621 ;; *************** function ___flsub *****************
  7622 ;; Defined at:
  7623 ;;		line 242 in file "C:\Program Files\Microchip\xc8\v2.40\pic\sources\c90\common\sprcadd.c"
  7624 ;; Parameters:    Size  Location     Type
  7625 ;;  a               4   20[BANK1 ] long 
  7626 ;;  b               4   24[BANK1 ] long 
  7627 ;; Auto vars:     Size  Location     Type
  7628 ;;		None
  7629 ;; Return value:  Size  Location     Type
  7630 ;;                  4   20[BANK1 ] long 
  7631 ;; Registers used:
  7632 ;;		wreg, status,2, status,0, btemp+1, pclath, cstack
  7633 ;; Tracked objects:
  7634 ;;		On entry : 0/0
  7635 ;;		On exit  : 0/0
  7636 ;;		Unchanged: 0/0
  7637 ;; Data sizes:     COMMON   BANK0   BANK1   BANK3   BANK2
  7638 ;;      Params:         0       0       8       0       0
  7639 ;;      Locals:         0       0       0       0       0
  7640 ;;      Temps:          0       0       0       0       0
  7641 ;;      Totals:         0       0       8       0       0
  7642 ;;Total ram usage:        8 bytes
  7643 ;; Hardware stack levels used: 1
  7644 ;; Hardware stack levels required when called: 3
  7645 ;; This function calls:
  7646 ;;		___fladd
  7647 ;; This function is called by:
  7648 ;;		_sprintf
  7649 ;; This function uses a non-reentrant model
  7650 ;;
  7651                           
  7652     0802                     ___flsub:	
  7653                           ;psect for function ___flsub
  7654                           
  7655     0802                     l3893:	
  7656                           ;incstack = 0
  7657                           ; Regs used in ___flsub: [wreg+status,2+status,0+btemp+1+pclath+cstack]
  7658                           
  7659     0802  3080               	movlw	128
  7660     0803  1683               	bsf	3,5	;RP0=1, select bank1
  7661     0804  1303               	bcf	3,6	;RP1=0, select bank1
  7662     0805  06B7               	xorwf	(___flsub@a+3)^(0+128),f
  7663     0806                     l3895:
  7664     0806  083B               	movf	(___flsub@b+3)^(0+128),w
  7665     0807  00A3               	movwf	(___fladd@b+3)^(0+128)
  7666     0808  083A               	movf	(___flsub@b+2)^(0+128),w
  7667     0809  00A2               	movwf	(___fladd@b+2)^(0+128)
  7668     080A  0839               	movf	(___flsub@b+1)^(0+128),w
  7669     080B  00A1               	movwf	(___fladd@b+1)^(0+128)
  7670     080C  0838               	movf	___flsub@b^(0+128),w
  7671     080D  00A0               	movwf	___fladd@b^(0+128)
  7672     080E  0837               	movf	(___flsub@a+3)^(0+128),w
  7673     080F  00A7               	movwf	(___fladd@a+3)^(0+128)
  7674     0810  0836               	movf	(___flsub@a+2)^(0+128),w
  7675     0811  00A6               	movwf	(___fladd@a+2)^(0+128)
  7676     0812  0835               	movf	(___flsub@a+1)^(0+128),w
  7677     0813  00A5               	movwf	(___fladd@a+1)^(0+128)
  7678     0814  0834               	movf	___flsub@a^(0+128),w
  7679     0815  00A4               	movwf	___fladd@a^(0+128)
  7680     0816  160A  118A  2316  120A  158A  	fcall	___fladd
  7681     081B  1683               	bsf	3,5	;RP0=1, select bank1
  7682     081C  1303               	bcf	3,6	;RP1=0, select bank1
  7683     081D  0823               	movf	(?___fladd+3)^(0+128),w
  7684     081E  00B7               	movwf	(?___flsub+3)^(0+128)
  7685     081F  0822               	movf	(?___fladd+2)^(0+128),w
  7686     0820  00B6               	movwf	(?___flsub+2)^(0+128)
  7687     0821  0821               	movf	(?___fladd+1)^(0+128),w
  7688     0822  00B5               	movwf	(?___flsub+1)^(0+128)
  7689     0823  0820               	movf	?___fladd^(0+128),w
  7690     0824  00B4               	movwf	?___flsub^(0+128)
  7691     0825                     l672:
  7692     0825  0008               	return
  7693     0826                     __end_of___flsub:
  7694                           
  7695                           	psect	text18
  7696     1316                     __ptext18:	
  7697 ;; *************** function ___fladd *****************
  7698 ;; Defined at:
  7699 ;;		line 10 in file "C:\Program Files\Microchip\xc8\v2.40\pic\sources\c90\common\sprcadd.c"
  7700 ;; Parameters:    Size  Location     Type
  7701 ;;  b               4    0[BANK1 ] long 
  7702 ;;  a               4    4[BANK1 ] long 
  7703 ;; Auto vars:     Size  Location     Type
  7704 ;;  grs             1   19[BANK1 ] unsigned char 
  7705 ;;  bexp            1   18[BANK1 ] unsigned char 
  7706 ;;  aexp            1   17[BANK1 ] unsigned char 
  7707 ;;  signs           1   16[BANK1 ] unsigned char 
  7708 ;; Return value:  Size  Location     Type
  7709 ;;                  4    0[BANK1 ] unsigned char 
  7710 ;; Registers used:
  7711 ;;		wreg, status,2, status,0, btemp+1
  7712 ;; Tracked objects:
  7713 ;;		On entry : 0/0
  7714 ;;		On exit  : 0/0
  7715 ;;		Unchanged: 0/0
  7716 ;; Data sizes:     COMMON   BANK0   BANK1   BANK3   BANK2
  7717 ;;      Params:         0       0       8       0       0
  7718 ;;      Locals:         0       0       4       0       0
  7719 ;;      Temps:          0       0       8       0       0
  7720 ;;      Totals:         0       0      20       0       0
  7721 ;;Total ram usage:       20 bytes
  7722 ;; Hardware stack levels used: 1
  7723 ;; Hardware stack levels required when called: 2
  7724 ;; This function calls:
  7725 ;;		Nothing
  7726 ;; This function is called by:
  7727 ;;		_sprintf
  7728 ;;		___flsub
  7729 ;; This function uses a non-reentrant model
  7730 ;;
  7731                           
  7732     1316                     ___fladd:	
  7733                           ;psect for function ___fladd
  7734                           
  7735     1316                     l3663:	
  7736                           ;incstack = 0
  7737                           ; Regs used in ___fladd: [wreg+status,2+status,0+btemp+1]
  7738                           
  7739     1316  1683               	bsf	3,5	;RP0=1, select bank1
  7740     1317  1303               	bcf	3,6	;RP1=0, select bank1
  7741     1318  0823               	movf	(___fladd@b^(0+128)+3),w
  7742     1319  3980               	andlw	128
  7743     131A  00B0               	movwf	___fladd@signs^(0+128)
  7744     131B                     l3665:
  7745     131B  0823               	movf	(___fladd@b^(0+128)+3),w
  7746     131C  00A8               	movwf	??___fladd^(0+128)
  7747     131D  0728               	addwf	??___fladd^(0+128),w
  7748     131E  00B2               	movwf	___fladd@bexp^(0+128)
  7749     131F                     l3667:
  7750     131F  1FA2               	btfss	(___fladd@b^(0+128)+2),7
  7751     1320  2B22               	goto	u6251
  7752     1321  2B23               	goto	u6250
  7753     1322                     u6251:
  7754     1322  2B24               	goto	l3671
  7755     1323                     u6250:
  7756     1323                     l3669:
  7757     1323  1432               	bsf	___fladd@bexp^(0+128),0
  7758     1324                     l3671:
  7759     1324  0832               	movf	___fladd@bexp^(0+128),w
  7760     1325  1903               	btfsc	3,2
  7761     1326  2B28               	goto	u6261
  7762     1327  2B29               	goto	u6260
  7763     1328                     u6261:
  7764     1328  2B39               	goto	l3681
  7765     1329                     u6260:
  7766     1329                     l3673:
  7767     1329  0A32               	incf	___fladd@bexp^(0+128),w
  7768     132A  1D03               	btfss	3,2
  7769     132B  2B2D               	goto	u6271
  7770     132C  2B2E               	goto	u6270
  7771     132D                     u6271:
  7772     132D  2B36               	goto	l3677
  7773     132E                     u6270:
  7774     132E                     l3675:
  7775     132E  3000               	movlw	0
  7776     132F  00A3               	movwf	(___fladd@b+3)^(0+128)
  7777     1330  3000               	movlw	0
  7778     1331  00A2               	movwf	(___fladd@b+2)^(0+128)
  7779     1332  3000               	movlw	0
  7780     1333  00A1               	movwf	(___fladd@b+1)^(0+128)
  7781     1334  3000               	movlw	0
  7782     1335  00A0               	movwf	___fladd@b^(0+128)
  7783     1336                     l3677:
  7784     1336  17A2               	bsf	(___fladd@b^(0+128)+2),7
  7785     1337                     l3679:
  7786     1337  01A3               	clrf	(___fladd@b^(0+128)+3)
  7787     1338  2B41               	goto	l3683
  7788     1339                     l3681:
  7789     1339  3000               	movlw	0
  7790     133A  00A3               	movwf	(___fladd@b+3)^(0+128)
  7791     133B  3000               	movlw	0
  7792     133C  00A2               	movwf	(___fladd@b+2)^(0+128)
  7793     133D  3000               	movlw	0
  7794     133E  00A1               	movwf	(___fladd@b+1)^(0+128)
  7795     133F  3000               	movlw	0
  7796     1340  00A0               	movwf	___fladd@b^(0+128)
  7797     1341                     l3683:
  7798     1341  0827               	movf	(___fladd@a^(0+128)+3),w
  7799     1342  3980               	andlw	128
  7800     1343  00B1               	movwf	___fladd@aexp^(0+128)
  7801     1344                     l3685:
  7802     1344  0831               	movf	___fladd@aexp^(0+128),w
  7803     1345  0630               	xorwf	___fladd@signs^(0+128),w
  7804     1346  1903               	skipnz
  7805     1347  2B49               	goto	u6281
  7806     1348  2B4A               	goto	u6280
  7807     1349                     u6281:
  7808     1349  2B4B               	goto	l3689
  7809     134A                     u6280:
  7810     134A                     l3687:
  7811     134A  1730               	bsf	___fladd@signs^(0+128),6
  7812     134B                     l3689:
  7813     134B  0827               	movf	(___fladd@a^(0+128)+3),w
  7814     134C  00A8               	movwf	??___fladd^(0+128)
  7815     134D  0728               	addwf	??___fladd^(0+128),w
  7816     134E  00B1               	movwf	___fladd@aexp^(0+128)
  7817     134F                     l3691:
  7818     134F  1FA6               	btfss	(___fladd@a^(0+128)+2),7
  7819     1350  2B52               	goto	u6291
  7820     1351  2B53               	goto	u6290
  7821     1352                     u6291:
  7822     1352  2B54               	goto	l3695
  7823     1353                     u6290:
  7824     1353                     l3693:
  7825     1353  1431               	bsf	___fladd@aexp^(0+128),0
  7826     1354                     l3695:
  7827     1354  0831               	movf	___fladd@aexp^(0+128),w
  7828     1355  1903               	btfsc	3,2
  7829     1356  2B58               	goto	u6301
  7830     1357  2B59               	goto	u6300
  7831     1358                     u6301:
  7832     1358  2B69               	goto	l3705
  7833     1359                     u6300:
  7834     1359                     l3697:
  7835     1359  0A31               	incf	___fladd@aexp^(0+128),w
  7836     135A  1D03               	btfss	3,2
  7837     135B  2B5D               	goto	u6311
  7838     135C  2B5E               	goto	u6310
  7839     135D                     u6311:
  7840     135D  2B66               	goto	l3701
  7841     135E                     u6310:
  7842     135E                     l3699:
  7843     135E  3000               	movlw	0
  7844     135F  00A7               	movwf	(___fladd@a+3)^(0+128)
  7845     1360  3000               	movlw	0
  7846     1361  00A6               	movwf	(___fladd@a+2)^(0+128)
  7847     1362  3000               	movlw	0
  7848     1363  00A5               	movwf	(___fladd@a+1)^(0+128)
  7849     1364  3000               	movlw	0
  7850     1365  00A4               	movwf	___fladd@a^(0+128)
  7851     1366                     l3701:
  7852     1366  17A6               	bsf	(___fladd@a^(0+128)+2),7
  7853     1367                     l3703:
  7854     1367  01A7               	clrf	(___fladd@a^(0+128)+3)
  7855     1368  2B71               	goto	l626
  7856     1369                     l3705:
  7857     1369  3000               	movlw	0
  7858     136A  00A7               	movwf	(___fladd@a+3)^(0+128)
  7859     136B  3000               	movlw	0
  7860     136C  00A6               	movwf	(___fladd@a+2)^(0+128)
  7861     136D  3000               	movlw	0
  7862     136E  00A5               	movwf	(___fladd@a+1)^(0+128)
  7863     136F  3000               	movlw	0
  7864     1370  00A4               	movwf	___fladd@a^(0+128)
  7865     1371                     l626:
  7866     1371  0832               	movf	___fladd@bexp^(0+128),w
  7867     1372  0231               	subwf	___fladd@aexp^(0+128),w
  7868     1373  1803               	skipnc
  7869     1374  2B76               	goto	u6321
  7870     1375  2B77               	goto	u6320
  7871     1376                     u6321:
  7872     1376  2B9D               	goto	l3741
  7873     1377                     u6320:
  7874     1377                     l3707:
  7875     1377  1F30               	btfss	___fladd@signs^(0+128),6
  7876     1378  2B7A               	goto	u6331
  7877     1379  2B7B               	goto	u6330
  7878     137A                     u6331:
  7879     137A  2B7F               	goto	l3711
  7880     137B                     u6330:
  7881     137B                     l3709:
  7882     137B  3080               	movlw	128
  7883     137C  00A8               	movwf	??___fladd^(0+128)
  7884     137D  0828               	movf	??___fladd^(0+128),w
  7885     137E  06B0               	xorwf	___fladd@signs^(0+128),f
  7886     137F                     l3711:
  7887     137F  0832               	movf	___fladd@bexp^(0+128),w
  7888     1380  00B3               	movwf	___fladd@grs^(0+128)
  7889     1381                     l3713:
  7890     1381  0831               	movf	___fladd@aexp^(0+128),w
  7891     1382  00B2               	movwf	___fladd@bexp^(0+128)
  7892     1383                     l3715:
  7893     1383  0833               	movf	___fladd@grs^(0+128),w
  7894     1384  00B1               	movwf	___fladd@aexp^(0+128)
  7895     1385                     l3717:
  7896     1385  0820               	movf	___fladd@b^(0+128),w
  7897     1386  00B3               	movwf	___fladd@grs^(0+128)
  7898     1387                     l3719:
  7899     1387  0824               	movf	___fladd@a^(0+128),w
  7900     1388  00A0               	movwf	___fladd@b^(0+128)
  7901     1389                     l3721:
  7902     1389  0833               	movf	___fladd@grs^(0+128),w
  7903     138A  00A4               	movwf	___fladd@a^(0+128)
  7904     138B                     l3723:
  7905     138B  0821               	movf	(___fladd@b^(0+128)+1),w
  7906     138C  00B3               	movwf	___fladd@grs^(0+128)
  7907     138D                     l3725:
  7908     138D  0825               	movf	(___fladd@a^(0+128)+1),w
  7909     138E  00A1               	movwf	(___fladd@b^(0+128)+1)
  7910     138F                     l3727:
  7911     138F  0833               	movf	___fladd@grs^(0+128),w
  7912     1390  00A5               	movwf	(___fladd@a^(0+128)+1)
  7913     1391                     l3729:
  7914     1391  0822               	movf	(___fladd@b^(0+128)+2),w
  7915     1392  00B3               	movwf	___fladd@grs^(0+128)
  7916     1393                     l3731:
  7917     1393  0826               	movf	(___fladd@a^(0+128)+2),w
  7918     1394  00A2               	movwf	(___fladd@b^(0+128)+2)
  7919     1395                     l3733:
  7920     1395  0833               	movf	___fladd@grs^(0+128),w
  7921     1396  00A6               	movwf	(___fladd@a^(0+128)+2)
  7922     1397                     l3735:
  7923     1397  0823               	movf	(___fladd@b^(0+128)+3),w
  7924     1398  00B3               	movwf	___fladd@grs^(0+128)
  7925     1399                     l3737:
  7926     1399  0827               	movf	(___fladd@a^(0+128)+3),w
  7927     139A  00A3               	movwf	(___fladd@b^(0+128)+3)
  7928     139B                     l3739:
  7929     139B  0833               	movf	___fladd@grs^(0+128),w
  7930     139C  00A7               	movwf	(___fladd@a^(0+128)+3)
  7931     139D                     l3741:
  7932     139D  01B3               	clrf	___fladd@grs^(0+128)
  7933     139E                     l3743:
  7934     139E  0831               	movf	___fladd@aexp^(0+128),w
  7935     139F  00A8               	movwf	??___fladd^(0+128)
  7936     13A0  01A9               	clrf	(??___fladd^(0+128)+1)
  7937     13A1  0829               	movf	(??___fladd+1)^(0+128),w
  7938     13A2  00AB               	movwf	((??___fladd+2)^(0+128)+1)
  7939     13A3  0832               	movf	___fladd@bexp^(0+128),w
  7940     13A4  0228               	subwf	??___fladd^(0+128),w
  7941     13A5  00AA               	movwf	(??___fladd+2)^(0+128)
  7942     13A6  1C03               	skipc
  7943     13A7  03AB               	decf	((??___fladd+2)^(0+128)+1),f
  7944     13A8  082B               	movf	(??___fladd+3)^(0+128),w
  7945     13A9  3A80               	xorlw	128
  7946     13AA  00FF               	movwf	btemp+1
  7947     13AB  3080               	movlw	128
  7948     13AC  027F               	subwf	btemp+1,w
  7949     13AD  1D03               	skipz
  7950     13AE  2BB1               	goto	u6345
  7951     13AF  301A               	movlw	26
  7952     13B0  022A               	subwf	(??___fladd+2)^(0+128),w
  7953     13B1                     u6345:
  7954     13B1  1C03               	skipc
  7955     13B2  2BB4               	goto	u6341
  7956     13B3  2BB5               	goto	u6340
  7957     13B4                     u6341:
  7958     13B4  2BEC               	goto	l3759
  7959     13B5                     u6340:
  7960     13B5                     l3745:
  7961     13B5  1683               	bsf	3,5	;RP0=1, select bank1
  7962     13B6  1303               	bcf	3,6	;RP1=0, select bank1
  7963     13B7  0823               	movf	(___fladd@b+3)^(0+128),w
  7964     13B8  0422               	iorwf	(___fladd@b+2)^(0+128),w
  7965     13B9  0421               	iorwf	(___fladd@b+1)^(0+128),w
  7966     13BA  0420               	iorwf	___fladd@b^(0+128),w
  7967     13BB  1D03               	skipz
  7968     13BC  2BBE               	goto	u6351
  7969     13BD  2BC0               	goto	u6350
  7970     13BE                     u6351:
  7971     13BE  3001               	movlw	1
  7972     13BF  2BC1               	goto	u6360
  7973     13C0                     u6350:
  7974     13C0  3000               	movlw	0
  7975     13C1                     u6360:
  7976     13C1  00B3               	movwf	___fladd@grs^(0+128)
  7977     13C2  3000               	movlw	0
  7978     13C3  00A3               	movwf	(___fladd@b+3)^(0+128)
  7979     13C4  3000               	movlw	0
  7980     13C5  00A2               	movwf	(___fladd@b+2)^(0+128)
  7981     13C6  3000               	movlw	0
  7982     13C7  00A1               	movwf	(___fladd@b+1)^(0+128)
  7983     13C8  3000               	movlw	0
  7984     13C9  00A0               	movwf	___fladd@b^(0+128)
  7985     13CA  0831               	movf	___fladd@aexp^(0+128),w
  7986     13CB  00B2               	movwf	___fladd@bexp^(0+128)
  7987     13CC  2BF4               	goto	l630
  7988     13CD                     l632:
  7989     13CD  1C33               	btfss	___fladd@grs^(0+128),0
  7990     13CE  2BD0               	goto	u6371
  7991     13CF  2BD1               	goto	u6370
  7992     13D0                     u6371:
  7993     13D0  2BD8               	goto	l3749
  7994     13D1                     u6370:
  7995     13D1                     l3747:
  7996     13D1  0833               	movf	___fladd@grs^(0+128),w
  7997     13D2  00A8               	movwf	??___fladd^(0+128)
  7998     13D3  1003               	clrc
  7999     13D4  0C28               	rrf	??___fladd^(0+128),w
  8000     13D5  3801               	iorlw	1
  8001     13D6  00B3               	movwf	___fladd@grs^(0+128)
  8002     13D7  2BDA               	goto	l3751
  8003     13D8                     l3749:
  8004     13D8  1003               	clrc
  8005     13D9  0CB3               	rrf	___fladd@grs^(0+128),f
  8006     13DA                     l3751:
  8007     13DA  1C20               	btfss	___fladd@b^(0+128),0
  8008     13DB  2BDD               	goto	u6381
  8009     13DC  2BDE               	goto	u6380
  8010     13DD                     u6381:
  8011     13DD  2BDF               	goto	l3755
  8012     13DE                     u6380:
  8013     13DE                     l3753:
  8014     13DE  17B3               	bsf	___fladd@grs^(0+128),7
  8015     13DF                     l3755:
  8016     13DF  3001               	movlw	1
  8017     13E0  00A8               	movwf	??___fladd^(0+128)
  8018     13E1                     u6395:
  8019     13E1  0D23               	rlf	(___fladd@b+3)^(0+128),w
  8020     13E2  0CA3               	rrf	(___fladd@b+3)^(0+128),f
  8021     13E3  0CA2               	rrf	(___fladd@b+2)^(0+128),f
  8022     13E4  0CA1               	rrf	(___fladd@b+1)^(0+128),f
  8023     13E5  0CA0               	rrf	___fladd@b^(0+128),f
  8024     13E6  0BA8               	decfsz	(??___fladd^(0+128))& (0+127),f
  8025     13E7  2BE1               	goto	u6395
  8026     13E8                     l3757:
  8027     13E8  3001               	movlw	1
  8028     13E9  00A8               	movwf	??___fladd^(0+128)
  8029     13EA  0828               	movf	??___fladd^(0+128),w
  8030     13EB  07B2               	addwf	___fladd@bexp^(0+128),f
  8031     13EC                     l3759:
  8032     13EC  1683               	bsf	3,5	;RP0=1, select bank1
  8033     13ED  1303               	bcf	3,6	;RP1=0, select bank1
  8034     13EE  0831               	movf	___fladd@aexp^(0+128),w
  8035     13EF  0232               	subwf	___fladd@bexp^(0+128),w
  8036     13F0  1C03               	skipc
  8037     13F1  2BF3               	goto	u6401
  8038     13F2  2BF4               	goto	u6400
  8039     13F3                     u6401:
  8040     13F3  2BCD               	goto	l632
  8041     13F4                     u6400:
  8042     13F4                     l630:
  8043     13F4  1B30               	btfsc	___fladd@signs^(0+128),6
  8044     13F5  2BF7               	goto	u6411
  8045     13F6  2BF8               	goto	u6410
  8046     13F7                     u6411:
  8047     13F7  2C41               	goto	l3785
  8048     13F8                     u6410:
  8049     13F8                     l3761:
  8050     13F8  0832               	movf	___fladd@bexp^(0+128),w
  8051     13F9  1D03               	btfss	3,2
  8052     13FA  2BFC               	goto	u6421
  8053     13FB  2BFD               	goto	u6420
  8054     13FC                     u6421:
  8055     13FC  2C06               	goto	l3767
  8056     13FD                     u6420:
  8057     13FD                     l3763:
  8058     13FD  3000               	movlw	0
  8059     13FE  00A3               	movwf	(?___fladd+3)^(0+128)
  8060     13FF  3000               	movlw	0
  8061     1400  00A2               	movwf	(?___fladd+2)^(0+128)
  8062     1401  3000               	movlw	0
  8063     1402  00A1               	movwf	(?___fladd+1)^(0+128)
  8064     1403  3000               	movlw	0
  8065     1404  00A0               	movwf	?___fladd^(0+128)
  8066     1405  2D6D               	goto	l639
  8067     1406                     l3767:
  8068     1406  0824               	movf	___fladd@a^(0+128),w
  8069     1407  07A0               	addwf	___fladd@b^(0+128),f
  8070     1408  0825               	movf	(___fladd@a+1)^(0+128),w
  8071     1409  1103               	clrz
  8072     140A  1803               	skipnc
  8073     140B  3E01               	addlw	1
  8074     140C  1903               	skipnz
  8075     140D  2C0F               	goto	u6431
  8076     140E  07A1               	addwf	(___fladd@b+1)^(0+128),f
  8077     140F                     u6431:
  8078     140F  0826               	movf	(___fladd@a+2)^(0+128),w
  8079     1410  1103               	clrz
  8080     1411  1803               	skipnc
  8081     1412  3E01               	addlw	1
  8082     1413  1903               	skipnz
  8083     1414  2C16               	goto	u6432
  8084     1415  07A2               	addwf	(___fladd@b+2)^(0+128),f
  8085     1416                     u6432:
  8086     1416  0827               	movf	(___fladd@a+3)^(0+128),w
  8087     1417  1103               	clrz
  8088     1418  1803               	skipnc
  8089     1419  3E01               	addlw	1
  8090     141A  1903               	skipnz
  8091     141B  2C1D               	goto	u6433
  8092     141C  07A3               	addwf	(___fladd@b+3)^(0+128),f
  8093     141D                     u6433:
  8094     141D                     l3769:
  8095     141D  1C23               	btfss	(___fladd@b+3)^(0+128),0
  8096     141E  2C20               	goto	u6441
  8097     141F  2C21               	goto	u6440
  8098     1420                     u6441:
  8099     1420  2CF5               	goto	l3819
  8100     1421                     u6440:
  8101     1421                     l3771:
  8102     1421  1C33               	btfss	___fladd@grs^(0+128),0
  8103     1422  2C24               	goto	u6451
  8104     1423  2C25               	goto	u6450
  8105     1424                     u6451:
  8106     1424  2C2C               	goto	l3775
  8107     1425                     u6450:
  8108     1425                     l3773:
  8109     1425  0833               	movf	___fladd@grs^(0+128),w
  8110     1426  00A8               	movwf	??___fladd^(0+128)
  8111     1427  1003               	clrc
  8112     1428  0C28               	rrf	??___fladd^(0+128),w
  8113     1429  3801               	iorlw	1
  8114     142A  00B3               	movwf	___fladd@grs^(0+128)
  8115     142B  2C2E               	goto	l3777
  8116     142C                     l3775:
  8117     142C  1003               	clrc
  8118     142D  0CB3               	rrf	___fladd@grs^(0+128),f
  8119     142E                     l3777:
  8120     142E  1C20               	btfss	___fladd@b^(0+128),0
  8121     142F  2C31               	goto	u6461
  8122     1430  2C32               	goto	u6460
  8123     1431                     u6461:
  8124     1431  2C33               	goto	l3781
  8125     1432                     u6460:
  8126     1432                     l3779:
  8127     1432  17B3               	bsf	___fladd@grs^(0+128),7
  8128     1433                     l3781:
  8129     1433  3001               	movlw	1
  8130     1434  00A8               	movwf	??___fladd^(0+128)
  8131     1435                     u6475:
  8132     1435  0D23               	rlf	(___fladd@b+3)^(0+128),w
  8133     1436  0CA3               	rrf	(___fladd@b+3)^(0+128),f
  8134     1437  0CA2               	rrf	(___fladd@b+2)^(0+128),f
  8135     1438  0CA1               	rrf	(___fladd@b+1)^(0+128),f
  8136     1439  0CA0               	rrf	___fladd@b^(0+128),f
  8137     143A  0BA8               	decfsz	(??___fladd^(0+128))& (0+127),f
  8138     143B  2C35               	goto	u6475
  8139     143C                     l3783:
  8140     143C  3001               	movlw	1
  8141     143D  00A8               	movwf	??___fladd^(0+128)
  8142     143E  0828               	movf	??___fladd^(0+128),w
  8143     143F  07B2               	addwf	___fladd@bexp^(0+128),f
  8144     1440  2CF5               	goto	l3819
  8145     1441                     l3785:
  8146     1441  0823               	movf	(___fladd@b+3)^(0+128),w
  8147     1442  3A80               	xorlw	128
  8148     1443  00FF               	movwf	btemp+1
  8149     1444  0827               	movf	(___fladd@a+3)^(0+128),w
  8150     1445  3A80               	xorlw	128
  8151     1446  027F               	subwf	btemp+1,w
  8152     1447  1D03               	skipz
  8153     1448  2C53               	goto	u6483
  8154     1449  0826               	movf	(___fladd@a+2)^(0+128),w
  8155     144A  0222               	subwf	(___fladd@b+2)^(0+128),w
  8156     144B  1D03               	skipz
  8157     144C  2C53               	goto	u6483
  8158     144D  0825               	movf	(___fladd@a+1)^(0+128),w
  8159     144E  0221               	subwf	(___fladd@b+1)^(0+128),w
  8160     144F  1D03               	skipz
  8161     1450  2C53               	goto	u6483
  8162     1451  0824               	movf	___fladd@a^(0+128),w
  8163     1452  0220               	subwf	___fladd@b^(0+128),w
  8164     1453                     u6483:
  8165     1453  1803               	skipnc
  8166     1454  2C56               	goto	u6481
  8167     1455  2C57               	goto	u6480
  8168     1456                     u6481:
  8169     1456  2CAF               	goto	l3795
  8170     1457                     u6480:
  8171     1457                     l3787:
  8172     1457  30FF               	movlw	255
  8173     1458  00A8               	movwf	??___fladd^(0+128)
  8174     1459  30FF               	movlw	255
  8175     145A  00A9               	movwf	(??___fladd^(0+128)+1)
  8176     145B  30FF               	movlw	255
  8177     145C  00AA               	movwf	(??___fladd^(0+128)+2)
  8178     145D  30FF               	movlw	255
  8179     145E  00AB               	movwf	(??___fladd^(0+128)+3)
  8180     145F  0824               	movf	___fladd@a^(0+128),w
  8181     1460  00AC               	movwf	(??___fladd+4)^(0+128)
  8182     1461  0825               	movf	(___fladd@a+1)^(0+128),w
  8183     1462  00AD               	movwf	((??___fladd+4)^(0+128)+1)
  8184     1463  0826               	movf	(___fladd@a+2)^(0+128),w
  8185     1464  00AE               	movwf	((??___fladd+4)^(0+128)+2)
  8186     1465  0827               	movf	(___fladd@a+3)^(0+128),w
  8187     1466  00AF               	movwf	((??___fladd+4)^(0+128)+3)
  8188     1467  0820               	movf	___fladd@b^(0+128),w
  8189     1468  02AC               	subwf	(??___fladd+4)^(0+128),f
  8190     1469  0821               	movf	(___fladd@b+1)^(0+128),w
  8191     146A  1C03               	skipc
  8192     146B  0F21               	incfsz	(___fladd@b+1)^(0+128),w
  8193     146C  2C6E               	goto	u6491
  8194     146D  2C6F               	goto	u6492
  8195     146E                     u6491:
  8196     146E  02AD               	subwf	((??___fladd+4)^(0+128)+1),f
  8197     146F                     u6492:
  8198     146F  0822               	movf	(___fladd@b+2)^(0+128),w
  8199     1470  1C03               	skipc
  8200     1471  0F22               	incfsz	(___fladd@b+2)^(0+128),w
  8201     1472  2C74               	goto	u6493
  8202     1473  2C75               	goto	u6494
  8203     1474                     u6493:
  8204     1474  02AE               	subwf	((??___fladd+4)^(0+128)+2),f
  8205     1475                     u6494:
  8206     1475  0823               	movf	(___fladd@b+3)^(0+128),w
  8207     1476  1C03               	skipc
  8208     1477  0F23               	incfsz	(___fladd@b+3)^(0+128),w
  8209     1478  2C7A               	goto	u6495
  8210     1479  2C7B               	goto	u6496
  8211     147A                     u6495:
  8212     147A  02AF               	subwf	((??___fladd+4)^(0+128)+3),f
  8213     147B                     u6496:
  8214     147B  082C               	movf	(??___fladd+4)^(0+128),w
  8215     147C  07A8               	addwf	??___fladd^(0+128),f
  8216     147D  082D               	movf	(??___fladd+5)^(0+128),w
  8217     147E  1803               	skipnc
  8218     147F  0F2D               	incfsz	(??___fladd+5)^(0+128),w
  8219     1480  2C82               	goto	u6500
  8220     1481  2C83               	goto	u6501
  8221     1482                     u6500:
  8222     1482  07A9               	addwf	(??___fladd^(0+128)+1),f
  8223     1483                     u6501:
  8224     1483  082E               	movf	(??___fladd+6)^(0+128),w
  8225     1484  1803               	skipnc
  8226     1485  0F2E               	incfsz	(??___fladd+6)^(0+128),w
  8227     1486  2C88               	goto	u6502
  8228     1487  2C89               	goto	u6503
  8229     1488                     u6502:
  8230     1488  07AA               	addwf	(??___fladd^(0+128)+2),f
  8231     1489                     u6503:
  8232     1489  082F               	movf	(??___fladd+7)^(0+128),w
  8233     148A  1803               	skipnc
  8234     148B  0A2F               	incf	(??___fladd+7)^(0+128),w
  8235     148C  07AB               	addwf	(??___fladd^(0+128)+3),f
  8236     148D  082B               	movf	(??___fladd+3)^(0+128),w
  8237     148E  00A3               	movwf	(___fladd@b+3)^(0+128)
  8238     148F  082A               	movf	(??___fladd+2)^(0+128),w
  8239     1490  00A2               	movwf	(___fladd@b+2)^(0+128)
  8240     1491  0829               	movf	(??___fladd+1)^(0+128),w
  8241     1492  00A1               	movwf	(___fladd@b+1)^(0+128)
  8242     1493  0828               	movf	??___fladd^(0+128),w
  8243     1494  00A0               	movwf	___fladd@b^(0+128)
  8244     1495                     l3789:
  8245     1495  3080               	movlw	128
  8246     1496  00A8               	movwf	??___fladd^(0+128)
  8247     1497  0828               	movf	??___fladd^(0+128),w
  8248     1498  06B0               	xorwf	___fladd@signs^(0+128),f
  8249     1499  09B3               	comf	___fladd@grs^(0+128),f
  8250     149A  0AB3               	incf	___fladd@grs^(0+128),f
  8251     149B                     l3791:
  8252     149B  0833               	movf	___fladd@grs^(0+128),w
  8253     149C  1D03               	btfss	3,2
  8254     149D  2C9F               	goto	u6511
  8255     149E  2CA0               	goto	u6510
  8256     149F                     u6511:
  8257     149F  2CBD               	goto	l647
  8258     14A0                     u6510:
  8259     14A0                     l3793:
  8260     14A0  3001               	movlw	1
  8261     14A1  07A0               	addwf	___fladd@b^(0+128),f
  8262     14A2  3000               	movlw	0
  8263     14A3  1803               	skipnc
  8264     14A4  3001               	movlw	1
  8265     14A5  07A1               	addwf	(___fladd@b+1)^(0+128),f
  8266     14A6  3000               	movlw	0
  8267     14A7  1803               	skipnc
  8268     14A8  3001               	movlw	1
  8269     14A9  07A2               	addwf	(___fladd@b+2)^(0+128),f
  8270     14AA  3000               	movlw	0
  8271     14AB  1803               	skipnc
  8272     14AC  3001               	movlw	1
  8273     14AD  07A3               	addwf	(___fladd@b+3)^(0+128),f
  8274     14AE  2CBD               	goto	l647
  8275     14AF                     l3795:
  8276     14AF  0824               	movf	___fladd@a^(0+128),w
  8277     14B0  02A0               	subwf	___fladd@b^(0+128),f
  8278     14B1  0825               	movf	(___fladd@a+1)^(0+128),w
  8279     14B2  1C03               	skipc
  8280     14B3  0F25               	incfsz	(___fladd@a+1)^(0+128),w
  8281     14B4  02A1               	subwf	(___fladd@b+1)^(0+128),f
  8282     14B5  0826               	movf	(___fladd@a+2)^(0+128),w
  8283     14B6  1C03               	skipc
  8284     14B7  0F26               	incfsz	(___fladd@a+2)^(0+128),w
  8285     14B8  02A2               	subwf	(___fladd@b+2)^(0+128),f
  8286     14B9  0827               	movf	(___fladd@a+3)^(0+128),w
  8287     14BA  1C03               	skipc
  8288     14BB  0F27               	incfsz	(___fladd@a+3)^(0+128),w
  8289     14BC  02A3               	subwf	(___fladd@b+3)^(0+128),f
  8290     14BD                     l647:
  8291     14BD  0823               	movf	(___fladd@b+3)^(0+128),w
  8292     14BE  0422               	iorwf	(___fladd@b+2)^(0+128),w
  8293     14BF  0421               	iorwf	(___fladd@b+1)^(0+128),w
  8294     14C0  0420               	iorwf	___fladd@b^(0+128),w
  8295     14C1  1D03               	skipz
  8296     14C2  2CC4               	goto	u6521
  8297     14C3  2CC5               	goto	u6520
  8298     14C4                     u6521:
  8299     14C4  2CF1               	goto	l3817
  8300     14C5                     u6520:
  8301     14C5                     l3797:
  8302     14C5  0833               	movf	___fladd@grs^(0+128),w
  8303     14C6  1D03               	btfss	3,2
  8304     14C7  2CC9               	goto	u6531
  8305     14C8  2CCA               	goto	u6530
  8306     14C9                     u6531:
  8307     14C9  2CF1               	goto	l3817
  8308     14CA                     u6530:
  8309     14CA                     l3799:
  8310     14CA  3000               	movlw	0
  8311     14CB  00A3               	movwf	(?___fladd+3)^(0+128)
  8312     14CC  3000               	movlw	0
  8313     14CD  00A2               	movwf	(?___fladd+2)^(0+128)
  8314     14CE  3000               	movlw	0
  8315     14CF  00A1               	movwf	(?___fladd+1)^(0+128)
  8316     14D0  3000               	movlw	0
  8317     14D1  00A0               	movwf	?___fladd^(0+128)
  8318     14D2  2D6D               	goto	l639
  8319     14D3                     l3803:
  8320     14D3  3001               	movlw	1
  8321     14D4  00A8               	movwf	??___fladd^(0+128)
  8322     14D5                     u6545:
  8323     14D5  1003               	clrc
  8324     14D6  0DA0               	rlf	___fladd@b^(0+128),f
  8325     14D7  0DA1               	rlf	(___fladd@b+1)^(0+128),f
  8326     14D8  0DA2               	rlf	(___fladd@b+2)^(0+128),f
  8327     14D9  0DA3               	rlf	(___fladd@b+3)^(0+128),f
  8328     14DA  0BA8               	decfsz	??___fladd^(0+128),f
  8329     14DB  2CD5               	goto	u6545
  8330     14DC                     l3805:
  8331     14DC  1FB3               	btfss	___fladd@grs^(0+128),7
  8332     14DD  2CDF               	goto	u6551
  8333     14DE  2CE0               	goto	u6550
  8334     14DF                     u6551:
  8335     14DF  2CE1               	goto	l651
  8336     14E0                     u6550:
  8337     14E0                     l3807:
  8338     14E0  1420               	bsf	___fladd@b^(0+128),0
  8339     14E1                     l651:
  8340     14E1  1C33               	btfss	___fladd@grs^(0+128),0
  8341     14E2  2CE4               	goto	u6561
  8342     14E3  2CE5               	goto	u6560
  8343     14E4                     u6561:
  8344     14E4  2CE8               	goto	l3811
  8345     14E5                     u6560:
  8346     14E5                     l3809:
  8347     14E5  1403               	setc
  8348     14E6  0DB3               	rlf	___fladd@grs^(0+128),f
  8349     14E7  2CEA               	goto	l3813
  8350     14E8                     l3811:
  8351     14E8  1003               	clrc
  8352     14E9  0DB3               	rlf	___fladd@grs^(0+128),f
  8353     14EA                     l3813:
  8354     14EA  0832               	movf	___fladd@bexp^(0+128),w
  8355     14EB  1903               	btfsc	3,2
  8356     14EC  2CEE               	goto	u6571
  8357     14ED  2CEF               	goto	u6570
  8358     14EE                     u6571:
  8359     14EE  2CF1               	goto	l3817
  8360     14EF                     u6570:
  8361     14EF                     l3815:
  8362     14EF  3001               	movlw	1
  8363     14F0  02B2               	subwf	___fladd@bexp^(0+128),f
  8364     14F1                     l3817:
  8365     14F1  1FA2               	btfss	(___fladd@b+2)^(0+128),7
  8366     14F2  2CF4               	goto	u6581
  8367     14F3  2CF5               	goto	u6580
  8368     14F4                     u6581:
  8369     14F4  2CD3               	goto	l3803
  8370     14F5                     u6580:
  8371     14F5                     l3819:
  8372     14F5  01B1               	clrf	___fladd@aexp^(0+128)
  8373     14F6                     l3821:
  8374     14F6  1FB3               	btfss	___fladd@grs^(0+128),7
  8375     14F7  2CF9               	goto	u6591
  8376     14F8  2CFA               	goto	u6590
  8377     14F9                     u6591:
  8378     14F9  2D08               	goto	l3829
  8379     14FA                     u6590:
  8380     14FA                     l3823:
  8381     14FA  0833               	movf	___fladd@grs^(0+128),w
  8382     14FB  397F               	andlw	127
  8383     14FC  1903               	btfsc	3,2
  8384     14FD  2CFF               	goto	u6601
  8385     14FE  2D00               	goto	u6600
  8386     14FF                     u6601:
  8387     14FF  2D03               	goto	l657
  8388     1500                     u6600:
  8389     1500                     l3825:
  8390     1500  01B1               	clrf	___fladd@aexp^(0+128)
  8391     1501  0AB1               	incf	___fladd@aexp^(0+128),f
  8392     1502  2D08               	goto	l3829
  8393     1503                     l657:
  8394     1503  1C20               	btfss	___fladd@b^(0+128),0
  8395     1504  2D06               	goto	u6611
  8396     1505  2D07               	goto	u6610
  8397     1506                     u6611:
  8398     1506  2D08               	goto	l3829
  8399     1507                     u6610:
  8400     1507  2D00               	goto	l3825
  8401     1508                     l3829:
  8402     1508  0831               	movf	___fladd@aexp^(0+128),w
  8403     1509  1903               	btfsc	3,2
  8404     150A  2D0C               	goto	u6621
  8405     150B  2D0D               	goto	u6620
  8406     150C                     u6621:
  8407     150C  2D41               	goto	l660
  8408     150D                     u6620:
  8409     150D                     l3831:
  8410     150D  3001               	movlw	1
  8411     150E  07A0               	addwf	___fladd@b^(0+128),f
  8412     150F  3000               	movlw	0
  8413     1510  1803               	skipnc
  8414     1511  3001               	movlw	1
  8415     1512  07A1               	addwf	(___fladd@b+1)^(0+128),f
  8416     1513  3000               	movlw	0
  8417     1514  1803               	skipnc
  8418     1515  3001               	movlw	1
  8419     1516  07A2               	addwf	(___fladd@b+2)^(0+128),f
  8420     1517  3000               	movlw	0
  8421     1518  1803               	skipnc
  8422     1519  3001               	movlw	1
  8423     151A  07A3               	addwf	(___fladd@b+3)^(0+128),f
  8424     151B                     l3833:
  8425     151B  1C23               	btfss	(___fladd@b+3)^(0+128),0
  8426     151C  2D1E               	goto	u6631
  8427     151D  2D1F               	goto	u6630
  8428     151E                     u6631:
  8429     151E  2D41               	goto	l660
  8430     151F                     u6630:
  8431     151F                     l3835:
  8432     151F  0820               	movf	___fladd@b^(0+128),w
  8433     1520  00A8               	movwf	??___fladd^(0+128)
  8434     1521  0821               	movf	(___fladd@b+1)^(0+128),w
  8435     1522  00A9               	movwf	(??___fladd^(0+128)+1)
  8436     1523  0822               	movf	(___fladd@b+2)^(0+128),w
  8437     1524  00AA               	movwf	(??___fladd^(0+128)+2)
  8438     1525  0823               	movf	(___fladd@b+3)^(0+128),w
  8439     1526  00AB               	movwf	(??___fladd^(0+128)+3)
  8440     1527  3001               	movlw	1
  8441     1528  00AC               	movwf	(??___fladd+4)^(0+128)
  8442     1529                     u6645:
  8443     1529  0D2B               	rlf	(??___fladd^(0+128)+3),w
  8444     152A  0CAB               	rrf	(??___fladd^(0+128)+3),f
  8445     152B  0CAA               	rrf	(??___fladd^(0+128)+2),f
  8446     152C  0CA9               	rrf	(??___fladd^(0+128)+1),f
  8447     152D  0CA8               	rrf	??___fladd^(0+128),f
  8448     152E                     u6640:
  8449     152E  0BAC               	decfsz	(??___fladd+4)^(0+128),f
  8450     152F  2D29               	goto	u6645
  8451     1530  082B               	movf	(??___fladd+3)^(0+128),w
  8452     1531  00A3               	movwf	(___fladd@b+3)^(0+128)
  8453     1532  082A               	movf	(??___fladd+2)^(0+128),w
  8454     1533  00A2               	movwf	(___fladd@b+2)^(0+128)
  8455     1534  0829               	movf	(??___fladd+1)^(0+128),w
  8456     1535  00A1               	movwf	(___fladd@b+1)^(0+128)
  8457     1536  0828               	movf	??___fladd^(0+128),w
  8458     1537  00A0               	movwf	___fladd@b^(0+128)
  8459     1538  0A32               	incf	___fladd@bexp^(0+128),w
  8460     1539  1903               	btfsc	3,2
  8461     153A  2D3C               	goto	u6651
  8462     153B  2D3D               	goto	u6650
  8463     153C                     u6651:
  8464     153C  2D41               	goto	l660
  8465     153D                     u6650:
  8466     153D                     l3837:
  8467     153D  3001               	movlw	1
  8468     153E  00A8               	movwf	??___fladd^(0+128)
  8469     153F  0828               	movf	??___fladd^(0+128),w
  8470     1540  07B2               	addwf	___fladd@bexp^(0+128),f
  8471     1541                     l660:
  8472     1541  0A32               	incf	___fladd@bexp^(0+128),w
  8473     1542  1903               	btfsc	3,2
  8474     1543  2D45               	goto	u6661
  8475     1544  2D46               	goto	u6660
  8476     1545                     u6661:
  8477     1545  2D4B               	goto	l3841
  8478     1546                     u6660:
  8479     1546                     l3839:
  8480     1546  0832               	movf	___fladd@bexp^(0+128),w
  8481     1547  1D03               	btfss	3,2
  8482     1548  2D4A               	goto	u6671
  8483     1549  2D4B               	goto	u6670
  8484     154A                     u6671:
  8485     154A  2D59               	goto	l3847
  8486     154B                     u6670:
  8487     154B                     l3841:
  8488     154B  3000               	movlw	0
  8489     154C  00A3               	movwf	(___fladd@b+3)^(0+128)
  8490     154D  3000               	movlw	0
  8491     154E  00A2               	movwf	(___fladd@b+2)^(0+128)
  8492     154F  3000               	movlw	0
  8493     1550  00A1               	movwf	(___fladd@b+1)^(0+128)
  8494     1551  3000               	movlw	0
  8495     1552  00A0               	movwf	___fladd@b^(0+128)
  8496     1553                     l3843:
  8497     1553  0832               	movf	___fladd@bexp^(0+128),w
  8498     1554  1D03               	btfss	3,2
  8499     1555  2D57               	goto	u6681
  8500     1556  2D58               	goto	u6680
  8501     1557                     u6681:
  8502     1557  2D59               	goto	l3847
  8503     1558                     u6680:
  8504     1558                     l3845:
  8505     1558  01B0               	clrf	___fladd@signs^(0+128)
  8506     1559                     l3847:
  8507     1559  1C32               	btfss	___fladd@bexp^(0+128),0
  8508     155A  2D5C               	goto	u6691
  8509     155B  2D5D               	goto	u6690
  8510     155C                     u6691:
  8511     155C  2D5F               	goto	l3851
  8512     155D                     u6690:
  8513     155D                     l3849:
  8514     155D  17A2               	bsf	(___fladd@b^(0+128)+2),7
  8515     155E  2D63               	goto	l668
  8516     155F                     l3851:
  8517     155F  307F               	movlw	127
  8518     1560  00A8               	movwf	??___fladd^(0+128)
  8519     1561  0828               	movf	??___fladd^(0+128),w
  8520     1562  05A2               	andwf	(___fladd@b^(0+128)+2),f
  8521     1563                     l668:
  8522     1563  0832               	movf	___fladd@bexp^(0+128),w
  8523     1564  00A8               	movwf	??___fladd^(0+128)
  8524     1565  1003               	clrc
  8525     1566  0C28               	rrf	??___fladd^(0+128),w
  8526     1567  00A3               	movwf	(___fladd@b^(0+128)+3)
  8527     1568                     l3853:
  8528     1568  1FB0               	btfss	___fladd@signs^(0+128),7
  8529     1569  2D6B               	goto	u6701
  8530     156A  2D6C               	goto	u6700
  8531     156B                     u6701:
  8532     156B  2D6D               	goto	l669
  8533     156C                     u6700:
  8534     156C                     l3855:
  8535     156C  17A3               	bsf	(___fladd@b^(0+128)+3),7
  8536     156D                     l669:
  8537     156D                     l639:
  8538     156D  0008               	return
  8539     156E                     __end_of___fladd:
  8540                           
  8541                           	psect	text19
  8542     1ACE                     __ptext19:	
  8543 ;; *************** function ___flneg *****************
  8544 ;; Defined at:
  8545 ;;		line 15 in file "C:\Program Files\Microchip\xc8\v2.40\pic\sources\c90\common\flneg.c"
  8546 ;; Parameters:    Size  Location     Type
  8547 ;;  f1              4    6[BANK0 ] unsigned char 
  8548 ;; Auto vars:     Size  Location     Type
  8549 ;;		None
  8550 ;; Return value:  Size  Location     Type
  8551 ;;                  4    6[BANK0 ] unsigned char 
  8552 ;; Registers used:
  8553 ;;		wreg
  8554 ;; Tracked objects:
  8555 ;;		On entry : 0/0
  8556 ;;		On exit  : 0/0
  8557 ;;		Unchanged: 0/0
  8558 ;; Data sizes:     COMMON   BANK0   BANK1   BANK3   BANK2
  8559 ;;      Params:         0       4       0       0       0
  8560 ;;      Locals:         0       0       0       0       0
  8561 ;;      Temps:          0       0       0       0       0
  8562 ;;      Totals:         0       4       0       0       0
  8563 ;;Total ram usage:        4 bytes
  8564 ;; Hardware stack levels used: 1
  8565 ;; Hardware stack levels required when called: 2
  8566 ;; This function calls:
  8567 ;;		Nothing
  8568 ;; This function is called by:
  8569 ;;		_sprintf
  8570 ;; This function uses a non-reentrant model
  8571 ;;
  8572                           
  8573     1ACE                     ___flneg:	
  8574                           ;psect for function ___flneg
  8575                           
  8576     1ACE                     l3021:	
  8577                           ;incstack = 0
  8578                           ; Regs used in ___flneg: [wreg]
  8579                           
  8580     1ACE  1283               	bcf	3,5	;RP0=0, select bank0
  8581     1ACF  1303               	bcf	3,6	;RP1=0, select bank0
  8582     1AD0  0829               	movf	___flneg@f1+3,w
  8583     1AD1  0428               	iorwf	___flneg@f1+2,w
  8584     1AD2  0427               	iorwf	___flneg@f1+1,w
  8585     1AD3  0426               	iorwf	___flneg@f1,w
  8586     1AD4  1903               	skipnz
  8587     1AD5  2AD7               	goto	u5081
  8588     1AD6  2AD8               	goto	u5080
  8589     1AD7                     u5081:
  8590     1AD7  2ADA               	goto	l3025
  8591     1AD8                     u5080:
  8592     1AD8                     l3023:
  8593     1AD8  3080               	movlw	128
  8594     1AD9  06A9               	xorwf	___flneg@f1+3,f
  8595     1ADA                     l3025:
  8596     1ADA                     l498:
  8597     1ADA  0008               	return
  8598     1ADB                     __end_of___flneg:
  8599                           
  8600                           	psect	text20
  8601     1DED                     __ptext20:	
  8602 ;; *************** function ___flge *****************
  8603 ;; Defined at:
  8604 ;;		line 4 in file "C:\Program Files\Microchip\xc8\v2.40\pic\sources\c90\common\flge.c"
  8605 ;; Parameters:    Size  Location     Type
  8606 ;;  ff1             4    6[BANK0 ] unsigned char 
  8607 ;;  ff2             4   10[BANK0 ] unsigned char 
  8608 ;; Auto vars:     Size  Location     Type
  8609 ;;		None
  8610 ;; Return value:  Size  Location     Type
  8611 ;;		None               void
  8612 ;; Registers used:
  8613 ;;		wreg, status,2, status,0
  8614 ;; Tracked objects:
  8615 ;;		On entry : 0/0
  8616 ;;		On exit  : 0/0
  8617 ;;		Unchanged: 0/0
  8618 ;; Data sizes:     COMMON   BANK0   BANK1   BANK3   BANK2
  8619 ;;      Params:         0       8       0       0       0
  8620 ;;      Locals:         0       0       0       0       0
  8621 ;;      Temps:          0       4       0       0       0
  8622 ;;      Totals:         0      12       0       0       0
  8623 ;;Total ram usage:       12 bytes
  8624 ;; Hardware stack levels used: 1
  8625 ;; Hardware stack levels required when called: 2
  8626 ;; This function calls:
  8627 ;;		Nothing
  8628 ;; This function is called by:
  8629 ;;		_sprintf
  8630 ;; This function uses a non-reentrant model
  8631 ;;
  8632                           
  8633     1DED                     ___flge:	
  8634                           ;psect for function ___flge
  8635                           
  8636     1DED                     l3001:	
  8637                           ;incstack = 0
  8638                           ; Regs used in ___flge: [wreg+status,2+status,0]
  8639                           
  8640     1DED  3000               	movlw	0
  8641     1DEE  1283               	bcf	3,5	;RP0=0, select bank0
  8642     1DEF  1303               	bcf	3,6	;RP1=0, select bank0
  8643     1DF0  0526               	andwf	___flge@ff1,w
  8644     1DF1  00AE               	movwf	??___flge
  8645     1DF2  3000               	movlw	0
  8646     1DF3  0527               	andwf	___flge@ff1+1,w
  8647     1DF4  00AF               	movwf	??___flge+1
  8648     1DF5  3080               	movlw	128
  8649     1DF6  0528               	andwf	___flge@ff1+2,w
  8650     1DF7  00B0               	movwf	??___flge+2
  8651     1DF8  307F               	movlw	127
  8652     1DF9  0529               	andwf	___flge@ff1+3,w
  8653     1DFA  00B1               	movwf	??___flge+3
  8654     1DFB  0831               	movf	??___flge+3,w
  8655     1DFC  0430               	iorwf	??___flge+2,w
  8656     1DFD  042F               	iorwf	??___flge+1,w
  8657     1DFE  042E               	iorwf	??___flge,w
  8658     1DFF  1D03               	skipz
  8659     1E00  2E02               	goto	u5011
  8660     1E01  2E03               	goto	u5010
  8661     1E02                     u5011:
  8662     1E02  2E0B               	goto	l490
  8663     1E03                     u5010:
  8664     1E03                     l3003:
  8665     1E03  3000               	movlw	0
  8666     1E04  00A9               	movwf	___flge@ff1+3
  8667     1E05  3000               	movlw	0
  8668     1E06  00A8               	movwf	___flge@ff1+2
  8669     1E07  3000               	movlw	0
  8670     1E08  00A7               	movwf	___flge@ff1+1
  8671     1E09  3000               	movlw	0
  8672     1E0A  00A6               	movwf	___flge@ff1
  8673     1E0B                     l490:
  8674     1E0B  3000               	movlw	0
  8675     1E0C  052A               	andwf	___flge@ff2,w
  8676     1E0D  00AE               	movwf	??___flge
  8677     1E0E  3000               	movlw	0
  8678     1E0F  052B               	andwf	___flge@ff2+1,w
  8679     1E10  00AF               	movwf	??___flge+1
  8680     1E11  3080               	movlw	128
  8681     1E12  052C               	andwf	___flge@ff2+2,w
  8682     1E13  00B0               	movwf	??___flge+2
  8683     1E14  307F               	movlw	127
  8684     1E15  052D               	andwf	___flge@ff2+3,w
  8685     1E16  00B1               	movwf	??___flge+3
  8686     1E17  0831               	movf	??___flge+3,w
  8687     1E18  0430               	iorwf	??___flge+2,w
  8688     1E19  042F               	iorwf	??___flge+1,w
  8689     1E1A  042E               	iorwf	??___flge,w
  8690     1E1B  1D03               	skipz
  8691     1E1C  2E1E               	goto	u5021
  8692     1E1D  2E1F               	goto	u5020
  8693     1E1E                     u5021:
  8694     1E1E  2E27               	goto	l3007
  8695     1E1F                     u5020:
  8696     1E1F                     l3005:
  8697     1E1F  3000               	movlw	0
  8698     1E20  00AD               	movwf	___flge@ff2+3
  8699     1E21  3000               	movlw	0
  8700     1E22  00AC               	movwf	___flge@ff2+2
  8701     1E23  3000               	movlw	0
  8702     1E24  00AB               	movwf	___flge@ff2+1
  8703     1E25  3000               	movlw	0
  8704     1E26  00AA               	movwf	___flge@ff2
  8705     1E27                     l3007:
  8706     1E27  1FA9               	btfss	___flge@ff1+3,7
  8707     1E28  2E2A               	goto	u5031
  8708     1E29  2E2B               	goto	u5030
  8709     1E2A                     u5031:
  8710     1E2A  2E4F               	goto	l3011
  8711     1E2B                     u5030:
  8712     1E2B                     l3009:
  8713     1E2B  3000               	movlw	0
  8714     1E2C  00AE               	movwf	??___flge
  8715     1E2D  3000               	movlw	0
  8716     1E2E  00AF               	movwf	??___flge+1
  8717     1E2F  3000               	movlw	0
  8718     1E30  00B0               	movwf	??___flge+2
  8719     1E31  3080               	movlw	128
  8720     1E32  00B1               	movwf	??___flge+3
  8721     1E33  0826               	movf	___flge@ff1,w
  8722     1E34  02AE               	subwf	??___flge,f
  8723     1E35  0827               	movf	___flge@ff1+1,w
  8724     1E36  1C03               	skipc
  8725     1E37  0F27               	incfsz	___flge@ff1+1,w
  8726     1E38  2E3A               	goto	u5041
  8727     1E39  2E3B               	goto	u5042
  8728     1E3A                     u5041:
  8729     1E3A  02AF               	subwf	??___flge+1,f
  8730     1E3B                     u5042:
  8731     1E3B  0828               	movf	___flge@ff1+2,w
  8732     1E3C  1C03               	skipc
  8733     1E3D  0F28               	incfsz	___flge@ff1+2,w
  8734     1E3E  2E40               	goto	u5043
  8735     1E3F  2E41               	goto	u5044
  8736     1E40                     u5043:
  8737     1E40  02B0               	subwf	??___flge+2,f
  8738     1E41                     u5044:
  8739     1E41  0829               	movf	___flge@ff1+3,w
  8740     1E42  1C03               	skipc
  8741     1E43  0F29               	incfsz	___flge@ff1+3,w
  8742     1E44  2E46               	goto	u5045
  8743     1E45  2E47               	goto	u5046
  8744     1E46                     u5045:
  8745     1E46  02B1               	subwf	??___flge+3,f
  8746     1E47                     u5046:
  8747     1E47  0831               	movf	??___flge+3,w
  8748     1E48  00A9               	movwf	___flge@ff1+3
  8749     1E49  0830               	movf	??___flge+2,w
  8750     1E4A  00A8               	movwf	___flge@ff1+2
  8751     1E4B  082F               	movf	??___flge+1,w
  8752     1E4C  00A7               	movwf	___flge@ff1+1
  8753     1E4D  082E               	movf	??___flge,w
  8754     1E4E  00A6               	movwf	___flge@ff1
  8755     1E4F                     l3011:
  8756     1E4F  1FAD               	btfss	___flge@ff2+3,7
  8757     1E50  2E52               	goto	u5051
  8758     1E51  2E53               	goto	u5050
  8759     1E52                     u5051:
  8760     1E52  2E77               	goto	l493
  8761     1E53                     u5050:
  8762     1E53                     l3013:
  8763     1E53  3000               	movlw	0
  8764     1E54  00AE               	movwf	??___flge
  8765     1E55  3000               	movlw	0
  8766     1E56  00AF               	movwf	??___flge+1
  8767     1E57  3000               	movlw	0
  8768     1E58  00B0               	movwf	??___flge+2
  8769     1E59  3080               	movlw	128
  8770     1E5A  00B1               	movwf	??___flge+3
  8771     1E5B  082A               	movf	___flge@ff2,w
  8772     1E5C  02AE               	subwf	??___flge,f
  8773     1E5D  082B               	movf	___flge@ff2+1,w
  8774     1E5E  1C03               	skipc
  8775     1E5F  0F2B               	incfsz	___flge@ff2+1,w
  8776     1E60  2E62               	goto	u5061
  8777     1E61  2E63               	goto	u5062
  8778     1E62                     u5061:
  8779     1E62  02AF               	subwf	??___flge+1,f
  8780     1E63                     u5062:
  8781     1E63  082C               	movf	___flge@ff2+2,w
  8782     1E64  1C03               	skipc
  8783     1E65  0F2C               	incfsz	___flge@ff2+2,w
  8784     1E66  2E68               	goto	u5063
  8785     1E67  2E69               	goto	u5064
  8786     1E68                     u5063:
  8787     1E68  02B0               	subwf	??___flge+2,f
  8788     1E69                     u5064:
  8789     1E69  082D               	movf	___flge@ff2+3,w
  8790     1E6A  1C03               	skipc
  8791     1E6B  0F2D               	incfsz	___flge@ff2+3,w
  8792     1E6C  2E6E               	goto	u5065
  8793     1E6D  2E6F               	goto	u5066
  8794     1E6E                     u5065:
  8795     1E6E  02B1               	subwf	??___flge+3,f
  8796     1E6F                     u5066:
  8797     1E6F  0831               	movf	??___flge+3,w
  8798     1E70  00AD               	movwf	___flge@ff2+3
  8799     1E71  0830               	movf	??___flge+2,w
  8800     1E72  00AC               	movwf	___flge@ff2+2
  8801     1E73  082F               	movf	??___flge+1,w
  8802     1E74  00AB               	movwf	___flge@ff2+1
  8803     1E75  082E               	movf	??___flge,w
  8804     1E76  00AA               	movwf	___flge@ff2
  8805     1E77                     l493:
  8806     1E77  3080               	movlw	128
  8807     1E78  06A9               	xorwf	___flge@ff1+3,f
  8808     1E79  3080               	movlw	128
  8809     1E7A  06AD               	xorwf	___flge@ff2+3,f
  8810     1E7B  082D               	movf	___flge@ff2+3,w
  8811     1E7C  0229               	subwf	___flge@ff1+3,w
  8812     1E7D  1D03               	skipz
  8813     1E7E  2E89               	goto	u5075
  8814     1E7F  082C               	movf	___flge@ff2+2,w
  8815     1E80  0228               	subwf	___flge@ff1+2,w
  8816     1E81  1D03               	skipz
  8817     1E82  2E89               	goto	u5075
  8818     1E83  082B               	movf	___flge@ff2+1,w
  8819     1E84  0227               	subwf	___flge@ff1+1,w
  8820     1E85  1D03               	skipz
  8821     1E86  2E89               	goto	u5075
  8822     1E87  082A               	movf	___flge@ff2,w
  8823     1E88  0226               	subwf	___flge@ff1,w
  8824     1E89                     u5075:
  8825     1E89  1803               	skipnc
  8826     1E8A  2E8C               	goto	u5071
  8827     1E8B  2E8D               	goto	u5070
  8828     1E8C                     u5071:
  8829     1E8C  2E8F               	goto	l3017
  8830     1E8D                     u5070:
  8831     1E8D                     l3015:
  8832     1E8D  1003               	clrc
  8833     1E8E  2E90               	goto	l494
  8834     1E8F                     l3017:
  8835     1E8F  1403               	setc
  8836     1E90                     l494:
  8837     1E90  0008               	return
  8838     1E91                     __end_of___flge:
  8839                           
  8840                           	psect	text21
  8841     07AF                     __ptext21:	
  8842 ;; *************** function ___fleq *****************
  8843 ;; Defined at:
  8844 ;;		line 4 in file "C:\Program Files\Microchip\xc8\v2.40\pic\sources\c90\common\fleq.c"
  8845 ;; Parameters:    Size  Location     Type
  8846 ;;  ff1             4    6[BANK0 ] unsigned char 
  8847 ;;  ff2             4   10[BANK0 ] unsigned char 
  8848 ;; Auto vars:     Size  Location     Type
  8849 ;;		None
  8850 ;; Return value:  Size  Location     Type
  8851 ;;		None               void
  8852 ;; Registers used:
  8853 ;;		wreg, status,2, status,0
  8854 ;; Tracked objects:
  8855 ;;		On entry : 0/0
  8856 ;;		On exit  : 0/0
  8857 ;;		Unchanged: 0/0
  8858 ;; Data sizes:     COMMON   BANK0   BANK1   BANK3   BANK2
  8859 ;;      Params:         0       8       0       0       0
  8860 ;;      Locals:         0       0       0       0       0
  8861 ;;      Temps:          0       4       0       0       0
  8862 ;;      Totals:         0      12       0       0       0
  8863 ;;Total ram usage:       12 bytes
  8864 ;; Hardware stack levels used: 1
  8865 ;; Hardware stack levels required when called: 2
  8866 ;; This function calls:
  8867 ;;		Nothing
  8868 ;; This function is called by:
  8869 ;;		_sprintf
  8870 ;; This function uses a non-reentrant model
  8871 ;;
  8872                           
  8873     07AF                     ___fleq:	
  8874                           ;psect for function ___fleq
  8875                           
  8876     07AF                     l2989:	
  8877                           ;incstack = 0
  8878                           ; Regs used in ___fleq: [wreg+status,2+status,0]
  8879                           
  8880     07AF  3000               	movlw	0
  8881     07B0  1283               	bcf	3,5	;RP0=0, select bank0
  8882     07B1  1303               	bcf	3,6	;RP1=0, select bank0
  8883     07B2  0526               	andwf	___fleq@ff1,w
  8884     07B3  00AE               	movwf	??___fleq
  8885     07B4  3000               	movlw	0
  8886     07B5  0527               	andwf	___fleq@ff1+1,w
  8887     07B6  00AF               	movwf	??___fleq+1
  8888     07B7  3080               	movlw	128
  8889     07B8  0528               	andwf	___fleq@ff1+2,w
  8890     07B9  00B0               	movwf	??___fleq+2
  8891     07BA  307F               	movlw	127
  8892     07BB  0529               	andwf	___fleq@ff1+3,w
  8893     07BC  00B1               	movwf	??___fleq+3
  8894     07BD  0831               	movf	??___fleq+3,w
  8895     07BE  0430               	iorwf	??___fleq+2,w
  8896     07BF  042F               	iorwf	??___fleq+1,w
  8897     07C0  042E               	iorwf	??___fleq,w
  8898     07C1  1D03               	skipz
  8899     07C2  2FC4               	goto	u4981
  8900     07C3  2FC5               	goto	u4980
  8901     07C4                     u4981:
  8902     07C4  2FCD               	goto	l485
  8903     07C5                     u4980:
  8904     07C5                     l2991:
  8905     07C5  3000               	movlw	0
  8906     07C6  00A9               	movwf	___fleq@ff1+3
  8907     07C7  3000               	movlw	0
  8908     07C8  00A8               	movwf	___fleq@ff1+2
  8909     07C9  3000               	movlw	0
  8910     07CA  00A7               	movwf	___fleq@ff1+1
  8911     07CB  3000               	movlw	0
  8912     07CC  00A6               	movwf	___fleq@ff1
  8913     07CD                     l485:
  8914     07CD  3000               	movlw	0
  8915     07CE  052A               	andwf	___fleq@ff2,w
  8916     07CF  00AE               	movwf	??___fleq
  8917     07D0  3000               	movlw	0
  8918     07D1  052B               	andwf	___fleq@ff2+1,w
  8919     07D2  00AF               	movwf	??___fleq+1
  8920     07D3  3080               	movlw	128
  8921     07D4  052C               	andwf	___fleq@ff2+2,w
  8922     07D5  00B0               	movwf	??___fleq+2
  8923     07D6  307F               	movlw	127
  8924     07D7  052D               	andwf	___fleq@ff2+3,w
  8925     07D8  00B1               	movwf	??___fleq+3
  8926     07D9  0831               	movf	??___fleq+3,w
  8927     07DA  0430               	iorwf	??___fleq+2,w
  8928     07DB  042F               	iorwf	??___fleq+1,w
  8929     07DC  042E               	iorwf	??___fleq,w
  8930     07DD  1D03               	skipz
  8931     07DE  2FE0               	goto	u4991
  8932     07DF  2FE1               	goto	u4990
  8933     07E0                     u4991:
  8934     07E0  2FE9               	goto	l486
  8935     07E1                     u4990:
  8936     07E1                     l2993:
  8937     07E1  3000               	movlw	0
  8938     07E2  00AD               	movwf	___fleq@ff2+3
  8939     07E3  3000               	movlw	0
  8940     07E4  00AC               	movwf	___fleq@ff2+2
  8941     07E5  3000               	movlw	0
  8942     07E6  00AB               	movwf	___fleq@ff2+1
  8943     07E7  3000               	movlw	0
  8944     07E8  00AA               	movwf	___fleq@ff2
  8945     07E9                     l486:
  8946     07E9  082D               	movf	___fleq@ff2+3,w
  8947     07EA  0629               	xorwf	___fleq@ff1+3,w
  8948     07EB  1D03               	skipz
  8949     07EC  2FF7               	goto	u5005
  8950     07ED  082C               	movf	___fleq@ff2+2,w
  8951     07EE  0628               	xorwf	___fleq@ff1+2,w
  8952     07EF  1D03               	skipz
  8953     07F0  2FF7               	goto	u5005
  8954     07F1  082B               	movf	___fleq@ff2+1,w
  8955     07F2  0627               	xorwf	___fleq@ff1+1,w
  8956     07F3  1D03               	skipz
  8957     07F4  2FF7               	goto	u5005
  8958     07F5  082A               	movf	___fleq@ff2,w
  8959     07F6  0626               	xorwf	___fleq@ff1,w
  8960     07F7                     u5005:
  8961     07F7  1903               	skipnz
  8962     07F8  2FFA               	goto	u5001
  8963     07F9  2FFB               	goto	u5000
  8964     07FA                     u5001:
  8965     07FA  2FFD               	goto	l2997
  8966     07FB                     u5000:
  8967     07FB                     l2995:
  8968     07FB  1003               	clrc
  8969     07FC  2FFE               	goto	l487
  8970     07FD                     l2997:
  8971     07FD  1403               	setc
  8972     07FE                     l487:
  8973     07FE  0008               	return
  8974     07FF                     __end_of___fleq:
  8975                           
  8976                           	psect	text22
  8977     1B2B                     __ptext22:	
  8978 ;; *************** function _setup *****************
  8979 ;; Defined at:
  8980 ;;		line 91 in file "Lab2.c"
  8981 ;; Parameters:    Size  Location     Type
  8982 ;;		None
  8983 ;; Auto vars:     Size  Location     Type
  8984 ;;		None
  8985 ;; Return value:  Size  Location     Type
  8986 ;;                  1    wreg      void 
  8987 ;; Registers used:
  8988 ;;		wreg, status,2, status,0
  8989 ;; Tracked objects:
  8990 ;;		On entry : 0/0
  8991 ;;		On exit  : 0/0
  8992 ;;		Unchanged: 0/0
  8993 ;; Data sizes:     COMMON   BANK0   BANK1   BANK3   BANK2
  8994 ;;      Params:         0       0       0       0       0
  8995 ;;      Locals:         0       0       0       0       0
  8996 ;;      Temps:          0       1       0       0       0
  8997 ;;      Totals:         0       1       0       0       0
  8998 ;;Total ram usage:        1 bytes
  8999 ;; Hardware stack levels used: 1
  9000 ;; Hardware stack levels required when called: 2
  9001 ;; This function calls:
  9002 ;;		Nothing
  9003 ;; This function is called by:
  9004 ;;		_main
  9005 ;; This function uses a non-reentrant model
  9006 ;;
  9007                           
  9008     1B2B                     _setup:	
  9009                           ;psect for function _setup
  9010                           
  9011     1B2B                     l3135:	
  9012                           ;incstack = 0
  9013                           ; Regs used in _setup: [wreg+status,2+status,0]
  9014                           
  9015                           
  9016                           ;Lab2.c: 92:     ANSEL = 0b00000011;
  9017     1B2B  3003               	movlw	3
  9018     1B2C  1683               	bsf	3,5	;RP0=1, select bank3
  9019     1B2D  1703               	bsf	3,6	;RP1=1, select bank3
  9020     1B2E  0088               	movwf	8	;volatile
  9021     1B2F                     l3137:
  9022                           
  9023                           ;Lab2.c: 93:     ANSELH = 0;
  9024     1B2F  0189               	clrf	9	;volatile
  9025     1B30                     l3139:
  9026                           
  9027                           ;Lab2.c: 95:     TRISA = 0xFF;
  9028     1B30  30FF               	movlw	255
  9029     1B31  1683               	bsf	3,5	;RP0=1, select bank1
  9030     1B32  1303               	bcf	3,6	;RP1=0, select bank1
  9031     1B33  0085               	movwf	5	;volatile
  9032     1B34                     l3141:
  9033                           
  9034                           ;Lab2.c: 96:     TRISB = 0b11111111;
  9035     1B34  30FF               	movlw	255
  9036     1B35  0086               	movwf	6	;volatile
  9037     1B36                     l3143:
  9038                           
  9039                           ;Lab2.c: 97:     TRISC = 0;
  9040     1B36  0187               	clrf	7	;volatile
  9041     1B37                     l3145:
  9042                           
  9043                           ;Lab2.c: 98:     TRISD = 0;
  9044     1B37  0188               	clrf	8	;volatile
  9045     1B38                     l3147:
  9046                           
  9047                           ;Lab2.c: 99:     TRISE = 0;
  9048     1B38  0189               	clrf	9	;volatile
  9049     1B39                     l3149:
  9050                           
  9051                           ;Lab2.c: 100:     OPTION_REGbits.nRBPU = 0;
  9052     1B39  1381               	bcf	1,7	;volatile
  9053                           
  9054                           ;Lab2.c: 101:     WPUB = 0b111111;
  9055     1B3A  303F               	movlw	63
  9056     1B3B  0095               	movwf	21	;volatile
  9057     1B3C                     l3151:
  9058                           
  9059                           ;Lab2.c: 104:     PORTD = 0;
  9060     1B3C  1283               	bcf	3,5	;RP0=0, select bank0
  9061     1B3D  1303               	bcf	3,6	;RP1=0, select bank0
  9062     1B3E  0188               	clrf	8	;volatile
  9063     1B3F                     l3153:
  9064                           
  9065                           ;Lab2.c: 105:     PORTE = 0;
  9066     1B3F  0189               	clrf	9	;volatile
  9067     1B40                     l3155:
  9068                           
  9069                           ;Lab2.c: 111:     OSCCONbits.IRCF = 0b0111;
  9070     1B40  3070               	movlw	112
  9071     1B41  1683               	bsf	3,5	;RP0=1, select bank1
  9072     1B42  1303               	bcf	3,6	;RP1=0, select bank1
  9073     1B43  048F               	iorwf	15,f	;volatile
  9074     1B44                     l3157:
  9075                           
  9076                           ;Lab2.c: 112:     OSCCONbits.SCS = 1;
  9077     1B44  140F               	bsf	15,0	;volatile
  9078     1B45                     l3159:
  9079                           
  9080                           ;Lab2.c: 115:     ADCON1bits.ADFM = 0;
  9081     1B45  139F               	bcf	31,7	;volatile
  9082     1B46                     l3161:
  9083                           
  9084                           ;Lab2.c: 116:     ADCON1bits.VCFG0 = 0;
  9085     1B46  121F               	bcf	31,4	;volatile
  9086     1B47                     l3163:
  9087                           
  9088                           ;Lab2.c: 117:     ADCON1bits.VCFG1 = 0;
  9089     1B47  129F               	bcf	31,5	;volatile
  9090     1B48                     l3165:
  9091                           
  9092                           ;Lab2.c: 119:     ADCON0bits.ADCS = 0b01;
  9093     1B48  1283               	bcf	3,5	;RP0=0, select bank0
  9094     1B49  1303               	bcf	3,6	;RP1=0, select bank0
  9095     1B4A  081F               	movf	31,w	;volatile
  9096     1B4B  393F               	andlw	-193
  9097     1B4C  3840               	iorlw	64
  9098     1B4D  009F               	movwf	31	;volatile
  9099     1B4E                     l3167:
  9100                           
  9101                           ;Lab2.c: 120:     ADCON0bits.CHS = 0;
  9102     1B4E  30C3               	movlw	-61
  9103     1B4F  059F               	andwf	31,f	;volatile
  9104     1B50                     l3169:
  9105                           
  9106                           ;Lab2.c: 121:     ADCON0bits.ADON= 1;
  9107     1B50  141F               	bsf	31,0	;volatile
  9108     1B51                     l3171:
  9109                           
  9110                           ;Lab2.c: 122:     _delay((unsigned long)((50)*(8000000/4000000.0)));
  9111     1B51  3020               	movlw	32
  9112     1B52  1283               	bcf	3,5	;RP0=0, select bank0
  9113     1B53  1303               	bcf	3,6	;RP1=0, select bank0
  9114     1B54  00A6               	movwf	??_setup
  9115     1B55                     u7417:
  9116     1B55  0BA6               	decfsz	??_setup,f
  9117     1B56  2B55               	goto	u7417
  9118     1B57  0000               	nop
  9119     1B58                     l3173:
  9120                           
  9121                           ;Lab2.c: 126:     PIR1bits.ADIF = 0;
  9122     1B58  1283               	bcf	3,5	;RP0=0, select bank0
  9123     1B59  1303               	bcf	3,6	;RP1=0, select bank0
  9124     1B5A  130C               	bcf	12,6	;volatile
  9125     1B5B                     l3175:
  9126                           
  9127                           ;Lab2.c: 127:     PIE1bits.ADIE = 1;
  9128     1B5B  1683               	bsf	3,5	;RP0=1, select bank1
  9129     1B5C  1303               	bcf	3,6	;RP1=0, select bank1
  9130     1B5D  170C               	bsf	12,6	;volatile
  9131     1B5E                     l3177:
  9132                           
  9133                           ;Lab2.c: 129:     INTCONbits.RBIE = 0;
  9134     1B5E  118B               	bcf	11,3	;volatile
  9135     1B5F                     l3179:
  9136                           
  9137                           ;Lab2.c: 130:     INTCONbits.RBIF = 1;
  9138     1B5F  140B               	bsf	11,0	;volatile
  9139     1B60                     l3181:
  9140                           
  9141                           ;Lab2.c: 132:     INTCONbits.PEIE = 1;
  9142     1B60  170B               	bsf	11,6	;volatile
  9143     1B61                     l3183:
  9144                           
  9145                           ;Lab2.c: 133:     INTCONbits.GIE = 1;
  9146     1B61  178B               	bsf	11,7	;volatile
  9147     1B62                     l132:
  9148     1B62  0008               	return
  9149     1B63                     __end_of_setup:
  9150                           
  9151                           	psect	text23
  9152     156E                     __ptext23:	
  9153 ;; *************** function ___fldiv *****************
  9154 ;; Defined at:
  9155 ;;		line 8 in file "C:\Program Files\Microchip\xc8\v2.40\pic\sources\c90\common\sprcdiv.c"
  9156 ;; Parameters:    Size  Location     Type
  9157 ;;  a               4   48[BANK0 ] void 
  9158 ;;  b               4   52[BANK0 ] void 
  9159 ;; Auto vars:     Size  Location     Type
  9160 ;;  grs             4    7[BANK1 ] unsigned long 
  9161 ;;  rem             4    0[BANK1 ] unsigned long 
  9162 ;;  new_exp         2    5[BANK1 ] int 
  9163 ;;  aexp            1   12[BANK1 ] unsigned char 
  9164 ;;  bexp            1   11[BANK1 ] unsigned char 
  9165 ;;  sign            1    4[BANK1 ] unsigned char 
  9166 ;; Return value:  Size  Location     Type
  9167 ;;                  4   48[BANK0 ] unsigned char 
  9168 ;; Registers used:
  9169 ;;		wreg, status,2, status,0, btemp+1
  9170 ;; Tracked objects:
  9171 ;;		On entry : 0/0
  9172 ;;		On exit  : 0/0
  9173 ;;		Unchanged: 0/0
  9174 ;; Data sizes:     COMMON   BANK0   BANK1   BANK3   BANK2
  9175 ;;      Params:         0       8       0       0       0
  9176 ;;      Locals:         0       0      13       0       0
  9177 ;;      Temps:          0       5       0       0       0
  9178 ;;      Totals:         0      13      13       0       0
  9179 ;;Total ram usage:       26 bytes
  9180 ;; Hardware stack levels used: 1
  9181 ;; Hardware stack levels required when called: 2
  9182 ;; This function calls:
  9183 ;;		Nothing
  9184 ;; This function is called by:
  9185 ;;		_main
  9186 ;; This function uses a non-reentrant model
  9187 ;;
  9188                           
  9189     156E                     ___fldiv:	
  9190                           ;psect for function ___fldiv
  9191                           
  9192     156E                     l4071:	
  9193                           ;incstack = 0
  9194                           ; Regs used in ___fldiv: [wreg+status,2+status,0+btemp+1]
  9195                           
  9196     156E  1283               	bcf	3,5	;RP0=0, select bank0
  9197     156F  1303               	bcf	3,6	;RP1=0, select bank0
  9198     1570  0857               	movf	___fldiv@b+3,w
  9199     1571  3980               	andlw	128
  9200     1572  1683               	bsf	3,5	;RP0=1, select bank1
  9201     1573  1303               	bcf	3,6	;RP1=0, select bank1
  9202     1574  00A4               	movwf	___fldiv@sign^(0+128)
  9203     1575                     l4073:
  9204     1575  1283               	bcf	3,5	;RP0=0, select bank0
  9205     1576  1303               	bcf	3,6	;RP1=0, select bank0
  9206     1577  0857               	movf	___fldiv@b+3,w
  9207     1578  00D8               	movwf	??___fldiv
  9208     1579  0758               	addwf	??___fldiv,w
  9209     157A  1683               	bsf	3,5	;RP0=1, select bank1
  9210     157B  1303               	bcf	3,6	;RP1=0, select bank1
  9211     157C  00AB               	movwf	___fldiv@bexp^(0+128)
  9212     157D                     l4075:
  9213     157D  1283               	bcf	3,5	;RP0=0, select bank0
  9214     157E  1303               	bcf	3,6	;RP1=0, select bank0
  9215     157F  1FD6               	btfss	___fldiv@b+2,7
  9216     1580  2D82               	goto	u7081
  9217     1581  2D83               	goto	u7080
  9218     1582                     u7081:
  9219     1582  2D86               	goto	l4079
  9220     1583                     u7080:
  9221     1583                     l4077:
  9222     1583  1683               	bsf	3,5	;RP0=1, select bank1
  9223     1584  1303               	bcf	3,6	;RP1=0, select bank1
  9224     1585  142B               	bsf	___fldiv@bexp^(0+128),0
  9225     1586                     l4079:
  9226     1586  1683               	bsf	3,5	;RP0=1, select bank1
  9227     1587  1303               	bcf	3,6	;RP1=0, select bank1
  9228     1588  082B               	movf	___fldiv@bexp^(0+128),w
  9229     1589  1903               	btfsc	3,2
  9230     158A  2D8C               	goto	u7091
  9231     158B  2D8D               	goto	u7090
  9232     158C                     u7091:
  9233     158C  2DA0               	goto	l4089
  9234     158D                     u7090:
  9235     158D                     l4081:
  9236     158D  0A2B               	incf	___fldiv@bexp^(0+128),w
  9237     158E  1D03               	btfss	3,2
  9238     158F  2D91               	goto	u7101
  9239     1590  2D92               	goto	u7100
  9240     1591                     u7101:
  9241     1591  2D9C               	goto	l4085
  9242     1592                     u7100:
  9243     1592                     l4083:
  9244     1592  3000               	movlw	0
  9245     1593  1283               	bcf	3,5	;RP0=0, select bank0
  9246     1594  1303               	bcf	3,6	;RP1=0, select bank0
  9247     1595  00D7               	movwf	___fldiv@b+3
  9248     1596  3000               	movlw	0
  9249     1597  00D6               	movwf	___fldiv@b+2
  9250     1598  3000               	movlw	0
  9251     1599  00D5               	movwf	___fldiv@b+1
  9252     159A  3000               	movlw	0
  9253     159B  00D4               	movwf	___fldiv@b
  9254     159C                     l4085:
  9255     159C  1283               	bcf	3,5	;RP0=0, select bank0
  9256     159D  17D6               	bsf	___fldiv@b+2,7
  9257     159E                     l4087:
  9258     159E  01D7               	clrf	___fldiv@b+3
  9259     159F  2DAA               	goto	l4091
  9260     15A0                     l4089:
  9261     15A0  3000               	movlw	0
  9262     15A1  1283               	bcf	3,5	;RP0=0, select bank0
  9263     15A2  1303               	bcf	3,6	;RP1=0, select bank0
  9264     15A3  00D7               	movwf	___fldiv@b+3
  9265     15A4  3000               	movlw	0
  9266     15A5  00D6               	movwf	___fldiv@b+2
  9267     15A6  3000               	movlw	0
  9268     15A7  00D5               	movwf	___fldiv@b+1
  9269     15A8  3000               	movlw	0
  9270     15A9  00D4               	movwf	___fldiv@b
  9271     15AA                     l4091:
  9272     15AA  0853               	movf	___fldiv@a+3,w
  9273     15AB  3980               	andlw	128
  9274     15AC  00D8               	movwf	??___fldiv
  9275     15AD  0858               	movf	??___fldiv,w
  9276     15AE  1683               	bsf	3,5	;RP0=1, select bank1
  9277     15AF  1303               	bcf	3,6	;RP1=0, select bank1
  9278     15B0  06A4               	xorwf	___fldiv@sign^(0+128),f
  9279     15B1                     l4093:
  9280     15B1  1283               	bcf	3,5	;RP0=0, select bank0
  9281     15B2  1303               	bcf	3,6	;RP1=0, select bank0
  9282     15B3  0853               	movf	___fldiv@a+3,w
  9283     15B4  00D8               	movwf	??___fldiv
  9284     15B5  0758               	addwf	??___fldiv,w
  9285     15B6  1683               	bsf	3,5	;RP0=1, select bank1
  9286     15B7  1303               	bcf	3,6	;RP1=0, select bank1
  9287     15B8  00AC               	movwf	___fldiv@aexp^(0+128)
  9288     15B9                     l4095:
  9289     15B9  1283               	bcf	3,5	;RP0=0, select bank0
  9290     15BA  1303               	bcf	3,6	;RP1=0, select bank0
  9291     15BB  1FD2               	btfss	___fldiv@a+2,7
  9292     15BC  2DBE               	goto	u7111
  9293     15BD  2DBF               	goto	u7110
  9294     15BE                     u7111:
  9295     15BE  2DC2               	goto	l4099
  9296     15BF                     u7110:
  9297     15BF                     l4097:
  9298     15BF  1683               	bsf	3,5	;RP0=1, select bank1
  9299     15C0  1303               	bcf	3,6	;RP1=0, select bank1
  9300     15C1  142C               	bsf	___fldiv@aexp^(0+128),0
  9301     15C2                     l4099:
  9302     15C2  1683               	bsf	3,5	;RP0=1, select bank1
  9303     15C3  1303               	bcf	3,6	;RP1=0, select bank1
  9304     15C4  082C               	movf	___fldiv@aexp^(0+128),w
  9305     15C5  1903               	btfsc	3,2
  9306     15C6  2DC8               	goto	u7121
  9307     15C7  2DC9               	goto	u7120
  9308     15C8                     u7121:
  9309     15C8  2DDC               	goto	l4109
  9310     15C9                     u7120:
  9311     15C9                     l4101:
  9312     15C9  0A2C               	incf	___fldiv@aexp^(0+128),w
  9313     15CA  1D03               	btfss	3,2
  9314     15CB  2DCD               	goto	u7131
  9315     15CC  2DCE               	goto	u7130
  9316     15CD                     u7131:
  9317     15CD  2DD8               	goto	l4105
  9318     15CE                     u7130:
  9319     15CE                     l4103:
  9320     15CE  3000               	movlw	0
  9321     15CF  1283               	bcf	3,5	;RP0=0, select bank0
  9322     15D0  1303               	bcf	3,6	;RP1=0, select bank0
  9323     15D1  00D3               	movwf	___fldiv@a+3
  9324     15D2  3000               	movlw	0
  9325     15D3  00D2               	movwf	___fldiv@a+2
  9326     15D4  3000               	movlw	0
  9327     15D5  00D1               	movwf	___fldiv@a+1
  9328     15D6  3000               	movlw	0
  9329     15D7  00D0               	movwf	___fldiv@a
  9330     15D8                     l4105:
  9331     15D8  1283               	bcf	3,5	;RP0=0, select bank0
  9332     15D9  17D2               	bsf	___fldiv@a+2,7
  9333     15DA                     l4107:
  9334     15DA  01D3               	clrf	___fldiv@a+3
  9335     15DB  2DE6               	goto	l682
  9336     15DC                     l4109:
  9337     15DC  3000               	movlw	0
  9338     15DD  1283               	bcf	3,5	;RP0=0, select bank0
  9339     15DE  1303               	bcf	3,6	;RP1=0, select bank0
  9340     15DF  00D3               	movwf	___fldiv@a+3
  9341     15E0  3000               	movlw	0
  9342     15E1  00D2               	movwf	___fldiv@a+2
  9343     15E2  3000               	movlw	0
  9344     15E3  00D1               	movwf	___fldiv@a+1
  9345     15E4  3000               	movlw	0
  9346     15E5  00D0               	movwf	___fldiv@a
  9347     15E6                     l682:
  9348     15E6  0853               	movf	___fldiv@a+3,w
  9349     15E7  0452               	iorwf	___fldiv@a+2,w
  9350     15E8  0451               	iorwf	___fldiv@a+1,w
  9351     15E9  0450               	iorwf	___fldiv@a,w
  9352     15EA  1D03               	skipz
  9353     15EB  2DED               	goto	u7141
  9354     15EC  2DEE               	goto	u7140
  9355     15ED                     u7141:
  9356     15ED  2E0B               	goto	l4119
  9357     15EE                     u7140:
  9358     15EE                     l4111:
  9359     15EE  3000               	movlw	0
  9360     15EF  00D7               	movwf	___fldiv@b+3
  9361     15F0  3000               	movlw	0
  9362     15F1  00D6               	movwf	___fldiv@b+2
  9363     15F2  3000               	movlw	0
  9364     15F3  00D5               	movwf	___fldiv@b+1
  9365     15F4  3000               	movlw	0
  9366     15F5  00D4               	movwf	___fldiv@b
  9367     15F6  3080               	movlw	128
  9368     15F7  04D6               	iorwf	___fldiv@b+2,f
  9369     15F8  307F               	movlw	127
  9370     15F9  04D7               	iorwf	___fldiv@b+3,f
  9371     15FA                     l4113:
  9372     15FA  1683               	bsf	3,5	;RP0=1, select bank1
  9373     15FB  1303               	bcf	3,6	;RP1=0, select bank1
  9374     15FC  0824               	movf	___fldiv@sign^(0+128),w
  9375     15FD  1283               	bcf	3,5	;RP0=0, select bank0
  9376     15FE  1303               	bcf	3,6	;RP1=0, select bank0
  9377     15FF  00D8               	movwf	??___fldiv
  9378     1600  0858               	movf	??___fldiv,w
  9379     1601  04D7               	iorwf	___fldiv@b+3,f
  9380     1602                     l4115:
  9381     1602  0857               	movf	___fldiv@b+3,w
  9382     1603  00D3               	movwf	?___fldiv+3
  9383     1604  0856               	movf	___fldiv@b+2,w
  9384     1605  00D2               	movwf	?___fldiv+2
  9385     1606  0855               	movf	___fldiv@b+1,w
  9386     1607  00D1               	movwf	?___fldiv+1
  9387     1608  0854               	movf	___fldiv@b,w
  9388     1609  00D0               	movwf	?___fldiv
  9389     160A  2FFF               	goto	l684
  9390     160B                     l4119:
  9391     160B  1683               	bsf	3,5	;RP0=1, select bank1
  9392     160C  1303               	bcf	3,6	;RP1=0, select bank1
  9393     160D  082B               	movf	___fldiv@bexp^(0+128),w
  9394     160E  1D03               	btfss	3,2
  9395     160F  2E11               	goto	u7151
  9396     1610  2E12               	goto	u7150
  9397     1611                     u7151:
  9398     1611  2E1D               	goto	l4125
  9399     1612                     u7150:
  9400     1612                     l4121:
  9401     1612  3000               	movlw	0
  9402     1613  1283               	bcf	3,5	;RP0=0, select bank0
  9403     1614  1303               	bcf	3,6	;RP1=0, select bank0
  9404     1615  00D3               	movwf	?___fldiv+3
  9405     1616  3000               	movlw	0
  9406     1617  00D2               	movwf	?___fldiv+2
  9407     1618  3000               	movlw	0
  9408     1619  00D1               	movwf	?___fldiv+1
  9409     161A  3000               	movlw	0
  9410     161B  00D0               	movwf	?___fldiv
  9411     161C  2FFF               	goto	l684
  9412     161D                     l4125:
  9413     161D  082B               	movf	___fldiv@bexp^(0+128),w
  9414     161E  1283               	bcf	3,5	;RP0=0, select bank0
  9415     161F  1303               	bcf	3,6	;RP1=0, select bank0
  9416     1620  00D8               	movwf	??___fldiv
  9417     1621  01D9               	clrf	??___fldiv+1
  9418     1622  0859               	movf	??___fldiv+1,w
  9419     1623  00DB               	movwf	??___fldiv+3
  9420     1624  1683               	bsf	3,5	;RP0=1, select bank1
  9421     1625  1303               	bcf	3,6	;RP1=0, select bank1
  9422     1626  082C               	movf	___fldiv@aexp^(0+128),w
  9423     1627  1283               	bcf	3,5	;RP0=0, select bank0
  9424     1628  1303               	bcf	3,6	;RP1=0, select bank0
  9425     1629  0258               	subwf	??___fldiv,w
  9426     162A  00DA               	movwf	??___fldiv+2
  9427     162B  1C03               	skipc
  9428     162C  03DB               	decf	??___fldiv+3,f
  9429     162D  085A               	movf	??___fldiv+2,w
  9430     162E  3E7F               	addlw	127
  9431     162F  1683               	bsf	3,5	;RP0=1, select bank1
  9432     1630  1303               	bcf	3,6	;RP1=0, select bank1
  9433     1631  00A5               	movwf	___fldiv@new_exp^(0+128)
  9434     1632  1283               	bcf	3,5	;RP0=0, select bank0
  9435     1633  1303               	bcf	3,6	;RP1=0, select bank0
  9436     1634  085B               	movf	??___fldiv+3,w
  9437     1635  1803               	skipnc
  9438     1636  3E01               	addlw	1
  9439     1637  3E00               	addlw	0
  9440     1638  1683               	bsf	3,5	;RP0=1, select bank1
  9441     1639  1303               	bcf	3,6	;RP1=0, select bank1
  9442     163A  00A6               	movwf	(___fldiv@new_exp+1)^(0+128)
  9443     163B                     l4127:
  9444     163B  1283               	bcf	3,5	;RP0=0, select bank0
  9445     163C  1303               	bcf	3,6	;RP1=0, select bank0
  9446     163D  0857               	movf	___fldiv@b+3,w
  9447     163E  1683               	bsf	3,5	;RP0=1, select bank1
  9448     163F  1303               	bcf	3,6	;RP1=0, select bank1
  9449     1640  00A3               	movwf	(___fldiv@rem+3)^(0+128)
  9450     1641  1283               	bcf	3,5	;RP0=0, select bank0
  9451     1642  1303               	bcf	3,6	;RP1=0, select bank0
  9452     1643  0856               	movf	___fldiv@b+2,w
  9453     1644  1683               	bsf	3,5	;RP0=1, select bank1
  9454     1645  1303               	bcf	3,6	;RP1=0, select bank1
  9455     1646  00A2               	movwf	(___fldiv@rem+2)^(0+128)
  9456     1647  1283               	bcf	3,5	;RP0=0, select bank0
  9457     1648  1303               	bcf	3,6	;RP1=0, select bank0
  9458     1649  0855               	movf	___fldiv@b+1,w
  9459     164A  1683               	bsf	3,5	;RP0=1, select bank1
  9460     164B  1303               	bcf	3,6	;RP1=0, select bank1
  9461     164C  00A1               	movwf	(___fldiv@rem+1)^(0+128)
  9462     164D  1283               	bcf	3,5	;RP0=0, select bank0
  9463     164E  1303               	bcf	3,6	;RP1=0, select bank0
  9464     164F  0854               	movf	___fldiv@b,w
  9465     1650  1683               	bsf	3,5	;RP0=1, select bank1
  9466     1651  1303               	bcf	3,6	;RP1=0, select bank1
  9467     1652  00A0               	movwf	___fldiv@rem^(0+128)
  9468     1653                     l4129:
  9469     1653  3000               	movlw	0
  9470     1654  1283               	bcf	3,5	;RP0=0, select bank0
  9471     1655  1303               	bcf	3,6	;RP1=0, select bank0
  9472     1656  00D7               	movwf	___fldiv@b+3
  9473     1657  3000               	movlw	0
  9474     1658  00D6               	movwf	___fldiv@b+2
  9475     1659  3000               	movlw	0
  9476     165A  00D5               	movwf	___fldiv@b+1
  9477     165B  3000               	movlw	0
  9478     165C  00D4               	movwf	___fldiv@b
  9479     165D                     l4131:
  9480     165D  3000               	movlw	0
  9481     165E  1683               	bsf	3,5	;RP0=1, select bank1
  9482     165F  1303               	bcf	3,6	;RP1=0, select bank1
  9483     1660  00AA               	movwf	(___fldiv@grs+3)^(0+128)
  9484     1661  3000               	movlw	0
  9485     1662  00A9               	movwf	(___fldiv@grs+2)^(0+128)
  9486     1663  3000               	movlw	0
  9487     1664  00A8               	movwf	(___fldiv@grs+1)^(0+128)
  9488     1665  3000               	movlw	0
  9489     1666  00A7               	movwf	___fldiv@grs^(0+128)
  9490     1667                     l4133:
  9491     1667  01AC               	clrf	___fldiv@aexp^(0+128)
  9492     1668  2EEF               	goto	l4153
  9493     1669                     l4135:
  9494     1669  082C               	movf	___fldiv@aexp^(0+128),w
  9495     166A  1903               	btfsc	3,2
  9496     166B  2E6D               	goto	u7161
  9497     166C  2E6E               	goto	u7160
  9498     166D                     u7161:
  9499     166D  2E9D               	goto	l4145
  9500     166E                     u7160:
  9501     166E                     l4137:
  9502     166E  3001               	movlw	1
  9503     166F  1283               	bcf	3,5	;RP0=0, select bank0
  9504     1670  1303               	bcf	3,6	;RP1=0, select bank0
  9505     1671  00D8               	movwf	??___fldiv
  9506     1672                     u7175:
  9507     1672  1003               	clrc
  9508     1673  1683               	bsf	3,5	;RP0=1, select bank1
  9509     1674  1303               	bcf	3,6	;RP1=0, select bank1
  9510     1675  0DA0               	rlf	___fldiv@rem^(0+128),f
  9511     1676  0DA1               	rlf	(___fldiv@rem+1)^(0+128),f
  9512     1677  0DA2               	rlf	(___fldiv@rem+2)^(0+128),f
  9513     1678  0DA3               	rlf	(___fldiv@rem+3)^(0+128),f
  9514     1679  1283               	bcf	3,5	;RP0=0, select bank0
  9515     167A  1303               	bcf	3,6	;RP1=0, select bank0
  9516     167B  0BD8               	decfsz	??___fldiv,f
  9517     167C  2E72               	goto	u7175
  9518     167D  3001               	movlw	1
  9519     167E  00D8               	movwf	??___fldiv
  9520     167F                     u7185:
  9521     167F  1003               	clrc
  9522     1680  0DD4               	rlf	___fldiv@b,f
  9523     1681  0DD5               	rlf	___fldiv@b+1,f
  9524     1682  0DD6               	rlf	___fldiv@b+2,f
  9525     1683  0DD7               	rlf	___fldiv@b+3,f
  9526     1684  0BD8               	decfsz	??___fldiv,f
  9527     1685  2E7F               	goto	u7185
  9528     1686                     l4139:
  9529     1686  1683               	bsf	3,5	;RP0=1, select bank1
  9530     1687  1303               	bcf	3,6	;RP1=0, select bank1
  9531     1688  1FAA               	btfss	(___fldiv@grs+3)^(0+128),7
  9532     1689  2E8B               	goto	u7191
  9533     168A  2E8C               	goto	u7190
  9534     168B                     u7191:
  9535     168B  2E8F               	goto	l4143
  9536     168C                     u7190:
  9537     168C                     l4141:
  9538     168C  1283               	bcf	3,5	;RP0=0, select bank0
  9539     168D  1303               	bcf	3,6	;RP1=0, select bank0
  9540     168E  1454               	bsf	___fldiv@b,0
  9541     168F                     l4143:
  9542     168F  3001               	movlw	1
  9543     1690  1283               	bcf	3,5	;RP0=0, select bank0
  9544     1691  00D8               	movwf	??___fldiv
  9545     1692                     u7205:
  9546     1692  1003               	clrc
  9547     1693  1683               	bsf	3,5	;RP0=1, select bank1
  9548     1694  1303               	bcf	3,6	;RP1=0, select bank1
  9549     1695  0DA7               	rlf	___fldiv@grs^(0+128),f
  9550     1696  0DA8               	rlf	(___fldiv@grs+1)^(0+128),f
  9551     1697  0DA9               	rlf	(___fldiv@grs+2)^(0+128),f
  9552     1698  0DAA               	rlf	(___fldiv@grs+3)^(0+128),f
  9553     1699  1283               	bcf	3,5	;RP0=0, select bank0
  9554     169A  1303               	bcf	3,6	;RP1=0, select bank0
  9555     169B  0BD8               	decfsz	??___fldiv,f
  9556     169C  2E92               	goto	u7205
  9557     169D                     l4145:
  9558     169D  1283               	bcf	3,5	;RP0=0, select bank0
  9559     169E  0853               	movf	___fldiv@a+3,w
  9560     169F  1683               	bsf	3,5	;RP0=1, select bank1
  9561     16A0  1303               	bcf	3,6	;RP1=0, select bank1
  9562     16A1  0223               	subwf	(___fldiv@rem+3)^(0+128),w
  9563     16A2  1D03               	skipz
  9564     16A3  2EBA               	goto	u7215
  9565     16A4  1283               	bcf	3,5	;RP0=0, select bank0
  9566     16A5  1303               	bcf	3,6	;RP1=0, select bank0
  9567     16A6  0852               	movf	___fldiv@a+2,w
  9568     16A7  1683               	bsf	3,5	;RP0=1, select bank1
  9569     16A8  1303               	bcf	3,6	;RP1=0, select bank1
  9570     16A9  0222               	subwf	(___fldiv@rem+2)^(0+128),w
  9571     16AA  1D03               	skipz
  9572     16AB  2EBA               	goto	u7215
  9573     16AC  1283               	bcf	3,5	;RP0=0, select bank0
  9574     16AD  1303               	bcf	3,6	;RP1=0, select bank0
  9575     16AE  0851               	movf	___fldiv@a+1,w
  9576     16AF  1683               	bsf	3,5	;RP0=1, select bank1
  9577     16B0  1303               	bcf	3,6	;RP1=0, select bank1
  9578     16B1  0221               	subwf	(___fldiv@rem+1)^(0+128),w
  9579     16B2  1D03               	skipz
  9580     16B3  2EBA               	goto	u7215
  9581     16B4  1283               	bcf	3,5	;RP0=0, select bank0
  9582     16B5  1303               	bcf	3,6	;RP1=0, select bank0
  9583     16B6  0850               	movf	___fldiv@a,w
  9584     16B7  1683               	bsf	3,5	;RP0=1, select bank1
  9585     16B8  1303               	bcf	3,6	;RP1=0, select bank1
  9586     16B9  0220               	subwf	___fldiv@rem^(0+128),w
  9587     16BA                     u7215:
  9588     16BA  1C03               	skipc
  9589     16BB  2EBD               	goto	u7211
  9590     16BC  2EBE               	goto	u7210
  9591     16BD                     u7211:
  9592     16BD  2EE7               	goto	l4151
  9593     16BE                     u7210:
  9594     16BE                     l4147:
  9595     16BE  172A               	bsf	(___fldiv@grs^(0+128)+3),6
  9596     16BF                     l4149:
  9597     16BF  1283               	bcf	3,5	;RP0=0, select bank0
  9598     16C0  1303               	bcf	3,6	;RP1=0, select bank0
  9599     16C1  0850               	movf	___fldiv@a,w
  9600     16C2  1683               	bsf	3,5	;RP0=1, select bank1
  9601     16C3  1303               	bcf	3,6	;RP1=0, select bank1
  9602     16C4  02A0               	subwf	___fldiv@rem^(0+128),f
  9603     16C5  1283               	bcf	3,5	;RP0=0, select bank0
  9604     16C6  1303               	bcf	3,6	;RP1=0, select bank0
  9605     16C7  0851               	movf	___fldiv@a+1,w
  9606     16C8  1C03               	skipc
  9607     16C9  0F51               	incfsz	___fldiv@a+1,w
  9608     16CA  2ECC               	goto	u7225
  9609     16CB  2ECF               	goto	u7226
  9610     16CC                     u7225:
  9611     16CC  1683               	bsf	3,5	;RP0=1, select bank1
  9612     16CD  1303               	bcf	3,6	;RP1=0, select bank1
  9613     16CE  02A1               	subwf	(___fldiv@rem+1)^(0+128),f
  9614     16CF                     u7226:
  9615     16CF  1283               	bcf	3,5	;RP0=0, select bank0
  9616     16D0  1303               	bcf	3,6	;RP1=0, select bank0
  9617     16D1  0852               	movf	___fldiv@a+2,w
  9618     16D2  1C03               	skipc
  9619     16D3  0F52               	incfsz	___fldiv@a+2,w
  9620     16D4  2ED6               	goto	u7227
  9621     16D5  2ED9               	goto	u7228
  9622     16D6                     u7227:
  9623     16D6  1683               	bsf	3,5	;RP0=1, select bank1
  9624     16D7  1303               	bcf	3,6	;RP1=0, select bank1
  9625     16D8  02A2               	subwf	(___fldiv@rem+2)^(0+128),f
  9626     16D9                     u7228:
  9627     16D9  1283               	bcf	3,5	;RP0=0, select bank0
  9628     16DA  1303               	bcf	3,6	;RP1=0, select bank0
  9629     16DB  0853               	movf	___fldiv@a+3,w
  9630     16DC  1C03               	skipc
  9631     16DD  0F53               	incfsz	___fldiv@a+3,w
  9632     16DE  2EE0               	goto	u7229
  9633     16DF  2EE3               	goto	u7220
  9634     16E0                     u7229:
  9635     16E0  1683               	bsf	3,5	;RP0=1, select bank1
  9636     16E1  1303               	bcf	3,6	;RP1=0, select bank1
  9637     16E2  02A3               	subwf	(___fldiv@rem+3)^(0+128),f
  9638     16E3                     u7220:
  9639     16E3  1283               	bcf	3,5	;RP0=0, select bank0
  9640     16E4  1303               	bcf	3,6	;RP1=0, select bank0
  9641     16E5  1683               	bsf	3,5	;RP0=1, select bank1
  9642     16E6  1303               	bcf	3,6	;RP1=0, select bank1
  9643     16E7                     l4151:
  9644     16E7  3001               	movlw	1
  9645     16E8  1283               	bcf	3,5	;RP0=0, select bank0
  9646     16E9  1303               	bcf	3,6	;RP1=0, select bank0
  9647     16EA  00D8               	movwf	??___fldiv
  9648     16EB  0858               	movf	??___fldiv,w
  9649     16EC  1683               	bsf	3,5	;RP0=1, select bank1
  9650     16ED  1303               	bcf	3,6	;RP1=0, select bank1
  9651     16EE  07AC               	addwf	___fldiv@aexp^(0+128),f
  9652     16EF                     l4153:
  9653     16EF  301A               	movlw	26
  9654     16F0  022C               	subwf	___fldiv@aexp^(0+128),w
  9655     16F1  1C03               	skipc
  9656     16F2  2EF4               	goto	u7231
  9657     16F3  2EF5               	goto	u7230
  9658     16F4                     u7231:
  9659     16F4  2E69               	goto	l4135
  9660     16F5                     u7230:
  9661     16F5                     l4155:
  9662     16F5  0823               	movf	(___fldiv@rem+3)^(0+128),w
  9663     16F6  0422               	iorwf	(___fldiv@rem+2)^(0+128),w
  9664     16F7  0421               	iorwf	(___fldiv@rem+1)^(0+128),w
  9665     16F8  0420               	iorwf	___fldiv@rem^(0+128),w
  9666     16F9  1903               	skipnz
  9667     16FA  2EFC               	goto	u7241
  9668     16FB  2EFD               	goto	u7240
  9669     16FC                     u7241:
  9670     16FC  2F27               	goto	l4169
  9671     16FD                     u7240:
  9672     16FD                     l4157:
  9673     16FD  1427               	bsf	___fldiv@grs^(0+128),0
  9674     16FE  2F27               	goto	l4169
  9675     16FF                     l4159:
  9676     16FF  3001               	movlw	1
  9677     1700  00D8               	movwf	??___fldiv
  9678     1701                     u7255:
  9679     1701  1003               	clrc
  9680     1702  0DD4               	rlf	___fldiv@b,f
  9681     1703  0DD5               	rlf	___fldiv@b+1,f
  9682     1704  0DD6               	rlf	___fldiv@b+2,f
  9683     1705  0DD7               	rlf	___fldiv@b+3,f
  9684     1706  0BD8               	decfsz	??___fldiv,f
  9685     1707  2F01               	goto	u7255
  9686     1708                     l4161:
  9687     1708  1683               	bsf	3,5	;RP0=1, select bank1
  9688     1709  1303               	bcf	3,6	;RP1=0, select bank1
  9689     170A  1FAA               	btfss	(___fldiv@grs+3)^(0+128),7
  9690     170B  2F0D               	goto	u7261
  9691     170C  2F0E               	goto	u7260
  9692     170D                     u7261:
  9693     170D  2F11               	goto	l4165
  9694     170E                     u7260:
  9695     170E                     l4163:
  9696     170E  1283               	bcf	3,5	;RP0=0, select bank0
  9697     170F  1303               	bcf	3,6	;RP1=0, select bank0
  9698     1710  1454               	bsf	___fldiv@b,0
  9699     1711                     l4165:
  9700     1711  3001               	movlw	1
  9701     1712  1283               	bcf	3,5	;RP0=0, select bank0
  9702     1713  00D8               	movwf	??___fldiv
  9703     1714                     u7275:
  9704     1714  1003               	clrc
  9705     1715  1683               	bsf	3,5	;RP0=1, select bank1
  9706     1716  1303               	bcf	3,6	;RP1=0, select bank1
  9707     1717  0DA7               	rlf	___fldiv@grs^(0+128),f
  9708     1718  0DA8               	rlf	(___fldiv@grs+1)^(0+128),f
  9709     1719  0DA9               	rlf	(___fldiv@grs+2)^(0+128),f
  9710     171A  0DAA               	rlf	(___fldiv@grs+3)^(0+128),f
  9711     171B  1283               	bcf	3,5	;RP0=0, select bank0
  9712     171C  1303               	bcf	3,6	;RP1=0, select bank0
  9713     171D  0BD8               	decfsz	??___fldiv,f
  9714     171E  2F14               	goto	u7275
  9715     171F                     l4167:
  9716     171F  30FF               	movlw	255
  9717     1720  1683               	bsf	3,5	;RP0=1, select bank1
  9718     1721  1303               	bcf	3,6	;RP1=0, select bank1
  9719     1722  07A5               	addwf	___fldiv@new_exp^(0+128),f
  9720     1723  1803               	skipnc
  9721     1724  0AA6               	incf	(___fldiv@new_exp+1)^(0+128),f
  9722     1725  30FF               	movlw	255
  9723     1726  07A6               	addwf	(___fldiv@new_exp+1)^(0+128),f
  9724     1727                     l4169:
  9725     1727  1283               	bcf	3,5	;RP0=0, select bank0
  9726     1728  1303               	bcf	3,6	;RP1=0, select bank0
  9727     1729  1FD6               	btfss	___fldiv@b+2,7
  9728     172A  2F2C               	goto	u7281
  9729     172B  2F2D               	goto	u7280
  9730     172C                     u7281:
  9731     172C  2EFF               	goto	l4159
  9732     172D                     u7280:
  9733     172D                     l4171:
  9734     172D  1683               	bsf	3,5	;RP0=1, select bank1
  9735     172E  1303               	bcf	3,6	;RP1=0, select bank1
  9736     172F  01AC               	clrf	___fldiv@aexp^(0+128)
  9737     1730                     l4173:
  9738     1730  1FAA               	btfss	(___fldiv@grs+3)^(0+128),7
  9739     1731  2F33               	goto	u7291
  9740     1732  2F34               	goto	u7290
  9741     1733                     u7291:
  9742     1733  2F60               	goto	l4181
  9743     1734                     u7290:
  9744     1734                     l4175:
  9745     1734  30FF               	movlw	255
  9746     1735  0527               	andwf	___fldiv@grs^(0+128),w
  9747     1736  1283               	bcf	3,5	;RP0=0, select bank0
  9748     1737  1303               	bcf	3,6	;RP1=0, select bank0
  9749     1738  00D8               	movwf	??___fldiv
  9750     1739  30FF               	movlw	255
  9751     173A  1683               	bsf	3,5	;RP0=1, select bank1
  9752     173B  1303               	bcf	3,6	;RP1=0, select bank1
  9753     173C  0528               	andwf	(___fldiv@grs+1)^(0+128),w
  9754     173D  1283               	bcf	3,5	;RP0=0, select bank0
  9755     173E  1303               	bcf	3,6	;RP1=0, select bank0
  9756     173F  00D9               	movwf	??___fldiv+1
  9757     1740  30FF               	movlw	255
  9758     1741  1683               	bsf	3,5	;RP0=1, select bank1
  9759     1742  1303               	bcf	3,6	;RP1=0, select bank1
  9760     1743  0529               	andwf	(___fldiv@grs+2)^(0+128),w
  9761     1744  1283               	bcf	3,5	;RP0=0, select bank0
  9762     1745  1303               	bcf	3,6	;RP1=0, select bank0
  9763     1746  00DA               	movwf	??___fldiv+2
  9764     1747  307F               	movlw	127
  9765     1748  1683               	bsf	3,5	;RP0=1, select bank1
  9766     1749  1303               	bcf	3,6	;RP1=0, select bank1
  9767     174A  052A               	andwf	(___fldiv@grs+3)^(0+128),w
  9768     174B  1283               	bcf	3,5	;RP0=0, select bank0
  9769     174C  1303               	bcf	3,6	;RP1=0, select bank0
  9770     174D  00DB               	movwf	??___fldiv+3
  9771     174E  085B               	movf	??___fldiv+3,w
  9772     174F  045A               	iorwf	??___fldiv+2,w
  9773     1750  0459               	iorwf	??___fldiv+1,w
  9774     1751  0458               	iorwf	??___fldiv,w
  9775     1752  1903               	skipnz
  9776     1753  2F55               	goto	u7301
  9777     1754  2F56               	goto	u7300
  9778     1755                     u7301:
  9779     1755  2F5B               	goto	l698
  9780     1756                     u7300:
  9781     1756                     l4177:
  9782     1756  1683               	bsf	3,5	;RP0=1, select bank1
  9783     1757  1303               	bcf	3,6	;RP1=0, select bank1
  9784     1758  01AC               	clrf	___fldiv@aexp^(0+128)
  9785     1759  0AAC               	incf	___fldiv@aexp^(0+128),f
  9786     175A  2F60               	goto	l4181
  9787     175B                     l698:
  9788     175B  1C54               	btfss	___fldiv@b,0
  9789     175C  2F5E               	goto	u7311
  9790     175D  2F5F               	goto	u7310
  9791     175E                     u7311:
  9792     175E  2F60               	goto	l4181
  9793     175F                     u7310:
  9794     175F  2F56               	goto	l4177
  9795     1760                     l4181:
  9796     1760  1683               	bsf	3,5	;RP0=1, select bank1
  9797     1761  1303               	bcf	3,6	;RP1=0, select bank1
  9798     1762  082C               	movf	___fldiv@aexp^(0+128),w
  9799     1763  1903               	btfsc	3,2
  9800     1764  2F66               	goto	u7321
  9801     1765  2F67               	goto	u7320
  9802     1766                     u7321:
  9803     1766  2F9C               	goto	l4191
  9804     1767                     u7320:
  9805     1767                     l4183:
  9806     1767  3001               	movlw	1
  9807     1768  1283               	bcf	3,5	;RP0=0, select bank0
  9808     1769  1303               	bcf	3,6	;RP1=0, select bank0
  9809     176A  07D4               	addwf	___fldiv@b,f
  9810     176B  3000               	movlw	0
  9811     176C  1803               	skipnc
  9812     176D  3001               	movlw	1
  9813     176E  07D5               	addwf	___fldiv@b+1,f
  9814     176F  3000               	movlw	0
  9815     1770  1803               	skipnc
  9816     1771  3001               	movlw	1
  9817     1772  07D6               	addwf	___fldiv@b+2,f
  9818     1773  3000               	movlw	0
  9819     1774  1803               	skipnc
  9820     1775  3001               	movlw	1
  9821     1776  07D7               	addwf	___fldiv@b+3,f
  9822     1777                     l4185:
  9823     1777  1C57               	btfss	___fldiv@b+3,0
  9824     1778  2F7A               	goto	u7331
  9825     1779  2F7B               	goto	u7330
  9826     177A                     u7331:
  9827     177A  2F9C               	goto	l4191
  9828     177B                     u7330:
  9829     177B                     l4187:
  9830     177B  0854               	movf	___fldiv@b,w
  9831     177C  00D8               	movwf	??___fldiv
  9832     177D  0855               	movf	___fldiv@b+1,w
  9833     177E  00D9               	movwf	??___fldiv+1
  9834     177F  0856               	movf	___fldiv@b+2,w
  9835     1780  00DA               	movwf	??___fldiv+2
  9836     1781  0857               	movf	___fldiv@b+3,w
  9837     1782  00DB               	movwf	??___fldiv+3
  9838     1783  3001               	movlw	1
  9839     1784  00DC               	movwf	??___fldiv+4
  9840     1785                     u7345:
  9841     1785  0D5B               	rlf	??___fldiv+3,w
  9842     1786  0CDB               	rrf	??___fldiv+3,f
  9843     1787  0CDA               	rrf	??___fldiv+2,f
  9844     1788  0CD9               	rrf	??___fldiv+1,f
  9845     1789  0CD8               	rrf	??___fldiv,f
  9846     178A                     u7340:
  9847     178A  0BDC               	decfsz	??___fldiv+4,f
  9848     178B  2F85               	goto	u7345
  9849     178C  085B               	movf	??___fldiv+3,w
  9850     178D  00D7               	movwf	___fldiv@b+3
  9851     178E  085A               	movf	??___fldiv+2,w
  9852     178F  00D6               	movwf	___fldiv@b+2
  9853     1790  0859               	movf	??___fldiv+1,w
  9854     1791  00D5               	movwf	___fldiv@b+1
  9855     1792  0858               	movf	??___fldiv,w
  9856     1793  00D4               	movwf	___fldiv@b
  9857     1794                     l4189:
  9858     1794  3001               	movlw	1
  9859     1795  1683               	bsf	3,5	;RP0=1, select bank1
  9860     1796  1303               	bcf	3,6	;RP1=0, select bank1
  9861     1797  07A5               	addwf	___fldiv@new_exp^(0+128),f
  9862     1798  1803               	skipnc
  9863     1799  0AA6               	incf	(___fldiv@new_exp+1)^(0+128),f
  9864     179A  3000               	movlw	0
  9865     179B  07A6               	addwf	(___fldiv@new_exp+1)^(0+128),f
  9866     179C                     l4191:
  9867     179C  1683               	bsf	3,5	;RP0=1, select bank1
  9868     179D  1303               	bcf	3,6	;RP1=0, select bank1
  9869     179E  0826               	movf	(___fldiv@new_exp+1)^(0+128),w
  9870     179F  3A80               	xorlw	128
  9871     17A0  00FF               	movwf	btemp+1
  9872     17A1  3080               	movlw	128
  9873     17A2  027F               	subwf	btemp+1,w
  9874     17A3  1D03               	skipz
  9875     17A4  2FA7               	goto	u7355
  9876     17A5  30FF               	movlw	255
  9877     17A6  0225               	subwf	___fldiv@new_exp^(0+128),w
  9878     17A7                     u7355:
  9879     17A7  1C03               	skipc
  9880     17A8  2FAA               	goto	u7351
  9881     17A9  2FAB               	goto	u7350
  9882     17AA                     u7351:
  9883     17AA  2FBB               	goto	l4195
  9884     17AB                     u7350:
  9885     17AB                     l4193:
  9886     17AB  30FF               	movlw	255
  9887     17AC  1683               	bsf	3,5	;RP0=1, select bank1
  9888     17AD  1303               	bcf	3,6	;RP1=0, select bank1
  9889     17AE  00A5               	movwf	___fldiv@new_exp^(0+128)
  9890     17AF  3000               	movlw	0
  9891     17B0  00A6               	movwf	(___fldiv@new_exp^(0+128)+1)
  9892     17B1  3000               	movlw	0
  9893     17B2  1283               	bcf	3,5	;RP0=0, select bank0
  9894     17B3  1303               	bcf	3,6	;RP1=0, select bank0
  9895     17B4  00D7               	movwf	___fldiv@b+3
  9896     17B5  3000               	movlw	0
  9897     17B6  00D6               	movwf	___fldiv@b+2
  9898     17B7  3000               	movlw	0
  9899     17B8  00D5               	movwf	___fldiv@b+1
  9900     17B9  3000               	movlw	0
  9901     17BA  00D4               	movwf	___fldiv@b
  9902     17BB                     l4195:
  9903     17BB  1683               	bsf	3,5	;RP0=1, select bank1
  9904     17BC  1303               	bcf	3,6	;RP1=0, select bank1
  9905     17BD  0826               	movf	(___fldiv@new_exp+1)^(0+128),w
  9906     17BE  3A80               	xorlw	128
  9907     17BF  00FF               	movwf	btemp+1
  9908     17C0  3080               	movlw	128
  9909     17C1  027F               	subwf	btemp+1,w
  9910     17C2  1D03               	skipz
  9911     17C3  2FC6               	goto	u7365
  9912     17C4  3001               	movlw	1
  9913     17C5  0225               	subwf	___fldiv@new_exp^(0+128),w
  9914     17C6                     u7365:
  9915     17C6  1803               	skipnc
  9916     17C7  2FC9               	goto	u7361
  9917     17C8  2FCA               	goto	u7360
  9918     17C9                     u7361:
  9919     17C9  2FDB               	goto	l704
  9920     17CA                     u7360:
  9921     17CA                     l4197:
  9922     17CA  1683               	bsf	3,5	;RP0=1, select bank1
  9923     17CB  1303               	bcf	3,6	;RP1=0, select bank1
  9924     17CC  01A5               	clrf	___fldiv@new_exp^(0+128)
  9925     17CD  01A6               	clrf	(___fldiv@new_exp+1)^(0+128)
  9926     17CE                     l4199:
  9927     17CE  3000               	movlw	0
  9928     17CF  1283               	bcf	3,5	;RP0=0, select bank0
  9929     17D0  1303               	bcf	3,6	;RP1=0, select bank0
  9930     17D1  00D7               	movwf	___fldiv@b+3
  9931     17D2  3000               	movlw	0
  9932     17D3  00D6               	movwf	___fldiv@b+2
  9933     17D4  3000               	movlw	0
  9934     17D5  00D5               	movwf	___fldiv@b+1
  9935     17D6  3000               	movlw	0
  9936     17D7  00D4               	movwf	___fldiv@b
  9937     17D8                     l4201:
  9938     17D8  1683               	bsf	3,5	;RP0=1, select bank1
  9939     17D9  1303               	bcf	3,6	;RP1=0, select bank1
  9940     17DA  01A4               	clrf	___fldiv@sign^(0+128)
  9941     17DB                     l704:
  9942     17DB  1683               	bsf	3,5	;RP0=1, select bank1
  9943     17DC  1303               	bcf	3,6	;RP1=0, select bank1
  9944     17DD  0825               	movf	___fldiv@new_exp^(0+128),w
  9945     17DE  00AB               	movwf	___fldiv@bexp^(0+128)
  9946     17DF                     l4203:
  9947     17DF  1C2B               	btfss	___fldiv@bexp^(0+128),0
  9948     17E0  2FE2               	goto	u7371
  9949     17E1  2FE3               	goto	u7370
  9950     17E2                     u7371:
  9951     17E2  2FE7               	goto	l4207
  9952     17E3                     u7370:
  9953     17E3                     l4205:
  9954     17E3  1283               	bcf	3,5	;RP0=0, select bank0
  9955     17E4  1303               	bcf	3,6	;RP1=0, select bank0
  9956     17E5  17D6               	bsf	___fldiv@b+2,7
  9957     17E6  2FED               	goto	l706
  9958     17E7                     l4207:
  9959     17E7  307F               	movlw	127
  9960     17E8  1283               	bcf	3,5	;RP0=0, select bank0
  9961     17E9  1303               	bcf	3,6	;RP1=0, select bank0
  9962     17EA  00D8               	movwf	??___fldiv
  9963     17EB  0858               	movf	??___fldiv,w
  9964     17EC  05D6               	andwf	___fldiv@b+2,f
  9965     17ED                     l706:
  9966     17ED  1683               	bsf	3,5	;RP0=1, select bank1
  9967     17EE  1303               	bcf	3,6	;RP1=0, select bank1
  9968     17EF  082B               	movf	___fldiv@bexp^(0+128),w
  9969     17F0  1283               	bcf	3,5	;RP0=0, select bank0
  9970     17F1  1303               	bcf	3,6	;RP1=0, select bank0
  9971     17F2  00D8               	movwf	??___fldiv
  9972     17F3  1003               	clrc
  9973     17F4  0C58               	rrf	??___fldiv,w
  9974     17F5  00D7               	movwf	___fldiv@b+3
  9975     17F6  1683               	bsf	3,5	;RP0=1, select bank1
  9976     17F7  1303               	bcf	3,6	;RP1=0, select bank1
  9977     17F8  0824               	movf	___fldiv@sign^(0+128),w
  9978     17F9  1283               	bcf	3,5	;RP0=0, select bank0
  9979     17FA  1303               	bcf	3,6	;RP1=0, select bank0
  9980     17FB  00D8               	movwf	??___fldiv
  9981     17FC  0858               	movf	??___fldiv,w
  9982     17FD  04D7               	iorwf	___fldiv@b+3,f
  9983     17FE  2E02               	goto	l4115
  9984     17FF                     l684:
  9985     17FF  0008               	return
  9986     1800                     __end_of___fldiv:
  9987                           
  9988                           	psect	text24
  9989     1C50                     __ptext24:	
  9990 ;; *************** function _isr *****************
  9991 ;; Defined at:
  9992 ;;		line 34 in file "Lab2.c"
  9993 ;; Parameters:    Size  Location     Type
  9994 ;;		None
  9995 ;; Auto vars:     Size  Location     Type
  9996 ;;		None
  9997 ;; Return value:  Size  Location     Type
  9998 ;;                  1    wreg      void 
  9999 ;; Registers used:
 10000 ;;		wreg, status,2, status,0, pclath, cstack
 10001 ;; Tracked objects:
 10002 ;;		On entry : 0/0
 10003 ;;		On exit  : 0/0
 10004 ;;		Unchanged: 0/0
 10005 ;; Data sizes:     COMMON   BANK0   BANK1   BANK3   BANK2
 10006 ;;      Params:         0       0       0       0       0
 10007 ;;      Locals:         0       0       0       0       0
 10008 ;;      Temps:          0       6       0       0       0
 10009 ;;      Totals:         0       6       0       0       0
 10010 ;;Total ram usage:        6 bytes
 10011 ;; Hardware stack levels used: 1
 10012 ;; Hardware stack levels required when called: 1
 10013 ;; This function calls:
 10014 ;;		i1___awdiv
 10015 ;;		i1___xxtofl
 10016 ;; This function is called by:
 10017 ;;		Interrupt level 1
 10018 ;; This function uses a non-reentrant model
 10019 ;;
 10020                           
 10021     1C50                     _isr:	
 10022                           ;psect for function _isr
 10023                           
 10024     1C50                     i1l3587:
 10025                           
 10026                           ;Lab2.c: 36: if(PIR1bits.ADIF){
 10027     1C50  1F0C               	btfss	12,6	;volatile
 10028     1C51  2C53               	goto	u619_21
 10029     1C52  2C54               	goto	u619_20
 10030     1C53                     u619_21:
 10031     1C53  2CAE               	goto	i1l118
 10032     1C54                     u619_20:
 10033     1C54                     i1l3589:
 10034                           
 10035                           ;Lab2.c: 38:        if (ADCON0bits.CHS ==1){
 10036     1C54  0C1F               	rrf	31,w	;volatile
 10037     1C55  00A0               	movwf	??_isr
 10038     1C56  0C20               	rrf	??_isr,w
 10039     1C57  390F               	andlw	15
 10040     1C58  3A01               	xorlw	1
 10041     1C59  1D03               	skipz
 10042     1C5A  2C5C               	goto	u620_21
 10043     1C5B  2C5D               	goto	u620_20
 10044     1C5C                     u620_21:
 10045     1C5C  2C74               	goto	i1l3593
 10046     1C5D                     u620_20:
 10047     1C5D                     i1l3591:
 10048                           
 10049                           ;Lab2.c: 40:               valpot0 =5/ ADRESH;
 10050     1C5D  081E               	movf	30,w	;volatile
 10051     1C5E  00A0               	movwf	??_isr
 10052     1C5F  01A1               	clrf	??_isr+1
 10053     1C60  0820               	movf	??_isr,w
 10054     1C61  00F0               	movwf	i1___awdiv@divisor
 10055     1C62  0821               	movf	??_isr+1,w
 10056     1C63  00F1               	movwf	i1___awdiv@divisor+1
 10057     1C64  3005               	movlw	5
 10058     1C65  00F2               	movwf	i1___awdiv@dividend
 10059     1C66  3000               	movlw	0
 10060     1C67  00F3               	movwf	i1___awdiv@dividend+1
 10061     1C68  160A  158A  24B5  160A  158A  	fcall	i1___awdiv
 10062     1C6D  0871               	movf	?i1___awdiv+1,w
 10063     1C6E  1283               	bcf	3,5	;RP0=0, select bank0
 10064     1C6F  1303               	bcf	3,6	;RP1=0, select bank0
 10065     1C70  00E9               	movwf	_valpot0+1
 10066     1C71  0870               	movf	?i1___awdiv,w
 10067     1C72  00E8               	movwf	_valpot0
 10068                           
 10069                           ;Lab2.c: 42:         }
 10070     1C73  2CAB               	goto	i1l3601
 10071     1C74                     i1l3593:
 10072     1C74  0C1F               	rrf	31,w	;volatile
 10073     1C75  00A0               	movwf	??_isr
 10074     1C76  0C20               	rrf	??_isr,w
 10075     1C77  390F               	andlw	15
 10076     1C78  3A00               	xorlw	0
 10077     1C79  1D03               	skipz
 10078     1C7A  2C7C               	goto	u621_21
 10079     1C7B  2C7D               	goto	u621_20
 10080     1C7C                     u621_21:
 10081     1C7C  2C9B               	goto	i1l3597
 10082     1C7D                     u621_20:
 10083     1C7D                     i1l3595:
 10084                           
 10085                           ;Lab2.c: 45:          varvolt = ADRESH;
 10086     1C7D  081E               	movf	30,w	;volatile
 10087     1C7E  00A0               	movwf	??_isr
 10088     1C7F  01A1               	clrf	??_isr+1
 10089     1C80  01A2               	clrf	??_isr+2
 10090     1C81  01A3               	clrf	??_isr+3
 10091     1C82  0823               	movf	??_isr+3,w
 10092     1C83  00F3               	movwf	i1___xxtofl@val+3
 10093     1C84  0822               	movf	??_isr+2,w
 10094     1C85  00F2               	movwf	i1___xxtofl@val+2
 10095     1C86  0821               	movf	??_isr+1,w
 10096     1C87  00F1               	movwf	i1___xxtofl@val+1
 10097     1C88  0820               	movf	??_isr,w
 10098     1C89  00F0               	movwf	i1___xxtofl@val
 10099     1C8A  3000               	movlw	0
 10100     1C8B  160A  158A  2748  160A  158A  	fcall	i1___xxtofl
 10101     1C90  0873               	movf	?i1___xxtofl+3,w
 10102     1C91  1683               	bsf	3,5	;RP0=1, select bank3
 10103     1C92  1703               	bsf	3,6	;RP1=1, select bank3
 10104     1C93  00AB               	movwf	(_varvolt+3)^(0+384)
 10105     1C94  0872               	movf	?i1___xxtofl+2,w
 10106     1C95  00AA               	movwf	(_varvolt+2)^(0+384)
 10107     1C96  0871               	movf	?i1___xxtofl+1,w
 10108     1C97  00A9               	movwf	(_varvolt+1)^(0+384)
 10109     1C98  0870               	movf	?i1___xxtofl,w
 10110     1C99  00A8               	movwf	_varvolt^(0+384)
 10111                           
 10112                           ;Lab2.c: 46:         }
 10113     1C9A  2CAB               	goto	i1l3601
 10114     1C9B                     i1l3597:
 10115     1C9B  0C1F               	rrf	31,w	;volatile
 10116     1C9C  00A0               	movwf	??_isr
 10117     1C9D  0C20               	rrf	??_isr,w
 10118     1C9E  390F               	andlw	15
 10119     1C9F  3A02               	xorlw	2
 10120     1CA0  1D03               	skipz
 10121     1CA1  2CA3               	goto	u622_21
 10122     1CA2  2CA4               	goto	u622_20
 10123     1CA3                     u622_21:
 10124     1CA3  2CAB               	goto	i1l3601
 10125     1CA4                     u622_20:
 10126     1CA4                     i1l3599:
 10127                           
 10128                           ;Lab2.c: 48:             val = ADRESH;
 10129     1CA4  081E               	movf	30,w	;volatile
 10130     1CA5  00A0               	movwf	??_isr
 10131     1CA6  01A1               	clrf	??_isr+1
 10132     1CA7  0820               	movf	??_isr,w
 10133     1CA8  00E4               	movwf	_val
 10134     1CA9  0821               	movf	??_isr+1,w
 10135     1CAA  00E5               	movwf	_val+1
 10136     1CAB                     i1l3601:
 10137                           
 10138                           ;Lab2.c: 50:             PIR1bits.ADIF =0;
 10139     1CAB  1283               	bcf	3,5	;RP0=0, select bank0
 10140     1CAC  1303               	bcf	3,6	;RP1=0, select bank0
 10141     1CAD  130C               	bcf	12,6	;volatile
 10142     1CAE                     i1l118:
 10143     1CAE  0825               	movf	??_isr+5,w
 10144     1CAF  008A               	movwf	10
 10145     1CB0  0E24               	swapf	??_isr+4,w
 10146     1CB1  0083               	movwf	3
 10147     1CB2  0EFE               	swapf	btemp,f
 10148     1CB3  0E7E               	swapf	btemp,w
 10149     1CB4  0009               	retfie
 10150     1CB5                     __end_of_isr:
 10151                           
 10152                           	psect	intentry
 10153     0004                     __pintentry:	
 10154                           ;incstack = 0
 10155                           ; Regs used in _isr: [wreg+status,2+status,0+pclath+cstack]
 10156                           
 10157     0004                     interrupt_function:
 10158     007E                     saved_w	set	btemp
 10159     0004  00FE               	movwf	btemp
 10160     0005  0E03               	swapf	3,w
 10161     0006  1283               	bcf	3,5	;RP0=0, select bank0
 10162     0007  1303               	bcf	3,6	;RP1=0, select bank0
 10163     0008  00A4               	movwf	??_isr+4
 10164     0009  080A               	movf	10,w
 10165     000A  00A5               	movwf	??_isr+5
 10166     000B  160A  158A  2C50   	ljmp	_isr
 10167                           
 10168                           	psect	text25
 10169     1F48                     __ptext25:	
 10170 ;; *************** function i1___xxtofl *****************
 10171 ;; Defined at:
 10172 ;;		line 10 in file "C:\Program Files\Microchip\xc8\v2.40\pic\sources\c90\common\xxtofl.c"
 10173 ;; Parameters:    Size  Location     Type
 10174 ;;  sign            1    wreg     unsigned char 
 10175 ;;  val             4    0[COMMON] long 
 10176 ;; Auto vars:     Size  Location     Type
 10177 ;;  sign            1    8[COMMON] unsigned char 
 10178 ;;  arg             4   10[COMMON] unsigned long 
 10179 ;;  exp             1    9[COMMON] unsigned char 
 10180 ;; Return value:  Size  Location     Type
 10181 ;;                  4    0[COMMON] unsigned char 
 10182 ;; Registers used:
 10183 ;;		wreg, status,2, status,0
 10184 ;; Tracked objects:
 10185 ;;		On entry : 0/0
 10186 ;;		On exit  : 0/0
 10187 ;;		Unchanged: 0/0
 10188 ;; Data sizes:     COMMON   BANK0   BANK1   BANK3   BANK2
 10189 ;;      Params:         4       0       0       0       0
 10190 ;;      Locals:         6       0       0       0       0
 10191 ;;      Temps:          4       0       0       0       0
 10192 ;;      Totals:        14       0       0       0       0
 10193 ;;Total ram usage:       14 bytes
 10194 ;; Hardware stack levels used: 1
 10195 ;; This function calls:
 10196 ;;		Nothing
 10197 ;; This function is called by:
 10198 ;;		_isr
 10199 ;; This function uses a non-reentrant model
 10200 ;;
 10201                           
 10202     1F48                     i1___xxtofl:	
 10203                           ;psect for function i1___xxtofl
 10204                           
 10205                           
 10206                           ;incstack = 0
 10207                           ; Regs used in i1___xxtofl: [wreg+status,2+status,0]
 10208                           ;i1___xxtofl@sign stored from wreg
 10209     1F48  00F8               	movwf	i1___xxtofl@sign
 10210     1F49                     i1l3543:
 10211     1F49  0878               	movf	i1___xxtofl@sign,w
 10212     1F4A  1903               	btfsc	3,2
 10213     1F4B  2F4D               	goto	u605_21
 10214     1F4C  2F4E               	goto	u605_20
 10215     1F4D                     u605_21:
 10216     1F4D  2F62               	goto	i1l3549
 10217     1F4E                     u605_20:
 10218     1F4E                     i1l3545:
 10219     1F4E  1FF3               	btfss	i1___xxtofl@val+3,7
 10220     1F4F  2F51               	goto	u606_21
 10221     1F50  2F52               	goto	u606_20
 10222     1F51                     u606_21:
 10223     1F51  2F62               	goto	i1l3549
 10224     1F52                     u606_20:
 10225     1F52                     i1l3547:
 10226     1F52  0970               	comf	i1___xxtofl@val,w
 10227     1F53  00FA               	movwf	i1___xxtofl@arg
 10228     1F54  0971               	comf	i1___xxtofl@val+1,w
 10229     1F55  00FB               	movwf	i1___xxtofl@arg+1
 10230     1F56  0972               	comf	i1___xxtofl@val+2,w
 10231     1F57  00FC               	movwf	i1___xxtofl@arg+2
 10232     1F58  0973               	comf	i1___xxtofl@val+3,w
 10233     1F59  00FD               	movwf	i1___xxtofl@arg+3
 10234     1F5A  0AFA               	incf	i1___xxtofl@arg,f
 10235     1F5B  1903               	skipnz
 10236     1F5C  0AFB               	incf	i1___xxtofl@arg+1,f
 10237     1F5D  1903               	skipnz
 10238     1F5E  0AFC               	incf	i1___xxtofl@arg+2,f
 10239     1F5F  1903               	skipnz
 10240     1F60  0AFD               	incf	i1___xxtofl@arg+3,f
 10241     1F61  2F6A               	goto	i1l766
 10242     1F62                     i1l3549:
 10243     1F62  0873               	movf	i1___xxtofl@val+3,w
 10244     1F63  00FD               	movwf	i1___xxtofl@arg+3
 10245     1F64  0872               	movf	i1___xxtofl@val+2,w
 10246     1F65  00FC               	movwf	i1___xxtofl@arg+2
 10247     1F66  0871               	movf	i1___xxtofl@val+1,w
 10248     1F67  00FB               	movwf	i1___xxtofl@arg+1
 10249     1F68  0870               	movf	i1___xxtofl@val,w
 10250     1F69  00FA               	movwf	i1___xxtofl@arg
 10251     1F6A                     i1l766:
 10252     1F6A  0873               	movf	i1___xxtofl@val+3,w
 10253     1F6B  0472               	iorwf	i1___xxtofl@val+2,w
 10254     1F6C  0471               	iorwf	i1___xxtofl@val+1,w
 10255     1F6D  0470               	iorwf	i1___xxtofl@val,w
 10256     1F6E  1D03               	skipz
 10257     1F6F  2F71               	goto	u607_21
 10258     1F70  2F72               	goto	u607_20
 10259     1F71                     u607_21:
 10260     1F71  2F7B               	goto	i1l3555
 10261     1F72                     u607_20:
 10262     1F72                     i1l3551:
 10263     1F72  3000               	movlw	0
 10264     1F73  00F3               	movwf	?i1___xxtofl+3
 10265     1F74  3000               	movlw	0
 10266     1F75  00F2               	movwf	?i1___xxtofl+2
 10267     1F76  3000               	movlw	0
 10268     1F77  00F1               	movwf	?i1___xxtofl+1
 10269     1F78  3000               	movlw	0
 10270     1F79  00F0               	movwf	?i1___xxtofl
 10271     1F7A  2FFF               	goto	i1l768
 10272     1F7B                     i1l3555:
 10273     1F7B  3096               	movlw	150
 10274     1F7C  00F9               	movwf	i1___xxtofl@exp
 10275     1F7D  2F8B               	goto	i1l3559
 10276     1F7E                     i1l3557:
 10277     1F7E  3001               	movlw	1
 10278     1F7F  00F4               	movwf	??i1___xxtofl
 10279     1F80  0874               	movf	??i1___xxtofl,w
 10280     1F81  07F9               	addwf	i1___xxtofl@exp,f
 10281     1F82  3001               	movlw	1
 10282     1F83                     u608_25:
 10283     1F83  1003               	clrc
 10284     1F84  0CFD               	rrf	i1___xxtofl@arg+3,f
 10285     1F85  0CFC               	rrf	i1___xxtofl@arg+2,f
 10286     1F86  0CFB               	rrf	i1___xxtofl@arg+1,f
 10287     1F87  0CFA               	rrf	i1___xxtofl@arg,f
 10288     1F88  3EFF               	addlw	-1
 10289     1F89  1D03               	skipz
 10290     1F8A  2F83               	goto	u608_25
 10291     1F8B                     i1l3559:
 10292     1F8B  30FE               	movlw	254
 10293     1F8C  057D               	andwf	i1___xxtofl@arg+3,w
 10294     1F8D  1D03               	btfss	3,2
 10295     1F8E  2F90               	goto	u609_21
 10296     1F8F  2F91               	goto	u609_20
 10297     1F90                     u609_21:
 10298     1F90  2F7E               	goto	i1l3557
 10299     1F91                     u609_20:
 10300     1F91  2FAD               	goto	i1l772
 10301     1F92                     i1l3561:
 10302     1F92  3001               	movlw	1
 10303     1F93  00F4               	movwf	??i1___xxtofl
 10304     1F94  0874               	movf	??i1___xxtofl,w
 10305     1F95  07F9               	addwf	i1___xxtofl@exp,f
 10306     1F96                     i1l3563:
 10307     1F96  3001               	movlw	1
 10308     1F97  07FA               	addwf	i1___xxtofl@arg,f
 10309     1F98  3000               	movlw	0
 10310     1F99  1803               	skipnc
 10311     1F9A  3001               	movlw	1
 10312     1F9B  07FB               	addwf	i1___xxtofl@arg+1,f
 10313     1F9C  3000               	movlw	0
 10314     1F9D  1803               	skipnc
 10315     1F9E  3001               	movlw	1
 10316     1F9F  07FC               	addwf	i1___xxtofl@arg+2,f
 10317     1FA0  3000               	movlw	0
 10318     1FA1  1803               	skipnc
 10319     1FA2  3001               	movlw	1
 10320     1FA3  07FD               	addwf	i1___xxtofl@arg+3,f
 10321     1FA4                     i1l3565:
 10322     1FA4  3001               	movlw	1
 10323     1FA5                     u610_25:
 10324     1FA5  1003               	clrc
 10325     1FA6  0CFD               	rrf	i1___xxtofl@arg+3,f
 10326     1FA7  0CFC               	rrf	i1___xxtofl@arg+2,f
 10327     1FA8  0CFB               	rrf	i1___xxtofl@arg+1,f
 10328     1FA9  0CFA               	rrf	i1___xxtofl@arg,f
 10329     1FAA  3EFF               	addlw	-1
 10330     1FAB  1D03               	skipz
 10331     1FAC  2FA5               	goto	u610_25
 10332     1FAD                     i1l772:
 10333     1FAD  30FF               	movlw	255
 10334     1FAE  057D               	andwf	i1___xxtofl@arg+3,w
 10335     1FAF  1D03               	btfss	3,2
 10336     1FB0  2FB2               	goto	u611_21
 10337     1FB1  2FB3               	goto	u611_20
 10338     1FB2                     u611_21:
 10339     1FB2  2F92               	goto	i1l3561
 10340     1FB3                     u611_20:
 10341     1FB3  2FBF               	goto	i1l3569
 10342     1FB4                     i1l3567:
 10343     1FB4  3001               	movlw	1
 10344     1FB5  02F9               	subwf	i1___xxtofl@exp,f
 10345     1FB6  3001               	movlw	1
 10346     1FB7  00F4               	movwf	??i1___xxtofl
 10347     1FB8                     u612_25:
 10348     1FB8  1003               	clrc
 10349     1FB9  0DFA               	rlf	i1___xxtofl@arg,f
 10350     1FBA  0DFB               	rlf	i1___xxtofl@arg+1,f
 10351     1FBB  0DFC               	rlf	i1___xxtofl@arg+2,f
 10352     1FBC  0DFD               	rlf	i1___xxtofl@arg+3,f
 10353     1FBD  0BF4               	decfsz	??i1___xxtofl,f
 10354     1FBE  2FB8               	goto	u612_25
 10355     1FBF                     i1l3569:
 10356     1FBF  1BFC               	btfsc	i1___xxtofl@arg+2,7
 10357     1FC0  2FC2               	goto	u613_21
 10358     1FC1  2FC3               	goto	u613_20
 10359     1FC2                     u613_21:
 10360     1FC2  2FC9               	goto	i1l779
 10361     1FC3                     u613_20:
 10362     1FC3                     i1l3571:
 10363     1FC3  3002               	movlw	2
 10364     1FC4  0279               	subwf	i1___xxtofl@exp,w
 10365     1FC5  1803               	skipnc
 10366     1FC6  2FC8               	goto	u614_21
 10367     1FC7  2FC9               	goto	u614_20
 10368     1FC8                     u614_21:
 10369     1FC8  2FB4               	goto	i1l3567
 10370     1FC9                     u614_20:
 10371     1FC9                     i1l779:
 10372     1FC9  1879               	btfsc	i1___xxtofl@exp,0
 10373     1FCA  2FCC               	goto	u615_21
 10374     1FCB  2FCD               	goto	u615_20
 10375     1FCC                     u615_21:
 10376     1FCC  2FD5               	goto	i1l780
 10377     1FCD                     u615_20:
 10378     1FCD                     i1l3573:
 10379     1FCD  30FF               	movlw	255
 10380     1FCE  05FA               	andwf	i1___xxtofl@arg,f
 10381     1FCF  30FF               	movlw	255
 10382     1FD0  05FB               	andwf	i1___xxtofl@arg+1,f
 10383     1FD1  307F               	movlw	127
 10384     1FD2  05FC               	andwf	i1___xxtofl@arg+2,f
 10385     1FD3  30FF               	movlw	255
 10386     1FD4  05FD               	andwf	i1___xxtofl@arg+3,f
 10387     1FD5                     i1l780:
 10388     1FD5  1003               	clrc
 10389     1FD6  0CF9               	rrf	i1___xxtofl@exp,f
 10390     1FD7                     i1l3575:
 10391     1FD7  0879               	movf	i1___xxtofl@exp,w
 10392     1FD8  00F4               	movwf	??i1___xxtofl
 10393     1FD9  01F5               	clrf	??i1___xxtofl+1
 10394     1FDA  01F6               	clrf	??i1___xxtofl+2
 10395     1FDB  01F7               	clrf	??i1___xxtofl+3
 10396     1FDC  3018               	movlw	24
 10397     1FDD                     u616_25:
 10398     1FDD  1003               	clrc
 10399     1FDE  0DF4               	rlf	??i1___xxtofl,f
 10400     1FDF  0DF5               	rlf	??i1___xxtofl+1,f
 10401     1FE0  0DF6               	rlf	??i1___xxtofl+2,f
 10402     1FE1  0DF7               	rlf	??i1___xxtofl+3,f
 10403     1FE2                     u616_20:
 10404     1FE2  3EFF               	addlw	-1
 10405     1FE3  1D03               	skipz
 10406     1FE4  2FDD               	goto	u616_25
 10407     1FE5  0874               	movf	??i1___xxtofl,w
 10408     1FE6  04FA               	iorwf	i1___xxtofl@arg,f
 10409     1FE7  0875               	movf	??i1___xxtofl+1,w
 10410     1FE8  04FB               	iorwf	i1___xxtofl@arg+1,f
 10411     1FE9  0876               	movf	??i1___xxtofl+2,w
 10412     1FEA  04FC               	iorwf	i1___xxtofl@arg+2,f
 10413     1FEB  0877               	movf	??i1___xxtofl+3,w
 10414     1FEC  04FD               	iorwf	i1___xxtofl@arg+3,f
 10415     1FED                     i1l3577:
 10416     1FED  0878               	movf	i1___xxtofl@sign,w
 10417     1FEE  1903               	btfsc	3,2
 10418     1FEF  2FF1               	goto	u617_21
 10419     1FF0  2FF2               	goto	u617_20
 10420     1FF1                     u617_21:
 10421     1FF1  2FF7               	goto	i1l3583
 10422     1FF2                     u617_20:
 10423     1FF2                     i1l3579:
 10424     1FF2  1FF3               	btfss	i1___xxtofl@val+3,7
 10425     1FF3  2FF5               	goto	u618_21
 10426     1FF4  2FF6               	goto	u618_20
 10427     1FF5                     u618_21:
 10428     1FF5  2FF7               	goto	i1l3583
 10429     1FF6                     u618_20:
 10430     1FF6                     i1l3581:
 10431     1FF6  17FD               	bsf	i1___xxtofl@arg+3,7
 10432     1FF7                     i1l3583:
 10433     1FF7  087D               	movf	i1___xxtofl@arg+3,w
 10434     1FF8  00F3               	movwf	?i1___xxtofl+3
 10435     1FF9  087C               	movf	i1___xxtofl@arg+2,w
 10436     1FFA  00F2               	movwf	?i1___xxtofl+2
 10437     1FFB  087B               	movf	i1___xxtofl@arg+1,w
 10438     1FFC  00F1               	movwf	?i1___xxtofl+1
 10439     1FFD  087A               	movf	i1___xxtofl@arg,w
 10440     1FFE  00F0               	movwf	?i1___xxtofl
 10441     1FFF                     i1l768:
 10442     1FFF  0008               	return
 10443     2000                     __end_ofi1___xxtofl:
 10444                           
 10445                           	psect	text26
 10446     1CB5                     __ptext26:	
 10447 ;; *************** function i1___awdiv *****************
 10448 ;; Defined at:
 10449 ;;		line 5 in file "C:\Program Files\Microchip\xc8\v2.40\pic\sources\c90\common\awdiv.c"
 10450 ;; Parameters:    Size  Location     Type
 10451 ;;  divisor         2    0[COMMON] int 
 10452 ;;  dividend        2    2[COMMON] int 
 10453 ;; Auto vars:     Size  Location     Type
 10454 ;;  quotient        2    7[COMMON] int 
 10455 ;;  sign            1    6[COMMON] unsigned char 
 10456 ;;  counter         1    5[COMMON] unsigned char 
 10457 ;; Return value:  Size  Location     Type
 10458 ;;                  2    0[COMMON] int 
 10459 ;; Registers used:
 10460 ;;		wreg, status,2, status,0
 10461 ;; Tracked objects:
 10462 ;;		On entry : 0/0
 10463 ;;		On exit  : 0/0
 10464 ;;		Unchanged: 0/0
 10465 ;; Data sizes:     COMMON   BANK0   BANK1   BANK3   BANK2
 10466 ;;      Params:         4       0       0       0       0
 10467 ;;      Locals:         4       0       0       0       0
 10468 ;;      Temps:          1       0       0       0       0
 10469 ;;      Totals:         9       0       0       0       0
 10470 ;;Total ram usage:        9 bytes
 10471 ;; Hardware stack levels used: 1
 10472 ;; This function calls:
 10473 ;;		Nothing
 10474 ;; This function is called by:
 10475 ;;		_isr
 10476 ;; This function uses a non-reentrant model
 10477 ;;
 10478                           
 10479     1CB5                     i1___awdiv:	
 10480                           ;psect for function i1___awdiv
 10481                           
 10482     1CB5                     i1l3499:	
 10483                           ;incstack = 0
 10484                           ; Regs used in i1___awdiv: [wreg+status,2+status,0]
 10485                           
 10486     1CB5  01F6               	clrf	i1___awdiv@sign
 10487     1CB6                     i1l3501:
 10488     1CB6  1FF1               	btfss	i1___awdiv@divisor+1,7
 10489     1CB7  2CB9               	goto	u595_21
 10490     1CB8  2CBA               	goto	u595_20
 10491     1CB9                     u595_21:
 10492     1CB9  2CC1               	goto	i1l3507
 10493     1CBA                     u595_20:
 10494     1CBA                     i1l3503:
 10495     1CBA  09F0               	comf	i1___awdiv@divisor,f
 10496     1CBB  09F1               	comf	i1___awdiv@divisor+1,f
 10497     1CBC  0AF0               	incf	i1___awdiv@divisor,f
 10498     1CBD  1903               	skipnz
 10499     1CBE  0AF1               	incf	i1___awdiv@divisor+1,f
 10500     1CBF                     i1l3505:
 10501     1CBF  01F6               	clrf	i1___awdiv@sign
 10502     1CC0  0AF6               	incf	i1___awdiv@sign,f
 10503     1CC1                     i1l3507:
 10504     1CC1  1FF3               	btfss	i1___awdiv@dividend+1,7
 10505     1CC2  2CC4               	goto	u596_21
 10506     1CC3  2CC5               	goto	u596_20
 10507     1CC4                     u596_21:
 10508     1CC4  2CCE               	goto	i1l3513
 10509     1CC5                     u596_20:
 10510     1CC5                     i1l3509:
 10511     1CC5  09F2               	comf	i1___awdiv@dividend,f
 10512     1CC6  09F3               	comf	i1___awdiv@dividend+1,f
 10513     1CC7  0AF2               	incf	i1___awdiv@dividend,f
 10514     1CC8  1903               	skipnz
 10515     1CC9  0AF3               	incf	i1___awdiv@dividend+1,f
 10516     1CCA                     i1l3511:
 10517     1CCA  3001               	movlw	1
 10518     1CCB  00F4               	movwf	??i1___awdiv
 10519     1CCC  0874               	movf	??i1___awdiv,w
 10520     1CCD  06F6               	xorwf	i1___awdiv@sign,f
 10521     1CCE                     i1l3513:
 10522     1CCE  01F7               	clrf	i1___awdiv@quotient
 10523     1CCF  01F8               	clrf	i1___awdiv@quotient+1
 10524     1CD0                     i1l3515:
 10525     1CD0  0870               	movf	i1___awdiv@divisor,w
 10526     1CD1  0471               	iorwf	i1___awdiv@divisor+1,w
 10527     1CD2  1903               	btfsc	3,2
 10528     1CD3  2CD5               	goto	u597_21
 10529     1CD4  2CD6               	goto	u597_20
 10530     1CD5                     u597_21:
 10531     1CD5  2D0D               	goto	i1l3535
 10532     1CD6                     u597_20:
 10533     1CD6                     i1l3517:
 10534     1CD6  01F5               	clrf	i1___awdiv@counter
 10535     1CD7  0AF5               	incf	i1___awdiv@counter,f
 10536     1CD8  2CE4               	goto	i1l3523
 10537     1CD9                     i1l3519:
 10538     1CD9  3001               	movlw	1
 10539     1CDA                     u598_25:
 10540     1CDA  1003               	clrc
 10541     1CDB  0DF0               	rlf	i1___awdiv@divisor,f
 10542     1CDC  0DF1               	rlf	i1___awdiv@divisor+1,f
 10543     1CDD  3EFF               	addlw	-1
 10544     1CDE  1D03               	skipz
 10545     1CDF  2CDA               	goto	u598_25
 10546     1CE0                     i1l3521:
 10547     1CE0  3001               	movlw	1
 10548     1CE1  00F4               	movwf	??i1___awdiv
 10549     1CE2  0874               	movf	??i1___awdiv,w
 10550     1CE3  07F5               	addwf	i1___awdiv@counter,f
 10551     1CE4                     i1l3523:
 10552     1CE4  1FF1               	btfss	i1___awdiv@divisor+1,7
 10553     1CE5  2CE7               	goto	u599_21
 10554     1CE6  2CE8               	goto	u599_20
 10555     1CE7                     u599_21:
 10556     1CE7  2CD9               	goto	i1l3519
 10557     1CE8                     u599_20:
 10558     1CE8                     i1l3525:
 10559     1CE8  3001               	movlw	1
 10560     1CE9                     u600_25:
 10561     1CE9  1003               	clrc
 10562     1CEA  0DF7               	rlf	i1___awdiv@quotient,f
 10563     1CEB  0DF8               	rlf	i1___awdiv@quotient+1,f
 10564     1CEC  3EFF               	addlw	-1
 10565     1CED  1D03               	skipz
 10566     1CEE  2CE9               	goto	u600_25
 10567     1CEF  0871               	movf	i1___awdiv@divisor+1,w
 10568     1CF0  0273               	subwf	i1___awdiv@dividend+1,w
 10569     1CF1  1D03               	skipz
 10570     1CF2  2CF5               	goto	u601_25
 10571     1CF3  0870               	movf	i1___awdiv@divisor,w
 10572     1CF4  0272               	subwf	i1___awdiv@dividend,w
 10573     1CF5                     u601_25:
 10574     1CF5  1C03               	skipc
 10575     1CF6  2CF8               	goto	u601_21
 10576     1CF7  2CF9               	goto	u601_20
 10577     1CF8                     u601_21:
 10578     1CF8  2D00               	goto	i1l3531
 10579     1CF9                     u601_20:
 10580     1CF9                     i1l3527:
 10581     1CF9  0870               	movf	i1___awdiv@divisor,w
 10582     1CFA  02F2               	subwf	i1___awdiv@dividend,f
 10583     1CFB  0871               	movf	i1___awdiv@divisor+1,w
 10584     1CFC  1C03               	skipc
 10585     1CFD  03F3               	decf	i1___awdiv@dividend+1,f
 10586     1CFE  02F3               	subwf	i1___awdiv@dividend+1,f
 10587     1CFF                     i1l3529:
 10588     1CFF  1477               	bsf	i1___awdiv@quotient,0
 10589     1D00                     i1l3531:
 10590     1D00  3001               	movlw	1
 10591     1D01                     u602_25:
 10592     1D01  1003               	clrc
 10593     1D02  0CF1               	rrf	i1___awdiv@divisor+1,f
 10594     1D03  0CF0               	rrf	i1___awdiv@divisor,f
 10595     1D04  3EFF               	addlw	-1
 10596     1D05  1D03               	skipz
 10597     1D06  2D01               	goto	u602_25
 10598     1D07                     i1l3533:
 10599     1D07  3001               	movlw	1
 10600     1D08  02F5               	subwf	i1___awdiv@counter,f
 10601     1D09  1D03               	btfss	3,2
 10602     1D0A  2D0C               	goto	u603_21
 10603     1D0B  2D0D               	goto	u603_20
 10604     1D0C                     u603_21:
 10605     1D0C  2CE8               	goto	i1l3525
 10606     1D0D                     u603_20:
 10607     1D0D                     i1l3535:
 10608     1D0D  0876               	movf	i1___awdiv@sign,w
 10609     1D0E  1903               	btfsc	3,2
 10610     1D0F  2D11               	goto	u604_21
 10611     1D10  2D12               	goto	u604_20
 10612     1D11                     u604_21:
 10613     1D11  2D17               	goto	i1l3539
 10614     1D12                     u604_20:
 10615     1D12                     i1l3537:
 10616     1D12  09F7               	comf	i1___awdiv@quotient,f
 10617     1D13  09F8               	comf	i1___awdiv@quotient+1,f
 10618     1D14  0AF7               	incf	i1___awdiv@quotient,f
 10619     1D15  1903               	skipnz
 10620     1D16  0AF8               	incf	i1___awdiv@quotient+1,f
 10621     1D17                     i1l3539:
 10622     1D17  0878               	movf	i1___awdiv@quotient+1,w
 10623     1D18  00F1               	movwf	?i1___awdiv+1
 10624     1D19  0877               	movf	i1___awdiv@quotient,w
 10625     1D1A  00F0               	movwf	?i1___awdiv
 10626     1D1B                     i1l452:
 10627     1D1B  0008               	return
 10628     1D1C                     __end_ofi1___awdiv:
 10629     007E                     btemp	set	126	;btemp
 10630     007E                     wtemp0	set	126
 10631                           
 10632                           	psect	idloc
 10633                           
 10634                           ;Config register IDLOC0 @ 0x2000
 10635                           ;	unspecified, using default values
 10636     2000                     	org	8192
 10637     2000  3FFF               	dw	16383
 10638                           
 10639                           ;Config register IDLOC1 @ 0x2001
 10640                           ;	unspecified, using default values
 10641     2001                     	org	8193
 10642     2001  3FFF               	dw	16383
 10643                           
 10644                           ;Config register IDLOC2 @ 0x2002
 10645                           ;	unspecified, using default values
 10646     2002                     	org	8194
 10647     2002  3FFF               	dw	16383
 10648                           
 10649                           ;Config register IDLOC3 @ 0x2003
 10650                           ;	unspecified, using default values
 10651     2003                     	org	8195
 10652     2003  3FFF               	dw	16383
 10653                           
 10654                           	psect	config
 10655                           
 10656                           ;Config register CONFIG1 @ 0x2007
 10657                           ;	Oscillator Selection bits
 10658                           ;	FOSC = INTRC_CLKOUT, INTOSC oscillator: CLKOUT function on RA6/OSC2/CLKOUT pin, I/O fu
      +                          nction on RA7/OSC1/CLKIN
 10659                           ;	Watchdog Timer Enable bit
 10660                           ;	WDTE = OFF, WDT disabled and can be enabled by SWDTEN bit of the WDTCON register
 10661                           ;	Power-up Timer Enable bit
 10662                           ;	PWRTE = OFF, PWRT disabled
 10663                           ;	RE3/MCLR pin function select bit
 10664                           ;	MCLRE = OFF, RE3/MCLR pin function is digital input, MCLR internally tied to VDD
 10665                           ;	Code Protection bit
 10666                           ;	CP = OFF, Program memory code protection is disabled
 10667                           ;	Data Code Protection bit
 10668                           ;	CPD = OFF, Data memory code protection is disabled
 10669                           ;	Brown Out Reset Selection bits
 10670                           ;	BOREN = OFF, BOR disabled
 10671                           ;	Internal External Switchover bit
 10672                           ;	IESO = OFF, Internal/External Switchover mode is disabled
 10673                           ;	Fail-Safe Clock Monitor Enabled bit
 10674                           ;	FCMEN = OFF, Fail-Safe Clock Monitor is disabled
 10675                           ;	Low Voltage Programming Enable bit
 10676                           ;	LVP = OFF, RB3 pin has digital I/O, HV on MCLR must be used for programming
 10677                           ;	In-Circuit Debugger Mode bit
 10678                           ;	DEBUG = 0x1, unprogrammed default
 10679     2007                     	org	8199
 10680     2007  20D5               	dw	8405
 10681                           
 10682                           ;Config register CONFIG2 @ 0x2008
 10683                           ;	Brown-out Reset Selection bit
 10684                           ;	BOR4V = BOR40V, Brown-out Reset set to 4.0V
 10685                           ;	Flash Program Memory Self Write Enable bits
 10686                           ;	WRT = OFF, Write protection off
 10687     2008                     	org	8200
 10688     2008  3FFF               	dw	16383

Data Sizes:
    Strings     9
    Constant    144
    Data        0
    BSS         12
    Persistent  0
    Stack       0

Auto Spaces:
    Space          Size  Autos    Used
    COMMON           14     14      14
    BANK0            80     68      74
    BANK1            80     66      66
    BANK3            96     24      30
    BANK2            96      0       0

Pointer List with Targets:

    sprintf@f	PTR const unsigned char  size(1) Largest target is 9
		 -> STR_1(CODE[9]), 

    sprintf@sp	PTR unsigned char  size(1) Largest target is 20
		 -> main@s(BANK3[20]), 

    sprintf@ap	PTR void [1] size(1) Largest target is 2
		 -> ?_sprintf(BANK1[2]), 


Critical Paths under _main in COMMON

    None.

Critical Paths under _isr in COMMON

    _isr->i1___xxtofl

Critical Paths under _main in BANK0

    _sprintf->_fround
    _scale->___flmul
    ___awdiv->___awmod
    _fround->___flmul
    ___lwdiv->___lwmod
    ___flmul->___awdiv
    ___fltol->_scale
    ___fladd->_fround
    ___fldiv->___flmul

Critical Paths under _isr in BANK0

    None.

Critical Paths under _main in BANK1

    _main->_sprintf
    _sprintf->___flsub
    ___flsub->___fladd

Critical Paths under _isr in BANK1

    None.

Critical Paths under _main in BANK3

    None.

Critical Paths under _isr in BANK3

    None.

Critical Paths under _main in BANK2

    None.

Critical Paths under _isr in BANK2

    None.

Call Graph Tables:

 ---------------------------------------------------------------------------------
 (Depth) Function   	        Calls       Base Space   Used Autos Params    Refs
 ---------------------------------------------------------------------------------
 (0) _main                                                31    31      0   40118
                                             63 BANK1      3     3      0
                                              0 BANK3     24    24      0
                            ___fldiv
                            ___flmul
                              _setup
                            _sprintf
 ---------------------------------------------------------------------------------
 (1) _sprintf                                             42    37      5   33588
                                             28 BANK1     35    30      5
                            ___awdiv
                            ___fladd
                             ___fleq
                             ___flge
                            ___flmul
                            ___flneg
                            ___flsub
                            ___fltol
                            ___lldiv
                            ___llmod
                             ___wmul
                           ___xxtofl
                         __div_to_l_
                        __tdiv_to_l_
                             _fround
                              _scale
 ---------------------------------------------------------------------------------
 (2) _scale                                               19    15      4    7660
                                             48 BANK0     19    15      4
                            ___awdiv
                            ___awmod
                            ___flmul
 ---------------------------------------------------------------------------------
 (3) ___awmod                                              7     3      4    1208
                                              6 BANK0      7     3      4
 ---------------------------------------------------------------------------------
 (3) ___awdiv                                              9     5      4    1464
                                             13 BANK0      9     5      4
                            ___awmod (ARG)
 ---------------------------------------------------------------------------------
 (2) _fround                                              20    16      4    6023
                                             48 BANK0     20    16      4
                            ___flmul
                            ___lwdiv
                            ___lwmod
 ---------------------------------------------------------------------------------
 (3) ___lwmod                                              6     2      4     615
                                              6 BANK0      6     2      4
 ---------------------------------------------------------------------------------
 (3) ___lwdiv                                              8     4      4     618
                                             12 BANK0      8     4      4
                            ___lwmod (ARG)
 ---------------------------------------------------------------------------------
 (3) ___flmul                                             26    18      8    4545
                                             22 BANK0     26    18      8
                          __Umul8_16
                            ___awdiv (ARG)
                            ___awmod (ARG)
                            ___lwdiv (ARG)
                            ___lwmod (ARG)
 ---------------------------------------------------------------------------------
 (4) __Umul8_16                                            9     7      2     799
                                              6 BANK0      9     7      2
 ---------------------------------------------------------------------------------
 (2) __tdiv_to_l_                                         17     9      8     455
                                              6 BANK0     17     9      8
 ---------------------------------------------------------------------------------
 (2) __div_to_l_                                          15     7      8     455
                                              6 BANK0     15     7      8
 ---------------------------------------------------------------------------------
 (2) ___xxtofl                                            14    10      4     448
                                              6 BANK0     14    10      4
 ---------------------------------------------------------------------------------
 (2) ___wmul                                               6     2      4     244
                                              6 BANK0      6     2      4
 ---------------------------------------------------------------------------------
 (2) ___llmod                                             10     2      8     615
                                              6 BANK0     10     2      8
 ---------------------------------------------------------------------------------
 (2) ___lldiv                                             14     6      8     466
                                              6 BANK0     14     6      8
 ---------------------------------------------------------------------------------
 (2) ___fltol                                             10     6      4     607
                                              0 BANK1     10     6      4
                            ___flmul (ARG)
                              _scale (ARG)
 ---------------------------------------------------------------------------------
 (2) ___flsub                                              8     0      8    3547
                                             20 BANK1      8     0      8
                            ___fladd
                           ___xxtofl (ARG)
 ---------------------------------------------------------------------------------
 (3) ___fladd                                             20    12      8    3302
                                              0 BANK1     20    12      8
                             _fround (ARG)
 ---------------------------------------------------------------------------------
 (2) ___flneg                                              4     0      4     121
                                              6 BANK0      4     0      4
 ---------------------------------------------------------------------------------
 (2) ___flge                                              12     4      8     790
                                              6 BANK0     12     4      8
 ---------------------------------------------------------------------------------
 (2) ___fleq                                              12     4      8     394
                                              6 BANK0     12     4      8
 ---------------------------------------------------------------------------------
 (1) _setup                                                1     1      0       0
                                              6 BANK0      1     1      0
 ---------------------------------------------------------------------------------
 (1) ___fldiv                                             26    18      8    1863
                                             48 BANK0     13     5      8
                                              0 BANK1     13    13      0
                            ___flmul (ARG)
 ---------------------------------------------------------------------------------
 Estimated maximum stack depth 4
 ---------------------------------------------------------------------------------
 (Depth) Function   	        Calls       Base Space   Used Autos Params    Refs
 ---------------------------------------------------------------------------------
 (5) _isr                                                  6     6      0     700
                                              0 BANK0      6     6      0
                          i1___awdiv
                         i1___xxtofl
 ---------------------------------------------------------------------------------
 (6) i1___xxtofl                                          14    10      4     348
                                              0 COMMON    14    10      4
 ---------------------------------------------------------------------------------
 (6) i1___awdiv                                            9     5      4     352
                                              0 COMMON     9     5      4
 ---------------------------------------------------------------------------------
 Estimated maximum stack depth 6
 ---------------------------------------------------------------------------------

 Call Graph Graphs:

 _main (ROOT)
   ___fldiv
     ___flmul (ARG)
       __Umul8_16
       ___awdiv (ARG)
         ___awmod (ARG)
       ___awmod (ARG)
       ___lwdiv (ARG)
         ___lwmod (ARG)
       ___lwmod (ARG)
   ___flmul
   _setup
   _sprintf
     ___awdiv
     ___fladd
       _fround (ARG)
         ___flmul
         ___lwdiv
         ___lwmod
     ___fleq
     ___flge
     ___flmul
     ___flneg
     ___flsub
       ___fladd
       ___xxtofl (ARG)
     ___fltol
       ___flmul (ARG)
       _scale (ARG)
         ___awdiv
         ___awmod
         ___flmul
     ___lldiv
     ___llmod
     ___wmul
     ___xxtofl
     __div_to_l_
     __tdiv_to_l_
     _fround
     _scale

 _isr (ROOT)
   i1___awdiv
   i1___xxtofl

 Address spaces:
Name               Size   Autos  Total    Cost      Usage
BITCOMMON            E      0       0       0        0.0%
EEDATA             100      0       0       0        0.0%
NULL                 0      0       0       0        0.0%
CODE                 0      0       0       0        0.0%
COMMON               E      E       E       1      100.0%
BITSFR0              0      0       0       1        0.0%
SFR0                 0      0       0       1        0.0%
BITSFR1              0      0       0       2        0.0%
SFR1                 0      0       0       2        0.0%
STACK                0      0       0       2        0.0%
ABS                  0      0      B8       3        0.0%
BITBANK0            50      0       0       4        0.0%
BITSFR3              0      0       0       4        0.0%
SFR3                 0      0       0       4        0.0%
BANK0               50     44      4A       5       92.5%
BITSFR2              0      0       0       5        0.0%
SFR2                 0      0       0       5        0.0%
BITBANK1            50      0       0       6        0.0%
BANK1               50     42      42       7       82.5%
BITBANK3            60      0       0       8        0.0%
BANK3               60     18      1E       9       31.2%
BITBANK2            60      0       0      10        0.0%
BANK2               60      0       0      11        0.0%
DATA                 0      0      B8      12        0.0%


Microchip Technology PIC Macro Assembler V2.40 build 20220703182018 
Symbol Table                                                                                   Tue Jul 25 10:33:49 2023

           ___fldiv@aexp 00AC             ___fldiv@bexp 00AB                        _i 01AC  
                      pc 0002             ___fldiv@sign 00A4             ___awdiv@sign 0033  
                     fsr 0004      ___wmul@multiplicand 0028      __Umul8_16@word_mpld 002C  
             i1___xxtofl 1F48                      l132 1B62                      l301 1B01  
                    l232 1315                      l253 003E                      l502 089D  
                    l335 1D83                      l239 0FFF                      l512 089D  
                    l520 1F0A                      l516 1F47                      l452 1DEC  
                    l509 0888                      l517 1EBB                      l605 1050  
                    l285 0511                      l630 13F4                      l470 106F  
                    l278 04D3                      l527 1F3A                      l615 1B9E  
                    l295 06E4                      l704 17DB                      l632 13CD  
                    l480 10FB                      l473 10CB                      l465 1C4F  
                    l706 17ED                      l490 1E0B                      l626 1371  
                    l722 0C9C                      l651 14E1                      l555 1BF4  
                    l299 1AE9                      l660 1541                      l485 07CD  
                    l493 1E77                      l469 1108                      l741 1B18  
                    l486 07E9                      l494 1E90                      l734 0C90  
                    l487 07FE                      l647 14BD                      l639 156D  
                    l743 1B2A                      l672 0825                      l728 0C0C  
                    l657 1503                      l682 15E6                      l498 1ADA  
                    l684 17FF                      l668 1563                      l780 092D  
                    l772 0905                      l669 156D                      l766 08C2  
                    l768 0957                      l698 175B                      l779 0921  
                    _RD3 0043                      _RD4 0044                      _RD5 0045  
                    _RD6 0046                      _RD7 0047                      _isr 1C50  
                    _val 0064                      fsr0 0004                      indf 0000  
           ___awmod@sign 002C             ___flmul@aexp 0048             ___flmul@bexp 0049  
           ___flmul@sign 0043             ___flmul@temp 004E             ___flmul@prod 004A  
           ___fltol@exp1 00A9                     l3001 1DED                     l3011 1E4F  
                   l3003 1E03                     l3013 1E53                     l3005 1E1F  
                   l3021 1ACE                     l3015 1E8D                     l3007 1E27  
                   l3023 1AD8                     l3111 08EE                     l3103 08D3  
                   l2311 1B05                     l3017 1E8F                     l3009 1E2B  
                   l3025 1ADA                     l3121 0925                     l3113 08FC  
                   l3105 08D6                     l2321 1B26                     l2313 1B07  
                   l2401 1C46                     l4001 0425                     l3131 094F  
                   l3123 092F                     l3115 090C                     l3107 08E3  
                   l2315 1B0E                     l2411 1015                     l2331 1D90  
                   l2403 1C4B                     l4011 04DB                     l4003 042A  
                   l4101 15C9                     l3141 1B34                     l3125 0945  
                   l3117 0917                     l3109 08EA                     l2317 1B12  
                   l2421 1038                     l2413 1018                     l2341 1DA1  
                   l2333 1D92                     l2325 1D84                     l4021 0508  
                   l4013 04E2                     l4005 042F                     l4111 15EE  
                   l4103 15CE                     l3151 1B3C                     l3143 1B36  
                   l3135 1B2B                     l3071 1BB9                     l3127 094A  
                   l3119 091B                     l2319 1B21                     l2423 103E  
                   l2415 101F                     l2407 100B                     l2351 1DB9  
                   l2343 1DA7                     l2335 1D96                     l2327 1D87  
                   l4031 0528                     l4023 050D                     l4015 04E6  
                   l4007 048A                     l4201 17D8                     l4121 1612  
                   l4113 15FA                     l4105 15D8                     l3161 1B46  
                   l3153 1B3F                     l3145 1B37                     l3137 1B2F  
                   l3073 1BBD                     l3081 1BEC                     l3065 1B9F  
                   l3129 094E                     l2425 103F                     l2417 1023  
                   l2409 100F                     l2441 1B79                     l2433 1B63  
                   l2353 1DCA                     l2345 1DAA                     l2361 1DDE  
                   l2337 1D9B                     l2329 1D8B                     l4041 0645  
                   l4033 0546                     l4025 051A                     l4017 04EC  
                   l4009 04C9                     l4203 17DF                     l4131 165D  
                   l4115 1602                     l4107 15DA                     l3171 1B51  
                   l3163 1B47                     l3155 1B40                     l3147 1B38  
                   l3139 1B30                     l3075 1BCF                     l3067 1BA9  
                   l3091 08A1                     l2427 1046                     l2419 1027  
                   l2443 1B7D                     l2435 1B6B                     l2451 1B9A  
                   l2363 1DE3                     l2355 1DD0                     l2347 1DB1  
                   l2339 1D9F                     l2371 1BF8                     l4051 06B7  
                   l4035 05A1                     l4043 06A0                     l4027 051F  
                   l4019 04F9                     l4205 17E3                     l4141 168C  
                   l4133 1667                     l4125 161D                     l4109 15DC  
                   l3181 1B60                     l3173 1B58                     l3165 1B48  
                   l3157 1B44                     l3149 1B39                     l3077 1BDD  
                   l3069 1BAC                     l3093 08A6                     l2701 0A11  
                   l2429 104C                     l2445 1B87                     l2437 1B6E  
                   l2365 1DE8                     l2357 1DD1                     l2349 1DB5  
                   l2381 1C0C                     l2373 1BFC                     l4045 06A8  
                   l4037 05FC                     l4029 0524                     l4053 06BE  
                   l4061 06E0                     l4221 06F7                     l4213 06E5  
                   l4207 17E7                     l4151 16E7                     l4143 168F  
                   l4135 1669                     l4127 163B                     l4119 160B  
                   l4071 156E                     l3183 1B61                     l3175 1B5B  
                   l3167 1B4E                     l3159 1B45                     l3079 1BE6  
                   l3095 08AA                     l2711 0A8A                     l2703 0A3B  
                   l2447 1B8D                     l2439 1B75                     l2359 1DD8  
                   l2391 1C24                     l2383 1C12                     l2375 1C01  
                   l4055 06CA                     l4047 06AD                     l4039 063B  
                   l4231 070F                     l4215 06EA                     l4161 1708  
                   l4137 166E                     l4145 169D                     l4153 16EF  
                   l4129 1653                     l4081 158D                     l4073 1575  
                   l3177 1B5E                     l3169 1B50                     l3097 08BA  
                   l2721 0B06                     l2713 0AA7                     l2705 0A57  
                   l2449 1B94                     l2393 1C2E                     l2385 1C15  
                   l2377 1C03                     l2369 1BF5                     l4049 06B1  
                   l4241 079C                     l4233 0717                     l4217 06ED  
                   l4171 172D                     l4163 170E                     l4155 16F5  
                   l4147 16BE                     l4139 1686                     l4091 15AA  
                   l4083 1592                     l4075 157D                     l3179 1B5F  
                   l3099 08CA                     l2731 0BB8                     l2723 0B31  
                   l2715 0AB5                     l2707 0A73                     l2651 095D  
                   l2803 12D2                     l2395 1C34                     l2387 1C1C  
                   l2379 1C07                     l2811 0CA6                     l4059 06D0  
                   l4227 06FB                     l4235 0724                     l4219 06F1  
                   l4181 1760                     l4173 1730                     l4165 1711  
                   l4157 16FD                     l4149 16BF                     l4093 15B1  
                   l4085 159C                     l4077 1583                     l3701 1366  
                   l2901 105C                     l2741 0BDD                     l2733 0BC1  
                   l2725 0B3F                     l2717 0AD2                     l2709 0A7C  
                   l2661 0970                     l2653 0961                     l2397 1C3B  
                   l2389 1C20                     l2821 0D9E                     l2813 0CAD  
                   l4237 0724                     l4229 070E                     l4183 1767  
                   l4191 179C                     l4175 1734                     l4167 171F  
                   l4159 16FF                     l4095 15B9                     l4087 159E  
                   l4079 1586                     l3711 137F                     l3703 1367  
                   l2911 1070                     l2751 0BF5                     l2743 0BE6  
                   l2735 0BCF                     l2727 0B6A                     l2719 0AE9  
                   l2671 098B                     l2663 0978                     l2655 0965  
                   l2399 1C41                     l2831 0E5A                     l2807 0CA0  
                   l4239 077A                     l4193 17AB                     l4185 1777  
                   l4177 1756                     l4169 1727                     l4097 15BF  
                   l4089 15A0                     l3721 1389                     l3713 1381  
                   l3705 1369                     l2921 109B                     l2913 1078  
                   l2905 1065                     l2761 0C24                     l2753 0C09  
                   l2737 0BD8                     l2745 0BEC                     l2729 0B90  
                   l2681 09A2                     l2673 098F                     l2665 097A  
                   l2657 0966                     l2649 0958                     l2825 0E26  
                   l2809 0CA4                     l4273 0052                     l4195 17BB  
                   l4187 177B                     l4099 15C2                     l3811 14E8  
                   l3803 14D3                     l3731 1393                     l3723 138B  
                   l3715 1383                     l3707 1377                     l2931 10CF  
                   l2923 10AD                     l2915 1089                     l2771 0C5F  
                   l2763 0C28                     l2747 0BF0                     l2739 0BDC  
                   l2683 09A4                     l2675 0990                     l2667 0982  
                   l2659 096B                     l2843 0FD3                     l2819 0D97  
                   l4197 17CA                     l4189 1794                     l3821 14F6  
                   l3813 14EA                     l3805 14DC                     l3733 1395  
                   l3725 138D                     l3717 1385                     l3709 137B  
                   l3741 139D                     l2925 10BB                     l2917 108B  
                   l2861 1EC2                     l2853 1EAB                     l2781 0C8A  
                   l2773 0C6E                     l2765 0C41                     l2757 0C11  
                   l2749 0BF1                     l2693 09BF                     l2685 09AC  
                   l2677 0995                     l2669 0987                     l2837 0F44  
                   l2829 0E53                     l3901 002B                     l4199 17CE  
                   l3831 150D                     l3823 14FA                     l3815 14EF  
                   l3807 14E0                     l3751 13DA                     l3743 139E  
                   l3735 1397                     l3727 138F                     l3719 1387  
                   l3671 1324                     l3663 1316                     l2951 1ADB  
                   l2927 10BC                     l2919 1092                     l2871 1EF1  
                   l2863 1ED1                     l2847 1E91                     l2783 0C8B  
                   l2775 0C78                     l2759 0C16                     l2767 0C47  
                   l2695 09CD                     l2687 09B1                     l2679 099A  
                   l2791 1112                     l2839 0F4B                     l3911 0040  
                   l3903 0031                     l3841 154B                     l3833 151B  
                   l3825 1500                     l3809 14E5                     l3817 14F1  
                   l3761 13F8                     l3753 13DE                     l3745 13B5  
                   l3737 1399                     l3729 1391                     l3673 1329  
                   l3681 1339                     l3665 131B                     l2961 1AFD  
                   l2953 1ADF                     l2945 10F0                     l2937 10D7  
                   l2929 10C5                     l2873 1EFB                     l2865 1ED3  
                   l2849 1EA2                     l2785 0C94                     l2777 0C7A  
                   l2769 0C54                     l2697 09DA                     l2689 09B6  
                   l3921 007C                     l3913 005A                     l3905 0036  
                   l3851 155F                     l3843 1553                     l3835 151F  
                   l3771 1421                     l3819 14F5                     l3763 13FD  
                   l3755 13DF                     l3747 13D1                     l3739 139B  
                   l3691 134F                     l3683 1341                     l3675 132E  
                   l3667 131F                     l2971 1D3E                     l2955 1AE3  
                   l2947 1100                     l2939 10E9                     l2875 1EFC  
                   l2867 1EDA                     l2859 1EBC                     l2779 0C86  
                   l2699 09F5                     l3931 0107                     l3923 00A3  
                   l3915 0066                     l3907 003B                     l3853 1568  
                   l3845 1558                     l3837 153D                     l3829 1508  
                   l3781 1433                     l3773 1425                     l3757 13E8  
                   l3749 13D8                     l3693 1353                     l3685 1344  
                   l3677 1336                     l3669 1323                     l2981 1D6C  
                   l2973 1D42                     l2965 1D1C                     l2957 1AF0  
                   l2893 1F2F                     l2885 1F16                     l2877 1F04  
                   l2869 1EE3                     l2797 1221                     l2789 110C  
                   l3941 0162                     l3933 0112                     l3925 00D8  
                   l3917 006A                     l2991 07C5                     l3855 156C  
                   l3847 1559                     l3839 1546                     l3791 149B  
                   l3783 143C                     l3775 142C                     l3767 1406  
                   l3759 13EC                     l3695 1354                     l3687 134A  
                   l3679 1337                     l3871 0858                     l3863 083A  
                   l2983 1D75                     l2975 1D4B                     l2967 1D2E  
                   l2959 1AF7                     l2895 1F3F                     l2879 1F0E  
                   l2887 1F28                     l2799 1227                     l3951 0202  
                   l3943 0168                     l3935 0118                     l3927 00DC  
                   l3919 0078                     l2993 07E1                     l3849 155D  
                   l3793 14A0                     l3777 142E                     l3769 141D  
                   l3785 1441                     l3697 1359                     l3689 134B  
                   l3873 085C                     l3881 0876                     l3865 084D  
                   l3857 0826                     l2977 1D5D                     l2969 1D31  
                   l2985 1D7B                     l3961 0275                     l3953 022B  
                   l3945 0187                     l3937 013B                     l3929 00E0  
                   l2995 07FB                     l3787 1457                     l3795 14AF  
                   l3779 1432                     l3699 135E                     l3891 0892  
                   l3867 084E                     l3859 0831                     l2979 1D6B  
                   l2899 1051                     l3971 02F6                     l3963 029E  
                   l3947 01D2                     l3939 015E                     l3955 0233  
                   l2997 07FD                     l2989 07AF                     l3797 14C5  
                   l3789 1495                     l3893 0802                     l3869 0856  
                   l3973 02FE                     l3965 02B7                     l3981 0370  
                   l3957 0233                     l3949 01F9                     l3799 14CA  
                   l3895 0806                     l3887 087D                     l3879 0864  
                   l3983 0389                     l3975 031C                     l3967 02C4  
                   l3959 0268                     l3889 088D                     l3993 03D8  
                   l3985 03D4                     l3969 02ED                     l3987 03D6  
                   l3979 0367                     l3899 0028                     ?_isr 0070  
                   l3997 040F                     l3999 0419                     STR_1 1896  
                   u3200 1B26                     u4000 096B                     u3201 1B25  
                   u4001 096A                     u4010 0970                     u3210 1D8B  
                   u4011 096F                     u3211 1D8A                     u4020 098F  
                   u3300 1DE3                     u3220 1D96                     u4101 0A65  
                   u4021 098E                     u3301 1DE2                     u3221 1D95  
                   u4102 0A6C                     u4030 0995                     u3230 1DA7  
                   u3310 1BFC                     u4103 0A73                     u4031 0994  
                   u3231 1DA6                     u3311 1BFB                     u5000 07FB  
                   u4200 0B9E                     u4040 099A                     u3400 1015  
                   u3320 1C07                     u5001 07FA                     u4121 0A99  
                   u4041 0999                     u3401 1014                     u3321 1C06  
                   u5010 1E03                     u4122 0AA0                     u4050 09B1  
                   u3250 1DB9                     u3330 1C12                     u5011 1E02  
                   u4211 0BAA                     u4131 0AC4                     u4123 0AA7  
                   u4115 0A75                     u4051 09B0                     u3251 1DB8  
                   u3331 1C11                     u5020 1E1F                     u3180 1B12  
                   u4300 0C16                     u4212 0BB1                     u4132 0ACB  
                   u4060 09B6                     u3420 1027                     u3500 1B87  
                   u5005 07F7                     u5021 1E1E                     u3181 1B11  
                   u4301 0C15                     u4213 0BB8                     u4205 0B99  
                   u4133 0AD2                     u4061 09B5                     u3421 1026  
                   u3501 1B86                     u3245 1DAB                     u5030 1E2B  
                   u4310 0C28                     u3270 1DCA                     u3350 1C24  
                   u5031 1E2A                     u4311 0C27                     u4151 0AF8  
                   u4071 0A03                     u3415 1019                     u3271 1DC9  
                   u3351 1C23                     u4320 0C37                     u4240 0BDC  
                   u4152 0AFF                     u4072 0A0A                     u3440 1038  
                   u3520 1B9A                     u4400 1227                     u3360 1C2E  
                   u5041 1E3A                     u4241 0BDB                     u4225 0BBA  
                   u4161 0B23                     u4153 0B06                     u4145 0AD4  
                   u4081 0A1F                     u4073 0A11                     u3441 1037  
                   u3521 1B99                     u3505 1B83                     u4401 1226  
                   u3265 1DBA                     u3361 1C2D                     u3345 1C16  
                   u5050 1E53                     u5042 1E3B                     u5210 1BBD  
                   u4330 0C54                     u4162 0B2A                     u4082 0A26  
                   u3290 1DDE                     u5051 1E52                     u5043 1E40  
                   u5211 1BBC                     u3195 1B19                     u4331 0C53  
                   u4235 0BD1                     u4171 0B4E                     u4163 0B31  
                   u4091 0A49                     u4083 0A2D                     u3435 1028  
                   u3515 1B8E                     u3291 1DDD                     u3275 1DC6  
                   u5044 1E41                     u5220 1BCF                     u4340 0C6E  
                   u4260 0BF0                     u4180 0B76                     u4172 0B55  
                   u4092 0A50                     u3460 104C                     u3380 1C41  
                   u5061 1E62                     u5045 1E46                     u5221 1BCE  
                   u5205 1BAE                     u4341 0C6D                     u4325 0C32  
                   u4261 0BEF                     u4173 0B5C                     u4093 0A57  
                   u3461 104B                     u3445 1034                     u3285 1DD2  
                   u3381 1C40                     u3365 1C2A                     u5070 1E8D  
                   u5062 1E63                     u5046 1E47                     u5310 090B  
                   u4350 0C8A                     u4270 0BF5                     u3470 1B6B  
                   u3390 1C46                     u5071 1E8C                     u5063 1E68  
                   u5311 090A                     u4351 0C89                     u4335 0C50  
                   u4271 0BF4                     u4255 0BDF                     u4191 0B82  
                   u3455 1040                     u3471 1B6A                     u4415 1244  
                   u3391 1C45                     u3375 1C35                     u5064 1E69  
                   u5080 1AD8                     u5240 1BEC                     u4280 0C09  
                   u4192 0B89                     u4360 1112                     u4440 0CA4  
                   u7000 0508                     u5065 1E6E                     u5081 1AD7  
                   u5241 1BEB                     u5225 1BCB                     u5305 08FD  
                   u4345 0C6A                     u4281 0C08                     u4193 0B90  
                   u4185 0B71                     u4425 1291                     u4361 1111  
                   u4505 0DB1                     u4441 0CA3                     u7001 0507  
                   u5066 1E6F                     u5330 091B                     u5250 08A6  
                   u4610 1EA2                     u4290 0C10                     u3490 1B7D  
                   u4530 0E5A                     u4450 0CAD                     u7010 051F  
                   u5075 1E89                     u5235 1BDE                     u5331 091A  
                   u5251 08A5                     u4611 1EA1                     u4291 0C0F  
                   u3491 1B7C                     u4435 12DD                     u4531 0E59  
                   u4515 0DED                     u4451 0CAC                     u7011 051E  
                   u7100 1592                     u6300 1359                     u5340 0921  
                   u5260 08AA                     u4700 1F27                     u4620 1EBA  
                   u7101 1591                     u6301 1358                     u5341 0920  
                   u5325 0910                     u5261 08A9                     u4701 1F26  
                   u4621 1EB9                     u3485 1B6F                     u4605 0FD6  
                   u4525 0E29                     u7005 0504                     u7110 15BF  
                   u6310 135E                     u5190 1BA9                     u5350 0925  
                   u5270 08CA                     u4710 1F2E                     u7111 15BE  
                   u6311 135D                     u5191 1BA8                     u5351 0924  
                   u5271 08C9                     u4711 1F2D                     u4375 112F  
                   u7120 15C9                     u6400 13F4                     u6320 1377  
                   u5360 093A                     u4800 10CF                     u4640 1EF1  
                   u7040 06A7                     u7121 15C8                     u6401 13F3  
                   u6321 1376                     u4801 10CE                     u4641 1EF0  
                   u4385 118B                     u4545 0E7C                     u4465 0CCF  
                   u7041 06A6                     u7025 05A4                     u7210 16BE  
                   u7130 15CE                     u6410 13F8                     u6330 137B  
                   u6250 1323                     u5370 094A                     u5290 08E9  
                   u4810 10D6                     u4730 1F3F                     u4570 0F4B  
                   u4490 0D9E                     u7050 06BD                     u7211 16BD  
                   u7131 15CD                     u6411 13F7                     u6331 137A  
                   u6251 1322                     u5371 0949                     u5291 08E8  
                   u4811 10D5                     u4731 1F3E                     u4635 1EDC  
                   u4395 11E0                     u4571 0F4A                     u4555 0EB8  
                   u4491 0D9D                     u4475 0D0B                     u7051 06BC  
                   u7035 0648                     u7300 1756                     u7220 16E3  
                   u7140 15EE                     u6500 1482                     u6420 13FD  
                   u6340 13B5                     u6260 1329                     u4900 1AFD  
                   u5380 094E                     u4740 105C                     u4660 1F0A  
                   u7060 06CA                     u7301 1755                     u7205 1692  
                   u7141 15ED                     u6501 1483                     u6421 13FC  
                   u6341 13B4                     u6261 1328                     u4901 1AFC  
                   u5381 094D                     u5365 0935                     u5285 08DB  
                   u4741 105B                     u4725 1F31                     u4661 1F09  
                   u4645 1EED                     u4565 0F03                     u4485 0D56  
                   u7061 06C9                     u7310 175F                     u7230 16F5  
                   u7150 1612                     u6510 14A0                     u6502 1488  
                   u6350 13C0                     u6270 132E                     u4910 1D2E  
                   u4830 10E8                     u4750 106E                     u4670 1F0E  
                   u7070 06E0                     u7311 175E                     u7231 16F4  
                   u7215 16BA                     u7151 1611                     u6511 149F  
                   u6503 1489                     u6431 140F                     u6351 13BE  
                   u6271 132D                     u4911 1D2D                     u4831 10E7  
                   u4751 106D                     u4671 1F0D                     u4655 1EFD  
                   u7071 06DF                     u7320 1767                     u7240 16FD  
                   u7160 166E                     u7080 1583                     u6600 1500  
                   u6520 14C5                     u6440 1421                     u6432 1416  
                   u6360 13C1                     u6280 134A                     u4840 10EF  
                   u4680 1F15                     u7321 1766                     u7241 16FC  
                   u7225 16CC                     u7161 166D                     u7081 1582  
                   u6601 14FF                     u6521 14C4                     u6441 1420  
                   u6433 141D                     u6345 13B1                     u6281 1349  
                   u4841 10EE                     u4825 10D8                     u4681 1F14  
                   u4585 0F5E                     u7330 177B                     u7226 16CF  
                   u7090 158D                     u6610 1507                     u6530 14CA  
                   u6450 1425                     u6370 13D1                     u6290 1353  
                   u4930 1D42                     u4770 10AD                     u7331 177A  
                   u7227 16D6                     u7091 158C                     u6611 1506  
                   u6531 14C9                     u6451 1424                     u6371 13D0  
                   u6291 1352                     u4931 1D41                     u4771 10AC  
                   u4595 0F9A                     u7340 178A                     u7260 170E  
                   u7228 16D9                     u6700 156C                     u6620 150D  
                   u6460 1432                     u6380 13DE                     u4860 1100  
                   u7261 170D                     u7229 16E0                     u6701 156B  
                   u6621 150C                     u6461 1431                     u6381 13DD  
                   u4925 1D33                     u4861 10FF                     u4765 1094  
                   u7350 17AB                     u7190 168C                     u6630 151F  
                   u6550 14E0                     u6710 0831                     u4950 1D5D  
                   u4870 1AE3                     u4790 10CB                     u3990 0965  
                   u7351 17AA                     u7255 1701                     u7191 168B  
                   u7175 1672                     u6631 151E                     u6551 14DF  
                   u6711 0830                     u4951 1D5C                     u4871 1AE2  
                   u4855 10F2                     u4791 10CA                     u4775 10A9  
                   u4695 1F17                     u3991 0964                     u7407 07A4  
                   u7360 17CA                     u7280 172D                     u6640 152E  
                   u6560 14E5                     u6480 1457                     u6800 0892  
                   u6720 0848                     u7361 17C9                     u7345 1785  
                   u7281 172C                     u7185 167F                     u7417 1B55  
                   u6561 14E4                     u6545 14D5                     u6481 1456  
                   u6801 0891                     u4945 1D44                     u4785 10BE  
                   u7370 17E3                     u7290 1734                     u6650 153D  
                   u6570 14EF                     u6730 085C                     u4970 1D7B  
                   u6810 0031                     u7371 17E2                     u7355 17A7  
                   u7291 1733                     u7275 1714                     u6651 153C  
                   u6571 14EE                     u6491 146E                     u6483 1453  
                   u6475 1435                     u6395 13E1                     u6731 085B  
                   u4971 1D7A                     u4955 1D59                     u6811 0030  
                   u4980 07C5                     u6660 1546                     u6580 14F5  
                   u6492 146F                     u6740 0863                     u6900 02B7  
                   u6820 0066                     u7380 06F7                     u7365 17C6  
                   u4981 07C4                     u6661 1545                     u6645 1529  
                   u6581 14F4                     u6493 1474                     u6741 0862  
                   u6725 0843                     u4965 1D6D                     u4885 1AEA  
                   u6901 02B6                     u6821 0065                     u7381 06F6  
                   u4990 07E1                     u6670 154B                     u6590 14FA  
                   u6494 1475                     u6910 02C4                     u6830 00A3  
                   u7390 0724                     u4991 07E0                     u6671 154A  
                   u6591 14F9                     u6495 147A                     u4895 1AF1  
                   u6911 02C3                     u6831 00A2                     u7391 0723  
                   u6680 1558                     u6496 147B                     u6760 0875  
                   u6920 02ED                     u6840 0107                     u6681 1557  
                   u6761 0874                     u6921 02EC                     u6841 0106  
                   u6690 155D                     u6770 087C                     u6850 0162  
                   u6691 155C                     u6771 087B                     u6755 0865  
                   u6915 02C0                     u6851 0161                     u7395 0720  
                   u6940 040E                     u6860 01F9                     u6941 040D  
                   u6861 01F8                     u6790 088D                     u6950 0419  
                   u6870 022B                     u6791 088C                     u6951 0418  
                   u6935 03DB                     u6871 022A                     u6960 0425  
                   u6880 0275                     u6785 087F                     u6961 0424  
                   u6945 040A                     u6881 0274                     u6890 029E  
                   u6891 029D                     u6980 04DA                     u6981 04D9  
                   u6885 0271                     u6990 04F9                     u6991 04F8  
                   u6975 0432                     u6995 04F5                     _WPUB 0095  
                   _main 06E5                     btemp 007E                     start 000E  
        ___fldiv@new_exp 00A5             _sprintf$1038 00C6                    ??_isr 0020  
          ___fltol@sign1 00A8          __end_of___fladd 156E                    ?_main 0070  
         i1___awdiv@sign 0076          __end_of___fldiv 1800          __end_of___awdiv 1DED  
        __end_of___flneg 1ADB          __end_of___awmod 1C50          __end_of___flmul 0C9D  
        __end_of___flsub 0826          __end_of___fltol 089E                    _ANSEL 0188  
        __end_of___lldiv 1D84          ___awdiv@divisor 002D          __end_of___llmod 1BF5  
        __end_of___lwdiv 1051                    i1l118 1CAE          __end_of___lwmod 1B9F  
                  i1l452 1D1B                    i1l780 1FD5                    i1l772 1FAD  
                  i1l766 1F6A                    i1l768 1FFF                    i1l779 1FC9  
        ___awdiv@counter 0032                    _PORTD 0008                    _PORTE 0009  
                  _TRISA 0085                    _TRISB 0086                    _TRISC 0087  
                  _TRISD 0088                    _TRISE 0089          __end_of_dpowers 1896  
                  _scale 0C9D                    _setup 1B2B                    main@s 0190  
                  pclath 000A             main@varvolt2 01A4                    status 0003  
                  wtemp0 007E          __end_of_sprintf 06E5          __initialization 0011  
           __end_of_main 07AF                   ??_main 00DF              ?i1___xxtofl 0070  
       ___llmod@dividend 002A                   ?_scale 0050                   _ADRESH 001E  
       ___awdiv@dividend 002F                   ?_setup 0070                   _ANSELH 0189  
                 i1l3501 1CB6                   i1l3511 1CCA                   i1l3503 1CBA  
                 i1l3521 1CE0                   i1l3513 1CCE                   i1l3505 1CBF  
                 i1l3601 1CAB                   i1l3531 1D00                   i1l3523 1CE4  
                 i1l3515 1CD0                   i1l3507 1CC1                   i1l3533 1D07  
                 i1l3525 1CE8                   i1l3517 1CD6                   i1l3509 1CC5  
                 i1l3527 1CF9                   i1l3519 1CD9                   i1l3535 1D0D  
                 i1l3551 1F72                   i1l3543 1F49                   i1l3537 1D12  
                 i1l3529 1CFF                   i1l3561 1F92                   i1l3545 1F4E  
                 i1l3539 1D17                   i1l3571 1FC3                   i1l3563 1F96  
                 i1l3555 1F7B                   i1l3547 1F52                   i1l3581 1FF6  
                 i1l3573 1FCD                   i1l3565 1FA4                   i1l3557 1F7E  
                 i1l3549 1F62                   i1l3583 1FF7                   i1l3575 1FD7  
                 i1l3567 1FB4                   i1l3559 1F8B                   i1l3591 1C5D  
                 i1l3577 1FED                   i1l3569 1FBF                   i1l3593 1C74  
                 i1l3499 1CB5                   i1l3579 1FF2                   i1l3595 1C7D  
                 i1l3587 1C50                   i1l3597 1C9B                   i1l3589 1C54  
                 i1l3599 1CA4                   u600_25 1CE9                   u601_20 1CF9  
                 u601_21 1CF8                   u601_25 1CF5                   u602_25 1D01  
                 u610_25 1FA5                   u603_20 1D0D                   u611_20 1FB3  
                 u603_21 1D0C                   u611_21 1FB2                   u604_20 1D12  
                 u620_20 1C5D                   u604_21 1D11                   u620_21 1C5C  
                 u612_25 1FB8                   u613_20 1FC3                   u605_20 1F4E  
                 u621_20 1C7D                   u613_21 1FC2                   u605_21 1F4D  
                 u621_21 1C7C                   u614_20 1FC9                   u606_20 1F52  
                 u622_20 1CA4                   u614_21 1FC8                   u606_21 1F51  
                 u622_21 1CA3                   u615_20 1FCD                   u607_20 1F72  
                 u615_21 1FCC                   u607_21 1F71                   u616_20 1FE2  
                 u616_25 1FDD                   u608_25 1F83                   u617_20 1FF2  
                 u609_20 1F91                   u617_21 1FF1                   u609_21 1F90  
                 u618_20 1FF6                   u618_21 1FF5                   u619_20 1C54  
                 u619_21 1C53                   u595_20 1CBA                   u595_21 1CB9  
                 u596_20 1CC5                   u596_21 1CC4                   u597_20 1CD6  
                 u597_21 1CD5                   u598_25 1CDA                   u599_20 1CE8  
                 u599_21 1CE7         __end_of___xxtofl 0958         __end_of__powers_ 183A  
                 ___flge 1DED                   ___fleq 07AF                ??___fladd 00A8  
                 ___wmul 1ADB                ??___fldiv 0058                ??___awdiv 0031  
              ??___flneg 002A                ??___awmod 002A                ??___flmul 003E  
              ??___flsub 0064                ??___fltol 00A4                ??___lldiv 002E  
              ??___llmod 002E                ??___lwdiv 0030                ??___lwmod 002A  
                 _fround 1109         ___awdiv@quotient 0034          ___awmod@divisor 0026  
        ___awmod@counter 002B        __end_ofi1___awdiv 1D1C                   saved_w 007E  
              ??_sprintf 00C1               ___flge@ff1 0026               ___flge@ff2 002A  
           ___xxtofl@arg 0030             ___xxtofl@exp 002F             ___xxtofl@val 0026  
             ___fleq@ff1 0026               ___fleq@ff2 002A  __end_of__initialization 0021  
             ___flneg@f1 0026               ___fltol@f1 00A0           __pcstackCOMMON 0070  
          __end_of_scale 1000            __end_of_setup 1B63               __div_to_l_ 1051  
         _OPTION_REGbits 0081          __div_to_l_@exp1 0034          __div_to_l_@cntr 0033  
                ??_scale 0054          __div_to_l_@quot 002F                  ??_setup 0026  
             __pbssBANK0 0064               __pbssBANK3 01A8           i1___xxtofl@arg 007A  
         i1___xxtofl@exp 0079           i1___xxtofl@val 0070            __div_to_l_@f1 0026  
          __div_to_l_@f2 002A        __end_of__Umul8_16 1B2B               __pmaintext 06E5  
                ?___flge 0026                  ?___fleq 0026                  ?___wmul 0026  
             __pintentry 0004                  ?_fround 0050       i1___awdiv@dividend 0072  
              ?___xxtofl 0026               __stringtab 1800        __end_of__npowers_ 186E  
             _scale$1037 005E       i1___awdiv@quotient 0077                  ___fladd 1316  
                ___fldiv 156E                  ___awdiv 1D84                  ___flneg 1ACE  
                ___awmod 1BF5                  ___flmul 0958                  ___flsub 0802  
                ___fltol 0826                  ___lldiv 1D1C                  ___llmod 1B9F  
                ___lwdiv 100B                  ___lwmod 1B63             ??i1___xxtofl 0074  
                __ptext1 0025                  __ptext2 0C9D                  __ptext3 1BF5  
                __ptext4 1D84                  __ptext5 1109                  __ptext6 1B63  
                __ptext7 100B                  __ptext8 0958                  __ptext9 1B02  
            ?__div_to_l_ 0026                  _dpowers 186E               ??___xxtofl 002A  
       ___awmod@dividend 0028                  _valpot0 0068                  _valpot1 0066  
                _varvolt 01A8                  _sprintf 0025     end_of_initialization 0021  
        ___lldiv@divisor 0026       __end_ofi1___xxtofl 2000          ___lldiv@counter 0033  
         __tdiv_to_l_@f1 0026           __tdiv_to_l_@f2 002A            ??__tdiv_to_l_ 002E  
              _PORTDbits 0008              ___fladd@grs 00B3            ___xxtofl@sign 002E  
              i1___awdiv 1CB5              ___fldiv@grs 00A7              ___fldiv@rem 00A0  
            ___flmul@grs 0044           __end_of___flge 1E91           __end_of___fleq 07FF  
         __end_of___wmul 1B02           __end_of_fround 1316      start_initialization 0011  
    __end_of__tdiv_to_l_ 1F48              __end_of_isr 1CB5               ?i1___awdiv 0070  
        ___llmod@divisor 0026          ___llmod@counter 002F                 ??___flge 002E  
               ??___fleq 002E                 ??___wmul 002A                __Umul8_16 1B02  
               ??_fround 0054            sprintf@tmpval 00D6                ___fladd@a 00A4  
              ___fladd@b 00A0               fround@prec 0063                ___fldiv@a 0050  
              ___fldiv@b 0054                ___flmul@a 003A                ___flmul@b 0036  
              ___flsub@a 00B4                ___flsub@b 00B8                ___latbits 0002  
          __pcstackBANK0 0020            __pcstackBANK1 00A0            __pcstackBANK3 0190  
        i1___xxtofl@sign 0078              sprintf@flag 00CB              sprintf@eexp 00D3  
            sprintf@fval 00DA              sprintf@prec 00CD         ___lwdiv@dividend 002E  
               ?___fladd 00A0                 ?___fldiv 0050                 ?___awdiv 002D  
               ?___flneg 0026                 ?___awmod 0026                 ?___flmul 0036  
               ?___flsub 00B4                 ?___fltol 00A0                 ?___lldiv 0026  
               ?___llmod 0026                __npowers_ 183A               ?__Umul8_16 0026  
               ?___lwdiv 002C                 ?___lwmod 0026        i1___awdiv@divisor 0070  
      i1___awdiv@counter 0075                __pstrings 1800              __tdiv_to_l_ 1E91  
           ??__div_to_l_ 002E              ??i1___awdiv 0074         ___lwdiv@quotient 0031  
               ?_sprintf 00BC        interrupt_function 0004           ___wmul@product 002A  
               _PIE1bits 008C                 _PIR1bits 000C       __end_of__div_to_l_ 1109  
             _ADCON0bits 001F              __stringbase 1805               _ADCON1bits 009F  
      ___wmul@multiplier 0026              ??__Umul8_16 0028              _fround$1035 005F  
            _fround$1036 005B       __end_of__stringtab 1806               sprintf@val 00CF  
               ___xxtofl 089E          ___lwdiv@divisor 002C          ___lwdiv@counter 0033  
               __ptext10 1E91                 __ptext11 1051                 __ptext20 1DED  
               __ptext12 089E                 __ptext21 07AF                 __ptext13 1ADB  
               __ptext22 1B2B                 __ptext14 1B9F                 __ptext23 156E  
               __ptext15 1D1C                 __ptext24 1C50                 __ptext16 0826  
               __ptext25 1F48                 __ptext17 0802                 __ptext26 1CB5  
               __ptext18 1316                 __ptext19 1ACE                 __powers_ 1806  
             _INTCONbits 000B                 scale@scl 0062                 intlevel1 0000  
              sprintf@ap 00CA         __tdiv_to_l_@exp1 0036         __tdiv_to_l_@cntr 0035  
              sprintf@sp 00D5         __tdiv_to_l_@quot 0031         ___lwmod@dividend 0028  
       ___lldiv@dividend 002A                stringcode 1800               _OSCCONbits 008F  
           ?__tdiv_to_l_ 0026   __Umul8_16@multiplicand 0026                 sprintf@c 00DE  
               sprintf@f 00BC         ___lldiv@quotient 002F          ___lwmod@divisor 0026  
        ___lwmod@counter 002B                 stringdir 1800                 stringtab 1800  
          ___fladd@signs 00B0             ___fladd@aexp 00B1             ___fladd@bexp 00B2  
   __Umul8_16@multiplier 002E        __Umul8_16@product 002A  
