

Microchip MPLAB XC8 Assembler V2.40 build 20220703182018 
                                                                                               Tue Jul 18 13:49:26 2023

Microchip MPLAB XC8 C Compiler v2.40 (Free license) build 20220703182018 Og1 
     1                           	processor	16F887
     2                           	pagewidth 120
     3                           	opt	flic
     4                           	psect	cinit,global,class=CODE,merge=1,delta=2
     5                           	psect	bssCOMMON,global,class=COMMON,space=1,delta=1,noexec
     6                           	psect	cstackCOMMON,global,class=COMMON,space=1,delta=1,noexec
     7                           	psect	cstackBANK0,global,class=BANK0,space=1,delta=1,noexec
     8                           	psect	maintext,global,class=CODE,split=1,delta=2
     9                           	psect	text1,local,class=CODE,merge=1,delta=2
    10                           	psect	text2,local,class=CODE,merge=1,delta=2
    11                           	psect	text3,local,class=CODE,merge=1,delta=2
    12                           	psect	text4,local,class=CODE,merge=1,delta=2
    13                           	psect	text5,local,class=CODE,merge=1,delta=2
    14                           	psect	text6,local,class=CODE,merge=1,delta=2
    15                           	psect	text7,local,class=CODE,merge=1,delta=2
    16                           	psect	text8,local,class=CODE,merge=1,delta=2
    17                           	psect	intentry,global,class=CODE,delta=2
    18                           	psect	idloc,global,abs,ovrld,class=IDLOC,space=5,delta=2,noexec
    19                           	psect	config,global,abs,ovrld,class=CONFIG,space=4,delta=2,noexec
    20                           	dabs	1,0x7E,2
    21     0000                     
    22                           ; Version 2.40
    23                           ; Generated 17/11/2021 GMT
    24                           ; 
    25                           ; Copyright © 2021, Microchip Technology Inc. and its subsidiaries ("Microchip")
    26                           ; All rights reserved.
    27                           ; 
    28                           ; This software is developed by Microchip Technology Inc. and its subsidiaries ("Microch
      +                          ip").
    29                           ; 
    30                           ; Redistribution and use in source and binary forms, with or without modification, are
    31                           ; permitted provided that the following conditions are met:
    32                           ; 
    33                           ;     1. Redistributions of source code must retain the above copyright notice, this lis
      +                          t of
    34                           ;        conditions and the following disclaimer.
    35                           ; 
    36                           ;     2. Redistributions in binary form must reproduce the above copyright notice, this 
      +                          list
    37                           ;        of conditions and the following disclaimer in the documentation and/or other
    38                           ;        materials provided with the distribution. Publication is not required when
    39                           ;        this file is used in an embedded application.
    40                           ; 
    41                           ;     3. Microchip's name may not be used to endorse or promote products derived from th
      +                          is
    42                           ;        software without specific prior written permission.
    43                           ; 
    44                           ; THIS SOFTWARE IS PROVIDED BY MICROCHIP "AS IS" AND ANY EXPRESS OR IMPLIED WARRANTIES,
    45                           ; INCLUDING, BUT NOT LIMITED TO, THE IMPLIED WARRANTIES OF MERCHANTABILITY AND FITNESS F
      +                          OR
    46                           ; PURPOSE ARE DISCLAIMED.  IN NO EVENT SHALL MICROCHIP BE LIABLE FOR ANY DIRECT, INDIREC
      +                          T,
    47                           ; INCIDENTAL, SPECIAL, EXEMPLARY, OR CONSEQUENTIAL DAMAGES (INCLUDING BUT NOT LIMITED TO
    48                           ; PROCUREMENT OF SUBSTITUTE GOODS OR SERVICES; LOSS OF USE, DATA OR PROFITS; OR BUSINESS
    49                           ; INTERRUPTION) HOWSOEVER CAUSED AND ON ANY THEORY OF LIABILITY, WHETHER IN CONTRACT, ST
      +                          RICT
    50                           ; LIABILITY, OR TORT (INCLUDING NEGLIGENCE OR OTHERWISE) ARISING IN ANY WAY OUT OF THE U
      +                          SE OF
    51                           ; THIS SOFTWARE, EVEN IF ADVISED OF THE POSSIBILITY OF SUCH DAMAGE.
    52                           ; 
    53                           ; 
    54                           ; Code-generator required, PIC16F887 Definitions
    55                           ; 
    56                           ; SFR Addresses
    57     0000                     	;# 
    58     0001                     	;# 
    59     0002                     	;# 
    60     0003                     	;# 
    61     0004                     	;# 
    62     0005                     	;# 
    63     0006                     	;# 
    64     0007                     	;# 
    65     0008                     	;# 
    66     0009                     	;# 
    67     000A                     	;# 
    68     000B                     	;# 
    69     000C                     	;# 
    70     000D                     	;# 
    71     000E                     	;# 
    72     000E                     	;# 
    73     000F                     	;# 
    74     0010                     	;# 
    75     0011                     	;# 
    76     0012                     	;# 
    77     0013                     	;# 
    78     0014                     	;# 
    79     0015                     	;# 
    80     0015                     	;# 
    81     0016                     	;# 
    82     0017                     	;# 
    83     0018                     	;# 
    84     0019                     	;# 
    85     001A                     	;# 
    86     001B                     	;# 
    87     001B                     	;# 
    88     001C                     	;# 
    89     001D                     	;# 
    90     001E                     	;# 
    91     001F                     	;# 
    92     0081                     	;# 
    93     0085                     	;# 
    94     0086                     	;# 
    95     0087                     	;# 
    96     0088                     	;# 
    97     0089                     	;# 
    98     008C                     	;# 
    99     008D                     	;# 
   100     008E                     	;# 
   101     008F                     	;# 
   102     0090                     	;# 
   103     0091                     	;# 
   104     0092                     	;# 
   105     0093                     	;# 
   106     0093                     	;# 
   107     0093                     	;# 
   108     0094                     	;# 
   109     0095                     	;# 
   110     0096                     	;# 
   111     0097                     	;# 
   112     0098                     	;# 
   113     0099                     	;# 
   114     009A                     	;# 
   115     009B                     	;# 
   116     009C                     	;# 
   117     009D                     	;# 
   118     009E                     	;# 
   119     009F                     	;# 
   120     0105                     	;# 
   121     0107                     	;# 
   122     0108                     	;# 
   123     0109                     	;# 
   124     010C                     	;# 
   125     010C                     	;# 
   126     010D                     	;# 
   127     010E                     	;# 
   128     010F                     	;# 
   129     0185                     	;# 
   130     0187                     	;# 
   131     0188                     	;# 
   132     0189                     	;# 
   133     018C                     	;# 
   134     018D                     	;# 
   135     0000                     	;# 
   136     0001                     	;# 
   137     0002                     	;# 
   138     0003                     	;# 
   139     0004                     	;# 
   140     0005                     	;# 
   141     0006                     	;# 
   142     0007                     	;# 
   143     0008                     	;# 
   144     0009                     	;# 
   145     000A                     	;# 
   146     000B                     	;# 
   147     000C                     	;# 
   148     000D                     	;# 
   149     000E                     	;# 
   150     000E                     	;# 
   151     000F                     	;# 
   152     0010                     	;# 
   153     0011                     	;# 
   154     0012                     	;# 
   155     0013                     	;# 
   156     0014                     	;# 
   157     0015                     	;# 
   158     0015                     	;# 
   159     0016                     	;# 
   160     0017                     	;# 
   161     0018                     	;# 
   162     0019                     	;# 
   163     001A                     	;# 
   164     001B                     	;# 
   165     001B                     	;# 
   166     001C                     	;# 
   167     001D                     	;# 
   168     001E                     	;# 
   169     001F                     	;# 
   170     0081                     	;# 
   171     0085                     	;# 
   172     0086                     	;# 
   173     0087                     	;# 
   174     0088                     	;# 
   175     0089                     	;# 
   176     008C                     	;# 
   177     008D                     	;# 
   178     008E                     	;# 
   179     008F                     	;# 
   180     0090                     	;# 
   181     0091                     	;# 
   182     0092                     	;# 
   183     0093                     	;# 
   184     0093                     	;# 
   185     0093                     	;# 
   186     0094                     	;# 
   187     0095                     	;# 
   188     0096                     	;# 
   189     0097                     	;# 
   190     0098                     	;# 
   191     0099                     	;# 
   192     009A                     	;# 
   193     009B                     	;# 
   194     009C                     	;# 
   195     009D                     	;# 
   196     009E                     	;# 
   197     009F                     	;# 
   198     0105                     	;# 
   199     0107                     	;# 
   200     0108                     	;# 
   201     0109                     	;# 
   202     010C                     	;# 
   203     010C                     	;# 
   204     010D                     	;# 
   205     010E                     	;# 
   206     010F                     	;# 
   207     0185                     	;# 
   208     0187                     	;# 
   209     0188                     	;# 
   210     0189                     	;# 
   211     018C                     	;# 
   212     018D                     	;# 
   213     0000                     	;# 
   214     0001                     	;# 
   215     0002                     	;# 
   216     0003                     	;# 
   217     0004                     	;# 
   218     0005                     	;# 
   219     0006                     	;# 
   220     0007                     	;# 
   221     0008                     	;# 
   222     0009                     	;# 
   223     000A                     	;# 
   224     000B                     	;# 
   225     000C                     	;# 
   226     000D                     	;# 
   227     000E                     	;# 
   228     000E                     	;# 
   229     000F                     	;# 
   230     0010                     	;# 
   231     0011                     	;# 
   232     0012                     	;# 
   233     0013                     	;# 
   234     0014                     	;# 
   235     0015                     	;# 
   236     0015                     	;# 
   237     0016                     	;# 
   238     0017                     	;# 
   239     0018                     	;# 
   240     0019                     	;# 
   241     001A                     	;# 
   242     001B                     	;# 
   243     001B                     	;# 
   244     001C                     	;# 
   245     001D                     	;# 
   246     001E                     	;# 
   247     001F                     	;# 
   248     0081                     	;# 
   249     0085                     	;# 
   250     0086                     	;# 
   251     0087                     	;# 
   252     0088                     	;# 
   253     0089                     	;# 
   254     008C                     	;# 
   255     008D                     	;# 
   256     008E                     	;# 
   257     008F                     	;# 
   258     0090                     	;# 
   259     0091                     	;# 
   260     0092                     	;# 
   261     0093                     	;# 
   262     0093                     	;# 
   263     0093                     	;# 
   264     0094                     	;# 
   265     0095                     	;# 
   266     0096                     	;# 
   267     0097                     	;# 
   268     0098                     	;# 
   269     0099                     	;# 
   270     009A                     	;# 
   271     009B                     	;# 
   272     009C                     	;# 
   273     009D                     	;# 
   274     009E                     	;# 
   275     009F                     	;# 
   276     0105                     	;# 
   277     0107                     	;# 
   278     0108                     	;# 
   279     0109                     	;# 
   280     010C                     	;# 
   281     010C                     	;# 
   282     010D                     	;# 
   283     010E                     	;# 
   284     010F                     	;# 
   285     0185                     	;# 
   286     0187                     	;# 
   287     0188                     	;# 
   288     0189                     	;# 
   289     018C                     	;# 
   290     018D                     	;# 
   291     0000                     	;# 
   292     0001                     	;# 
   293     0002                     	;# 
   294     0003                     	;# 
   295     0004                     	;# 
   296     0005                     	;# 
   297     0006                     	;# 
   298     0007                     	;# 
   299     0008                     	;# 
   300     0009                     	;# 
   301     000A                     	;# 
   302     000B                     	;# 
   303     000C                     	;# 
   304     000D                     	;# 
   305     000E                     	;# 
   306     000E                     	;# 
   307     000F                     	;# 
   308     0010                     	;# 
   309     0011                     	;# 
   310     0012                     	;# 
   311     0013                     	;# 
   312     0014                     	;# 
   313     0015                     	;# 
   314     0015                     	;# 
   315     0016                     	;# 
   316     0017                     	;# 
   317     0018                     	;# 
   318     0019                     	;# 
   319     001A                     	;# 
   320     001B                     	;# 
   321     001B                     	;# 
   322     001C                     	;# 
   323     001D                     	;# 
   324     001E                     	;# 
   325     001F                     	;# 
   326     0081                     	;# 
   327     0085                     	;# 
   328     0086                     	;# 
   329     0087                     	;# 
   330     0088                     	;# 
   331     0089                     	;# 
   332     008C                     	;# 
   333     008D                     	;# 
   334     008E                     	;# 
   335     008F                     	;# 
   336     0090                     	;# 
   337     0091                     	;# 
   338     0092                     	;# 
   339     0093                     	;# 
   340     0093                     	;# 
   341     0093                     	;# 
   342     0094                     	;# 
   343     0095                     	;# 
   344     0096                     	;# 
   345     0097                     	;# 
   346     0098                     	;# 
   347     0099                     	;# 
   348     009A                     	;# 
   349     009B                     	;# 
   350     009C                     	;# 
   351     009D                     	;# 
   352     009E                     	;# 
   353     009F                     	;# 
   354     0105                     	;# 
   355     0107                     	;# 
   356     0108                     	;# 
   357     0109                     	;# 
   358     010C                     	;# 
   359     010C                     	;# 
   360     010D                     	;# 
   361     010E                     	;# 
   362     010F                     	;# 
   363     0185                     	;# 
   364     0187                     	;# 
   365     0188                     	;# 
   366     0189                     	;# 
   367     018C                     	;# 
   368     018D                     	;# 
   369     0000                     	;# 
   370     0001                     	;# 
   371     0002                     	;# 
   372     0003                     	;# 
   373     0004                     	;# 
   374     0005                     	;# 
   375     0006                     	;# 
   376     0007                     	;# 
   377     0008                     	;# 
   378     0009                     	;# 
   379     000A                     	;# 
   380     000B                     	;# 
   381     000C                     	;# 
   382     000D                     	;# 
   383     000E                     	;# 
   384     000E                     	;# 
   385     000F                     	;# 
   386     0010                     	;# 
   387     0011                     	;# 
   388     0012                     	;# 
   389     0013                     	;# 
   390     0014                     	;# 
   391     0015                     	;# 
   392     0015                     	;# 
   393     0016                     	;# 
   394     0017                     	;# 
   395     0018                     	;# 
   396     0019                     	;# 
   397     001A                     	;# 
   398     001B                     	;# 
   399     001B                     	;# 
   400     001C                     	;# 
   401     001D                     	;# 
   402     001E                     	;# 
   403     001F                     	;# 
   404     0081                     	;# 
   405     0085                     	;# 
   406     0086                     	;# 
   407     0087                     	;# 
   408     0088                     	;# 
   409     0089                     	;# 
   410     008C                     	;# 
   411     008D                     	;# 
   412     008E                     	;# 
   413     008F                     	;# 
   414     0090                     	;# 
   415     0091                     	;# 
   416     0092                     	;# 
   417     0093                     	;# 
   418     0093                     	;# 
   419     0093                     	;# 
   420     0094                     	;# 
   421     0095                     	;# 
   422     0096                     	;# 
   423     0097                     	;# 
   424     0098                     	;# 
   425     0099                     	;# 
   426     009A                     	;# 
   427     009B                     	;# 
   428     009C                     	;# 
   429     009D                     	;# 
   430     009E                     	;# 
   431     009F                     	;# 
   432     0105                     	;# 
   433     0107                     	;# 
   434     0108                     	;# 
   435     0109                     	;# 
   436     010C                     	;# 
   437     010C                     	;# 
   438     010D                     	;# 
   439     010E                     	;# 
   440     010F                     	;# 
   441     0185                     	;# 
   442     0187                     	;# 
   443     0188                     	;# 
   444     0189                     	;# 
   445     018C                     	;# 
   446     018D                     	;# 
   447     0006                     _PORTBbits	set	6
   448     000B                     _INTCONbits	set	11
   449     000C                     _PIR1bits	set	12
   450     0009                     _PORTE	set	9
   451     0008                     _PORTD	set	8
   452     0007                     _PORTC	set	7
   453     0005                     _PORTA	set	5
   454     001E                     _ADRESH	set	30
   455     001F                     _ADCON0bits	set	31
   456     0031                     _RB1	set	49
   457     0030                     _RB0	set	48
   458     008C                     _PIE1bits	set	140
   459     008F                     _OSCCONbits	set	143
   460     0095                     _WPUB	set	149
   461     0081                     _OPTION_REGbits	set	129
   462     0089                     _TRISE	set	137
   463     0088                     _TRISD	set	136
   464     0087                     _TRISC	set	135
   465     0086                     _TRISB	set	134
   466     0085                     _TRISA	set	133
   467     009F                     _ADCON1bits	set	159
   468     0189                     _ANSELH	set	393
   469     0188                     _ANSEL	set	392
   470                           
   471                           	psect	cinit
   472     000F                     start_initialization:	
   473                           ; #config settings
   474                           
   475     000F                     __initialization:
   476                           
   477                           ; Clear objects allocated to COMMON
   478     000F  01F8               	clrf	__pbssCOMMON& (0+127)
   479     0010  01F9               	clrf	(__pbssCOMMON+1)& (0+127)
   480     0011                     end_of_initialization:	
   481                           ;End of C runtime variable initialization code
   482                           
   483     0011                     __end_of__initialization:
   484     0011  0183               	clrf	3
   485     0012  120A  118A  2815   	ljmp	_main	;jump to C main() function
   486                           
   487                           	psect	bssCOMMON
   488     0078                     __pbssCOMMON:
   489     0078                     _varadc:
   490     0078                     	ds	1
   491     0079                     _portval:
   492     0079                     	ds	1
   493                           
   494                           	psect	cstackCOMMON
   495     0070                     __pcstackCOMMON:
   496     0070                     ?_config_osc:
   497     0070                     ?_isr:	
   498                           ; 1 bytes @ 0x0
   499                           
   500     0070                     ??_isr:	
   501                           ; 1 bytes @ 0x0
   502                           
   503     0070                     ?_main:	
   504                           ; 1 bytes @ 0x0
   505                           
   506                           
   507                           ; 1 bytes @ 0x0
   508     0070                     	ds	3
   509     0073                     ??_adc_init:
   510     0073                     ?_config_pines:	
   511                           ; 1 bytes @ 0x3
   512                           
   513     0073                     ?_config_tris:	
   514                           ; 1 bytes @ 0x3
   515                           
   516     0073                     ?_config_ports:	
   517                           ; 1 bytes @ 0x3
   518                           
   519     0073                     ?_config_pullup:	
   520                           ; 1 bytes @ 0x3
   521                           
   522     0073                     ??_config_osc:	
   523                           ; 1 bytes @ 0x3
   524                           
   525     0073                     ??_config_interrupt:	
   526                           ; 1 bytes @ 0x3
   527                           
   528     0073                     config_tris@tris_b:	
   529                           ; 1 bytes @ 0x3
   530                           
   531     0073                     config_ports@port_c:	
   532                           ; 1 bytes @ 0x3
   533                           
   534     0073                     config_pines@ansh:	
   535                           ; 1 bytes @ 0x3
   536                           
   537     0073                     config_pullup@pulles:	
   538                           ; 2 bytes @ 0x3
   539                           
   540                           
   541                           ; 2 bytes @ 0x3
   542     0073                     	ds	1
   543     0074                     config_tris@tris_c:
   544     0074                     config_ports@port_d:	
   545                           ; 1 bytes @ 0x4
   546                           
   547     0074                     config_osc@valosc:	
   548                           ; 1 bytes @ 0x4
   549                           
   550                           
   551                           ; 1 bytes @ 0x4
   552     0074                     	ds	1
   553     0075                     ??_config_pines:
   554     0075                     config_pines@ans:	
   555                           ; 1 bytes @ 0x5
   556                           
   557     0075                     config_tris@tris_d:	
   558                           ; 1 bytes @ 0x5
   559                           
   560     0075                     config_ports@port_e:	
   561                           ; 1 bytes @ 0x5
   562                           
   563     0075                     config_pullup@pinpull:	
   564                           ; 1 bytes @ 0x5
   565                           
   566                           
   567                           ; 1 bytes @ 0x5
   568     0075                     	ds	1
   569     0076                     ??_config_ports:
   570     0076                     ??_config_pullup:	
   571                           ; 1 bytes @ 0x6
   572                           
   573     0076                     config_tris@tris_e:	
   574                           ; 1 bytes @ 0x6
   575                           
   576     0076                     config_ports@port_a:	
   577                           ; 1 bytes @ 0x6
   578                           
   579                           
   580                           ; 1 bytes @ 0x6
   581     0076                     	ds	1
   582     0077                     ??_config_tris:
   583     0077                     config_tris@tris_a:	
   584                           ; 1 bytes @ 0x7
   585                           
   586                           
   587                           ; 1 bytes @ 0x7
   588     0077                     	ds	1
   589                           
   590                           	psect	cstackBANK0
   591     0020                     __pcstackBANK0:
   592     0020                     ?_adc_init:
   593     0020                     ?_config_interrupt:	
   594                           ; 1 bytes @ 0x0
   595                           
   596     0020                     adc_init@channel:	
   597                           ; 1 bytes @ 0x0
   598                           
   599     0020                     config_interrupt@adcif:	
   600                           ; 2 bytes @ 0x0
   601                           
   602                           
   603                           ; 2 bytes @ 0x0
   604     0020                     	ds	2
   605     0022                     adc_init@justf:
   606     0022                     config_interrupt@adcie:	
   607                           ; 2 bytes @ 0x2
   608                           
   609                           
   610                           ; 2 bytes @ 0x2
   611     0022                     	ds	2
   612     0024                     adc_init@vcf0:
   613     0024                     config_interrupt@rbie:	
   614                           ; 2 bytes @ 0x4
   615                           
   616                           
   617                           ; 2 bytes @ 0x4
   618     0024                     	ds	2
   619     0026                     adc_init@vcf1:
   620     0026                     config_interrupt@rbif:	
   621                           ; 2 bytes @ 0x6
   622                           
   623                           
   624                           ; 2 bytes @ 0x6
   625     0026                     	ds	2
   626     0028                     adc_init@adcs:
   627     0028                     config_interrupt@pie:	
   628                           ; 1 bytes @ 0x8
   629                           
   630                           
   631                           ; 2 bytes @ 0x8
   632     0028                     	ds	2
   633     002A                     config_interrupt@gie:
   634                           
   635                           ; 2 bytes @ 0xA
   636     002A                     	ds	2
   637     002C                     ??_main:
   638                           
   639                           ; 1 bytes @ 0xC
   640     002C                     	ds	3
   641                           
   642                           	psect	maintext
   643     0015                     __pmaintext:	
   644 ;;
   645 ;;Main: autosize = 0, tempsize = 3, incstack = 0, save=0
   646 ;;
   647 ;; *************** function _main *****************
   648 ;; Defined at:
   649 ;;		line 65 in file "Postlab1.c"
   650 ;; Parameters:    Size  Location     Type
   651 ;;		None
   652 ;; Auto vars:     Size  Location     Type
   653 ;;		None
   654 ;; Return value:  Size  Location     Type
   655 ;;                  1    wreg      void 
   656 ;; Registers used:
   657 ;;		wreg, status,2, status,0, pclath, cstack
   658 ;; Tracked objects:
   659 ;;		On entry : B00/0
   660 ;;		On exit  : 0/0
   661 ;;		Unchanged: 0/0
   662 ;; Data sizes:     COMMON   BANK0   BANK1   BANK3   BANK2
   663 ;;      Params:         0       0       0       0       0
   664 ;;      Locals:         0       0       0       0       0
   665 ;;      Temps:          0       3       0       0       0
   666 ;;      Totals:         0       3       0       0       0
   667 ;;Total ram usage:        3 bytes
   668 ;; Hardware stack levels required when called: 2
   669 ;; This function calls:
   670 ;;		_adc_init
   671 ;;		_config_interrupt
   672 ;;		_config_osc
   673 ;;		_config_pines
   674 ;;		_config_ports
   675 ;;		_config_pullup
   676 ;;		_config_tris
   677 ;; This function is called by:
   678 ;;		Startup code after reset
   679 ;; This function uses a non-reentrant model
   680 ;;
   681                           
   682     0015                     _main:	
   683                           ;psect for function _main
   684                           
   685     0015                     l883:	
   686                           ;incstack = 0
   687                           ; Regs used in _main: [wreg+status,2+status,0+pclath+cstack]
   688                           
   689                           
   690                           ;Postlab1.c: 67:  config_pines ( 0, 0);
   691     0015  3000               	movlw	0
   692     0016  00F3               	movwf	config_pines@ansh
   693     0017  00F4               	movwf	config_pines@ansh+1
   694     0018  3000               	movlw	0
   695     0019  120A  118A  213F  120A  118A  	fcall	_config_pines
   696                           
   697                           ;Postlab1.c: 68:   config_tris ( 0, 0b11111111, 0, 0, 0);
   698     001E  30FF               	movlw	255
   699     001F  00F3               	movwf	config_tris@tris_b
   700     0020  01F4               	clrf	config_tris@tris_c
   701     0021  01F5               	clrf	config_tris@tris_d
   702     0022  01F6               	clrf	config_tris@tris_e
   703     0023  3000               	movlw	0
   704     0024  120A  118A  210E  120A  118A  	fcall	_config_tris
   705                           
   706                           ;Postlab1.c: 69:  config_ports ( 0, 0, 0, 0);
   707     0029  01F3               	clrf	config_ports@port_c
   708     002A  01F4               	clrf	config_ports@port_d
   709     002B  01F5               	clrf	config_ports@port_e
   710     002C  3000               	movlw	0
   711     002D  120A  118A  2129  120A  118A  	fcall	_config_ports
   712                           
   713                           ;Postlab1.c: 70:  config_pullup (0, 0b11111111);
   714     0032  3000               	movlw	0
   715     0033  00F3               	movwf	config_pullup@pulles
   716     0034  00F4               	movwf	config_pullup@pulles+1
   717     0035  30FF               	movlw	255
   718     0036  00F5               	movwf	config_pullup@pinpull
   719     0037  120A  118A  2135  120A  118A  	fcall	_config_pullup
   720                           
   721                           ;Postlab1.c: 71:  config_osc(0b0111);
   722     003C  3007               	movlw	7
   723     003D  120A  118A  211C  120A  118A  	fcall	_config_osc
   724                           
   725                           ;Postlab1.c: 73:  config_interrupt(1, 1,1, 1, 1, 1 );
   726     0042  3001               	movlw	1
   727     0043  1283               	bcf	3,5	;RP0=0, select bank0
   728     0044  1303               	bcf	3,6	;RP1=0, select bank0
   729     0045  00A0               	movwf	config_interrupt@adcif
   730     0046  3000               	movlw	0
   731     0047  00A1               	movwf	config_interrupt@adcif+1
   732     0048  3001               	movlw	1
   733     0049  00A2               	movwf	config_interrupt@adcie
   734     004A  3000               	movlw	0
   735     004B  00A3               	movwf	config_interrupt@adcie+1
   736     004C  3001               	movlw	1
   737     004D  00A4               	movwf	config_interrupt@rbie
   738     004E  3000               	movlw	0
   739     004F  00A5               	movwf	config_interrupt@rbie+1
   740     0050  3001               	movlw	1
   741     0051  00A6               	movwf	config_interrupt@rbif
   742     0052  3000               	movlw	0
   743     0053  00A7               	movwf	config_interrupt@rbif+1
   744     0054  3001               	movlw	1
   745     0055  00A8               	movwf	config_interrupt@pie
   746     0056  3000               	movlw	0
   747     0057  00A9               	movwf	config_interrupt@pie+1
   748     0058  3001               	movlw	1
   749     0059  00AA               	movwf	config_interrupt@gie
   750     005A  3000               	movlw	0
   751     005B  00AB               	movwf	config_interrupt@gie+1
   752     005C  120A  118A  20C9  120A  118A  	fcall	_config_interrupt
   753                           
   754                           ;Postlab1.c: 76: adc_init( 0, 0,0,0,0b01);
   755     0061  3000               	movlw	0
   756     0062  1283               	bcf	3,5	;RP0=0, select bank0
   757     0063  1303               	bcf	3,6	;RP1=0, select bank0
   758     0064  00A0               	movwf	adc_init@channel
   759     0065  00A1               	movwf	adc_init@channel+1
   760     0066  3000               	movlw	0
   761     0067  00A2               	movwf	adc_init@justf
   762     0068  00A3               	movwf	adc_init@justf+1
   763     0069  3000               	movlw	0
   764     006A  00A4               	movwf	adc_init@vcf0
   765     006B  00A5               	movwf	adc_init@vcf0+1
   766     006C  3000               	movlw	0
   767     006D  00A6               	movwf	adc_init@vcf1
   768     006E  00A7               	movwf	adc_init@vcf1+1
   769     006F  01A8               	clrf	adc_init@adcs
   770     0070  0AA8               	incf	adc_init@adcs,f
   771     0071  120A  118A  2091  120A  118A  	fcall	_adc_init
   772     0076                     l885:
   773                           
   774                           ;Postlab1.c: 78:  _delay((unsigned long)((100)*(8000000/4000.0)));
   775     0076  3002               	movlw	2
   776     0077  1283               	bcf	3,5	;RP0=0, select bank0
   777     0078  1303               	bcf	3,6	;RP1=0, select bank0
   778     0079  00AE               	movwf	??_main+2
   779     007A  3004               	movlw	4
   780     007B  00AD               	movwf	??_main+1
   781     007C  30B9               	movlw	185
   782     007D  00AC               	movwf	??_main
   783     007E                     u67:
   784     007E  0BAC               	decfsz	??_main,f
   785     007F  287E               	goto	u67
   786     0080  0BAD               	decfsz	??_main+1,f
   787     0081  287E               	goto	u67
   788     0082  0BAE               	decfsz	??_main+2,f
   789     0083  287E               	goto	u67
   790     0084  2885               	nop2
   791     0085                     l887:
   792                           
   793                           ;Postlab1.c: 80:     {;Postlab1.c: 82:         varadc = PORTA;
   794     0085  1283               	bcf	3,5	;RP0=0, select bank0
   795     0086  1303               	bcf	3,6	;RP1=0, select bank0
   796     0087  0805               	movf	5,w	;volatile
   797     0088  00F8               	movwf	_varadc
   798     0089                     l889:
   799                           
   800                           ;Postlab1.c: 83:         PORTC = varadc;
   801     0089  0878               	movf	_varadc,w
   802     008A  0087               	movwf	7	;volatile
   803     008B                     l891:
   804                           
   805                           ;Postlab1.c: 85:      PORTD = 0b00000001;
   806     008B  3001               	movlw	1
   807     008C  0088               	movwf	8	;volatile
   808     008D  2885               	goto	l887
   809     008E  120A  118A  280C   	ljmp	start
   810     0091                     __end_of_main:
   811                           
   812                           	psect	text1
   813     010E                     __ptext1:	
   814 ;; *************** function _config_tris *****************
   815 ;; Defined at:
   816 ;;		line 19 in file "setup_lb.c"
   817 ;; Parameters:    Size  Location     Type
   818 ;;  tris_a          1    wreg     unsigned char 
   819 ;;  tris_b          1    3[COMMON] unsigned char 
   820 ;;  tris_c          1    4[COMMON] unsigned char 
   821 ;;  tris_d          1    5[COMMON] unsigned char 
   822 ;;  tris_e          1    6[COMMON] unsigned char 
   823 ;; Auto vars:     Size  Location     Type
   824 ;;  tris_a          1    7[COMMON] unsigned char 
   825 ;; Return value:  Size  Location     Type
   826 ;;                  1    wreg      void 
   827 ;; Registers used:
   828 ;;		wreg
   829 ;; Tracked objects:
   830 ;;		On entry : 0/0
   831 ;;		On exit  : 0/0
   832 ;;		Unchanged: 0/0
   833 ;; Data sizes:     COMMON   BANK0   BANK1   BANK3   BANK2
   834 ;;      Params:         4       0       0       0       0
   835 ;;      Locals:         1       0       0       0       0
   836 ;;      Temps:          0       0       0       0       0
   837 ;;      Totals:         5       0       0       0       0
   838 ;;Total ram usage:        5 bytes
   839 ;; Hardware stack levels used: 1
   840 ;; Hardware stack levels required when called: 1
   841 ;; This function calls:
   842 ;;		Nothing
   843 ;; This function is called by:
   844 ;;		_main
   845 ;; This function uses a non-reentrant model
   846 ;;
   847                           
   848     010E                     _config_tris:	
   849                           ;psect for function _config_tris
   850                           
   851                           
   852                           ;incstack = 0
   853                           ; Regs used in _config_tris: [wreg]
   854                           ;config_tris@tris_a stored from wreg
   855     010E  00F7               	movwf	config_tris@tris_a
   856     010F                     l863:
   857                           
   858                           ;setup_lb.c: 20:     TRISA= tris_a;
   859     010F  0877               	movf	config_tris@tris_a,w
   860     0110  1683               	bsf	3,5	;RP0=1, select bank1
   861     0111  1303               	bcf	3,6	;RP1=0, select bank1
   862     0112  0085               	movwf	5	;volatile
   863                           
   864                           ;setup_lb.c: 21:     TRISB = tris_b;
   865     0113  0873               	movf	config_tris@tris_b,w
   866     0114  0086               	movwf	6	;volatile
   867                           
   868                           ;setup_lb.c: 22:     TRISC = tris_c;
   869     0115  0874               	movf	config_tris@tris_c,w
   870     0116  0087               	movwf	7	;volatile
   871                           
   872                           ;setup_lb.c: 23:     TRISD = tris_d;
   873     0117  0875               	movf	config_tris@tris_d,w
   874     0118  0088               	movwf	8	;volatile
   875                           
   876                           ;setup_lb.c: 24:     TRISE = tris_e;
   877     0119  0876               	movf	config_tris@tris_e,w
   878     011A  0089               	movwf	9	;volatile
   879     011B                     l61:
   880     011B  0008               	return
   881     011C                     __end_of_config_tris:
   882                           
   883                           	psect	text2
   884     0135                     __ptext2:	
   885 ;; *************** function _config_pullup *****************
   886 ;; Defined at:
   887 ;;		line 33 in file "setup_lb.c"
   888 ;; Parameters:    Size  Location     Type
   889 ;;  pulles          2    3[COMMON] int 
   890 ;;  pinpull         1    5[COMMON] unsigned char 
   891 ;; Auto vars:     Size  Location     Type
   892 ;;		None
   893 ;; Return value:  Size  Location     Type
   894 ;;                  1    wreg      void 
   895 ;; Registers used:
   896 ;;		wreg, status,0
   897 ;; Tracked objects:
   898 ;;		On entry : 0/0
   899 ;;		On exit  : 0/0
   900 ;;		Unchanged: 0/0
   901 ;; Data sizes:     COMMON   BANK0   BANK1   BANK3   BANK2
   902 ;;      Params:         3       0       0       0       0
   903 ;;      Locals:         0       0       0       0       0
   904 ;;      Temps:          0       0       0       0       0
   905 ;;      Totals:         3       0       0       0       0
   906 ;;Total ram usage:        3 bytes
   907 ;; Hardware stack levels used: 1
   908 ;; Hardware stack levels required when called: 1
   909 ;; This function calls:
   910 ;;		Nothing
   911 ;; This function is called by:
   912 ;;		_main
   913 ;; This function uses a non-reentrant model
   914 ;;
   915                           
   916     0135                     _config_pullup:	
   917                           ;psect for function _config_pullup
   918                           
   919     0135                     l867:	
   920                           ;incstack = 0
   921                           ; Regs used in _config_pullup: [wreg+status,0]
   922                           
   923                           
   924                           ;setup_lb.c: 34:  OPTION_REGbits.nRBPU = pulles;
   925     0135  0C73               	rrf	config_pullup@pulles,w
   926     0136  1683               	bsf	3,5	;RP0=1, select bank1
   927     0137  1303               	bcf	3,6	;RP1=0, select bank1
   928     0138  1C03               	skipc
   929     0139  1381               	bcf	1,7	;volatile
   930     013A  1803               	skipnc
   931     013B  1781               	bsf	1,7	;volatile
   932     013C                     l869:
   933                           
   934                           ;setup_lb.c: 35:     WPUB = pinpull;
   935     013C  0875               	movf	config_pullup@pinpull,w
   936     013D  0095               	movwf	21	;volatile
   937     013E                     l67:
   938     013E  0008               	return
   939     013F                     __end_of_config_pullup:
   940                           
   941                           	psect	text3
   942     0129                     __ptext3:	
   943 ;; *************** function _config_ports *****************
   944 ;; Defined at:
   945 ;;		line 27 in file "setup_lb.c"
   946 ;; Parameters:    Size  Location     Type
   947 ;;  port_a          1    wreg     unsigned char 
   948 ;;  port_c          1    3[COMMON] unsigned char 
   949 ;;  port_d          1    4[COMMON] unsigned char 
   950 ;;  port_e          1    5[COMMON] unsigned char 
   951 ;; Auto vars:     Size  Location     Type
   952 ;;  port_a          1    6[COMMON] unsigned char 
   953 ;; Return value:  Size  Location     Type
   954 ;;                  1    wreg      void 
   955 ;; Registers used:
   956 ;;		wreg
   957 ;; Tracked objects:
   958 ;;		On entry : 0/0
   959 ;;		On exit  : 0/0
   960 ;;		Unchanged: 0/0
   961 ;; Data sizes:     COMMON   BANK0   BANK1   BANK3   BANK2
   962 ;;      Params:         3       0       0       0       0
   963 ;;      Locals:         1       0       0       0       0
   964 ;;      Temps:          0       0       0       0       0
   965 ;;      Totals:         4       0       0       0       0
   966 ;;Total ram usage:        4 bytes
   967 ;; Hardware stack levels used: 1
   968 ;; Hardware stack levels required when called: 1
   969 ;; This function calls:
   970 ;;		Nothing
   971 ;; This function is called by:
   972 ;;		_main
   973 ;; This function uses a non-reentrant model
   974 ;;
   975                           
   976     0129                     _config_ports:	
   977                           ;psect for function _config_ports
   978                           
   979                           
   980                           ;incstack = 0
   981                           ; Regs used in _config_ports: [wreg]
   982                           ;config_ports@port_a stored from wreg
   983     0129  00F6               	movwf	config_ports@port_a
   984     012A                     l865:
   985                           
   986                           ;setup_lb.c: 28:     PORTA = port_a;
   987     012A  0876               	movf	config_ports@port_a,w
   988     012B  1283               	bcf	3,5	;RP0=0, select bank0
   989     012C  1303               	bcf	3,6	;RP1=0, select bank0
   990     012D  0085               	movwf	5	;volatile
   991                           
   992                           ;setup_lb.c: 29:     PORTC = port_c;
   993     012E  0873               	movf	config_ports@port_c,w
   994     012F  0087               	movwf	7	;volatile
   995                           
   996                           ;setup_lb.c: 30:     PORTD = port_d;
   997     0130  0874               	movf	config_ports@port_d,w
   998     0131  0088               	movwf	8	;volatile
   999                           
  1000                           ;setup_lb.c: 31:     PORTE = port_e;
  1001     0132  0875               	movf	config_ports@port_e,w
  1002     0133  0089               	movwf	9	;volatile
  1003     0134                     l64:
  1004     0134  0008               	return
  1005     0135                     __end_of_config_ports:
  1006                           
  1007                           	psect	text4
  1008     013F                     __ptext4:	
  1009 ;; *************** function _config_pines *****************
  1010 ;; Defined at:
  1011 ;;		line 15 in file "setup_lb.c"
  1012 ;; Parameters:    Size  Location     Type
  1013 ;;  ans             1    wreg     unsigned char 
  1014 ;;  ansh            2    3[COMMON] int 
  1015 ;; Auto vars:     Size  Location     Type
  1016 ;;  ans             1    5[COMMON] unsigned char 
  1017 ;; Return value:  Size  Location     Type
  1018 ;;                  1    wreg      void 
  1019 ;; Registers used:
  1020 ;;		wreg
  1021 ;; Tracked objects:
  1022 ;;		On entry : 0/0
  1023 ;;		On exit  : 0/0
  1024 ;;		Unchanged: 0/0
  1025 ;; Data sizes:     COMMON   BANK0   BANK1   BANK3   BANK2
  1026 ;;      Params:         2       0       0       0       0
  1027 ;;      Locals:         1       0       0       0       0
  1028 ;;      Temps:          0       0       0       0       0
  1029 ;;      Totals:         3       0       0       0       0
  1030 ;;Total ram usage:        3 bytes
  1031 ;; Hardware stack levels used: 1
  1032 ;; Hardware stack levels required when called: 1
  1033 ;; This function calls:
  1034 ;;		Nothing
  1035 ;; This function is called by:
  1036 ;;		_main
  1037 ;; This function uses a non-reentrant model
  1038 ;;
  1039                           
  1040     013F                     _config_pines:	
  1041                           ;psect for function _config_pines
  1042                           
  1043                           
  1044                           ;incstack = 0
  1045                           ; Regs used in _config_pines: [wreg]
  1046                           ;config_pines@ans stored from wreg
  1047     013F  00F5               	movwf	config_pines@ans
  1048     0140                     l861:
  1049                           
  1050                           ;setup_lb.c: 16: ANSEL = ans;
  1051     0140  0875               	movf	config_pines@ans,w
  1052     0141  1683               	bsf	3,5	;RP0=1, select bank3
  1053     0142  1703               	bsf	3,6	;RP1=1, select bank3
  1054     0143  0088               	movwf	8	;volatile
  1055                           
  1056                           ;setup_lb.c: 17:  ANSELH = ansh;
  1057     0144  0873               	movf	config_pines@ansh,w
  1058     0145  0089               	movwf	9	;volatile
  1059     0146                     l58:
  1060     0146  0008               	return
  1061     0147                     __end_of_config_pines:
  1062                           
  1063                           	psect	text5
  1064     011C                     __ptext5:	
  1065 ;; *************** function _config_osc *****************
  1066 ;; Defined at:
  1067 ;;		line 39 in file "setup_lb.c"
  1068 ;; Parameters:    Size  Location     Type
  1069 ;;  valosc          1    wreg     unsigned char 
  1070 ;; Auto vars:     Size  Location     Type
  1071 ;;  valosc          1    4[COMMON] unsigned char 
  1072 ;; Return value:  Size  Location     Type
  1073 ;;                  1    wreg      void 
  1074 ;; Registers used:
  1075 ;;		wreg, status,2, status,0
  1076 ;; Tracked objects:
  1077 ;;		On entry : 0/0
  1078 ;;		On exit  : 0/0
  1079 ;;		Unchanged: 0/0
  1080 ;; Data sizes:     COMMON   BANK0   BANK1   BANK3   BANK2
  1081 ;;      Params:         0       0       0       0       0
  1082 ;;      Locals:         1       0       0       0       0
  1083 ;;      Temps:          1       0       0       0       0
  1084 ;;      Totals:         2       0       0       0       0
  1085 ;;Total ram usage:        2 bytes
  1086 ;; Hardware stack levels used: 1
  1087 ;; Hardware stack levels required when called: 1
  1088 ;; This function calls:
  1089 ;;		Nothing
  1090 ;; This function is called by:
  1091 ;;		_main
  1092 ;; This function uses a non-reentrant model
  1093 ;;
  1094                           
  1095     011C                     _config_osc:	
  1096                           ;psect for function _config_osc
  1097                           
  1098                           
  1099                           ;incstack = 0
  1100                           ; Regs used in _config_osc: [wreg+status,2+status,0]
  1101                           ;config_osc@valosc stored from wreg
  1102     011C  00F4               	movwf	config_osc@valosc
  1103     011D                     l761:
  1104                           
  1105                           ;setup_lb.c: 41:     OSCCONbits.IRCF = valosc;
  1106     011D  0874               	movf	config_osc@valosc,w
  1107     011E  00F3               	movwf	??_config_osc
  1108     011F  0EF3               	swapf	??_config_osc,f
  1109     0120  1683               	bsf	3,5	;RP0=1, select bank1
  1110     0121  1303               	bcf	3,6	;RP1=0, select bank1
  1111     0122  080F               	movf	15,w	;volatile
  1112     0123  0673               	xorwf	??_config_osc,w
  1113     0124  398F               	andlw	-113
  1114     0125  0673               	xorwf	??_config_osc,w
  1115     0126  008F               	movwf	15	;volatile
  1116     0127                     l763:
  1117                           
  1118                           ;setup_lb.c: 42:     OSCCONbits.SCS = 1;
  1119     0127  140F               	bsf	15,0	;volatile
  1120     0128                     l70:
  1121     0128  0008               	return
  1122     0129                     __end_of_config_osc:
  1123                           
  1124                           	psect	text6
  1125     00C9                     __ptext6:	
  1126 ;; *************** function _config_interrupt *****************
  1127 ;; Defined at:
  1128 ;;		line 44 in file "setup_lb.c"
  1129 ;; Parameters:    Size  Location     Type
  1130 ;;  adcif           2    0[BANK0 ] int 
  1131 ;;  adcie           2    2[BANK0 ] int 
  1132 ;;  rbie            2    4[BANK0 ] int 
  1133 ;;  rbif            2    6[BANK0 ] int 
  1134 ;;  pie             2    8[BANK0 ] int 
  1135 ;;  gie             2   10[BANK0 ] int 
  1136 ;; Auto vars:     Size  Location     Type
  1137 ;;		None
  1138 ;; Return value:  Size  Location     Type
  1139 ;;                  1    wreg      void 
  1140 ;; Registers used:
  1141 ;;		wreg, status,0
  1142 ;; Tracked objects:
  1143 ;;		On entry : 0/0
  1144 ;;		On exit  : 0/0
  1145 ;;		Unchanged: 0/0
  1146 ;; Data sizes:     COMMON   BANK0   BANK1   BANK3   BANK2
  1147 ;;      Params:         0      12       0       0       0
  1148 ;;      Locals:         0       0       0       0       0
  1149 ;;      Temps:          0       0       0       0       0
  1150 ;;      Totals:         0      12       0       0       0
  1151 ;;Total ram usage:       12 bytes
  1152 ;; Hardware stack levels used: 1
  1153 ;; Hardware stack levels required when called: 1
  1154 ;; This function calls:
  1155 ;;		Nothing
  1156 ;; This function is called by:
  1157 ;;		_main
  1158 ;; This function uses a non-reentrant model
  1159 ;;
  1160                           
  1161     00C9                     _config_interrupt:	
  1162                           ;psect for function _config_interrupt
  1163                           
  1164     00C9                     l871:	
  1165                           ;incstack = 0
  1166                           ; Regs used in _config_interrupt: [wreg+status,0]
  1167                           
  1168                           
  1169                           ;setup_lb.c: 46:     PIR1bits.ADIF = adcif;
  1170     00C9  1283               	bcf	3,5	;RP0=0, select bank0
  1171     00CA  1303               	bcf	3,6	;RP1=0, select bank0
  1172     00CB  0C20               	rrf	config_interrupt@adcif,w
  1173     00CC  1C03               	skipc
  1174     00CD  130C               	bcf	12,6	;volatile
  1175     00CE  1803               	skipnc
  1176     00CF  170C               	bsf	12,6	;volatile
  1177                           
  1178                           ;setup_lb.c: 47:     PIE1bits.ADIE = adcie;
  1179     00D0  0C22               	rrf	config_interrupt@adcie,w
  1180     00D1  1683               	bsf	3,5	;RP0=1, select bank1
  1181     00D2  1303               	bcf	3,6	;RP1=0, select bank1
  1182     00D3  1C03               	skipc
  1183     00D4  130C               	bcf	12,6	;volatile
  1184     00D5  1803               	skipnc
  1185     00D6  170C               	bsf	12,6	;volatile
  1186                           
  1187                           ;setup_lb.c: 49:     INTCONbits.RBIE = rbie;
  1188     00D7  1283               	bcf	3,5	;RP0=0, select bank0
  1189     00D8  1303               	bcf	3,6	;RP1=0, select bank0
  1190     00D9  0C24               	rrf	config_interrupt@rbie,w
  1191     00DA  1C03               	skipc
  1192     00DB  118B               	bcf	11,3	;volatile
  1193     00DC  1803               	skipnc
  1194     00DD  158B               	bsf	11,3	;volatile
  1195                           
  1196                           ;setup_lb.c: 50:     INTCONbits.RBIF = rbif;
  1197     00DE  0C26               	rrf	config_interrupt@rbif,w
  1198     00DF  1C03               	skipc
  1199     00E0  100B               	bcf	11,0	;volatile
  1200     00E1  1803               	skipnc
  1201     00E2  140B               	bsf	11,0	;volatile
  1202                           
  1203                           ;setup_lb.c: 52:     INTCONbits.PEIE = pie;
  1204     00E3  0C28               	rrf	config_interrupt@pie,w
  1205     00E4  1C03               	skipc
  1206     00E5  130B               	bcf	11,6	;volatile
  1207     00E6  1803               	skipnc
  1208     00E7  170B               	bsf	11,6	;volatile
  1209                           
  1210                           ;setup_lb.c: 53:     INTCONbits.GIE = gie;
  1211     00E8  0C2A               	rrf	config_interrupt@gie,w
  1212     00E9  1C03               	skipc
  1213     00EA  138B               	bcf	11,7	;volatile
  1214     00EB  1803               	skipnc
  1215     00EC  178B               	bsf	11,7	;volatile
  1216     00ED                     l73:
  1217     00ED  0008               	return
  1218     00EE                     __end_of_config_interrupt:
  1219                           
  1220                           	psect	text7
  1221     0091                     __ptext7:	
  1222 ;; *************** function _adc_init *****************
  1223 ;; Defined at:
  1224 ;;		line 15 in file "adclib.c"
  1225 ;; Parameters:    Size  Location     Type
  1226 ;;  channel         2    0[BANK0 ] int 
  1227 ;;  justf           2    2[BANK0 ] int 
  1228 ;;  vcf0            2    4[BANK0 ] int 
  1229 ;;  vcf1            2    6[BANK0 ] int 
  1230 ;;  adcs            1    8[BANK0 ] unsigned char 
  1231 ;; Auto vars:     Size  Location     Type
  1232 ;;		None
  1233 ;; Return value:  Size  Location     Type
  1234 ;;                  1    wreg      void 
  1235 ;; Registers used:
  1236 ;;		wreg, status,2, status,0
  1237 ;; Tracked objects:
  1238 ;;		On entry : 0/0
  1239 ;;		On exit  : 0/0
  1240 ;;		Unchanged: 0/0
  1241 ;; Data sizes:     COMMON   BANK0   BANK1   BANK3   BANK2
  1242 ;;      Params:         0       9       0       0       0
  1243 ;;      Locals:         0       0       0       0       0
  1244 ;;      Temps:          1       0       0       0       0
  1245 ;;      Totals:         1       9       0       0       0
  1246 ;;Total ram usage:       10 bytes
  1247 ;; Hardware stack levels used: 1
  1248 ;; Hardware stack levels required when called: 1
  1249 ;; This function calls:
  1250 ;;		Nothing
  1251 ;; This function is called by:
  1252 ;;		_main
  1253 ;; This function uses a non-reentrant model
  1254 ;;
  1255                           
  1256     0091                     _adc_init:	
  1257                           ;psect for function _adc_init
  1258                           
  1259     0091                     l851:	
  1260                           ;incstack = 0
  1261                           ; Regs used in _adc_init: [wreg+status,2+status,0]
  1262                           
  1263                           
  1264                           ;adclib.c: 17:   ADCON1bits.ADFM = justf;
  1265     0091  1283               	bcf	3,5	;RP0=0, select bank0
  1266     0092  1303               	bcf	3,6	;RP1=0, select bank0
  1267     0093  0C22               	rrf	adc_init@justf,w
  1268     0094  1683               	bsf	3,5	;RP0=1, select bank1
  1269     0095  1303               	bcf	3,6	;RP1=0, select bank1
  1270     0096  1C03               	skipc
  1271     0097  139F               	bcf	31,7	;volatile
  1272     0098  1803               	skipnc
  1273     0099  179F               	bsf	31,7	;volatile
  1274                           
  1275                           ;adclib.c: 18:    ADCON1bits.VCFG0 = vcf0;
  1276     009A  1283               	bcf	3,5	;RP0=0, select bank0
  1277     009B  1303               	bcf	3,6	;RP1=0, select bank0
  1278     009C  0C24               	rrf	adc_init@vcf0,w
  1279     009D  1683               	bsf	3,5	;RP0=1, select bank1
  1280     009E  1303               	bcf	3,6	;RP1=0, select bank1
  1281     009F  1C03               	skipc
  1282     00A0  121F               	bcf	31,4	;volatile
  1283     00A1  1803               	skipnc
  1284     00A2  161F               	bsf	31,4	;volatile
  1285                           
  1286                           ;adclib.c: 19:    ADCON1bits.VCFG1 = vcf1;
  1287     00A3  1283               	bcf	3,5	;RP0=0, select bank0
  1288     00A4  1303               	bcf	3,6	;RP1=0, select bank0
  1289     00A5  0C26               	rrf	adc_init@vcf1,w
  1290     00A6  1683               	bsf	3,5	;RP0=1, select bank1
  1291     00A7  1303               	bcf	3,6	;RP1=0, select bank1
  1292     00A8  1C03               	skipc
  1293     00A9  129F               	bcf	31,5	;volatile
  1294     00AA  1803               	skipnc
  1295     00AB  169F               	bsf	31,5	;volatile
  1296     00AC                     l853:
  1297                           
  1298                           ;adclib.c: 20:    ADCON0bits.ADON= 1;
  1299     00AC  1283               	bcf	3,5	;RP0=0, select bank0
  1300     00AD  1303               	bcf	3,6	;RP1=0, select bank0
  1301     00AE  141F               	bsf	31,0	;volatile
  1302     00AF                     l855:
  1303                           
  1304                           ;adclib.c: 21:    _delay((unsigned long)((50)*(8000000/4000000.0)));
  1305     00AF  3021               	movlw	33
  1306     00B0  00F3               	movwf	??_adc_init
  1307     00B1                     u77:
  1308     00B1  0BF3               	decfsz	??_adc_init,f
  1309     00B2  28B1               	goto	u77
  1310     00B3                     l857:
  1311                           
  1312                           ;adclib.c: 22: ADCON0bits.ADCS = adcs;
  1313     00B3  1283               	bcf	3,5	;RP0=0, select bank0
  1314     00B4  1303               	bcf	3,6	;RP1=0, select bank0
  1315     00B5  0828               	movf	adc_init@adcs,w
  1316     00B6  00F3               	movwf	??_adc_init
  1317     00B7  0EF3               	swapf	??_adc_init,f
  1318     00B8  0DF3               	rlf	??_adc_init,f
  1319     00B9  0DF3               	rlf	??_adc_init,f
  1320     00BA  081F               	movf	31,w	;volatile
  1321     00BB  0673               	xorwf	??_adc_init,w
  1322     00BC  393F               	andlw	-193
  1323     00BD  0673               	xorwf	??_adc_init,w
  1324     00BE  009F               	movwf	31	;volatile
  1325     00BF                     l859:
  1326                           
  1327                           ;adclib.c: 23: ADCON0bits.CHS = channel;
  1328     00BF  0820               	movf	adc_init@channel,w
  1329     00C0  00F3               	movwf	??_adc_init
  1330     00C1  0DF3               	rlf	??_adc_init,f
  1331     00C2  0DF3               	rlf	??_adc_init,f
  1332     00C3  081F               	movf	31,w	;volatile
  1333     00C4  0673               	xorwf	??_adc_init,w
  1334     00C5  39C3               	andlw	-61
  1335     00C6  0673               	xorwf	??_adc_init,w
  1336     00C7  009F               	movwf	31	;volatile
  1337     00C8                     l11:
  1338     00C8  0008               	return
  1339     00C9                     __end_of_adc_init:
  1340                           
  1341                           	psect	text8
  1342     00EE                     __ptext8:	
  1343 ;; *************** function _isr *****************
  1344 ;; Defined at:
  1345 ;;		line 48 in file "Postlab1.c"
  1346 ;; Parameters:    Size  Location     Type
  1347 ;;		None
  1348 ;; Auto vars:     Size  Location     Type
  1349 ;;		None
  1350 ;; Return value:  Size  Location     Type
  1351 ;;                  1    wreg      void 
  1352 ;; Registers used:
  1353 ;;		wreg, status,2, status,0
  1354 ;; Tracked objects:
  1355 ;;		On entry : 0/0
  1356 ;;		On exit  : 0/0
  1357 ;;		Unchanged: 0/0
  1358 ;; Data sizes:     COMMON   BANK0   BANK1   BANK3   BANK2
  1359 ;;      Params:         0       0       0       0       0
  1360 ;;      Locals:         0       0       0       0       0
  1361 ;;      Temps:          3       0       0       0       0
  1362 ;;      Totals:         3       0       0       0       0
  1363 ;;Total ram usage:        3 bytes
  1364 ;; Hardware stack levels used: 1
  1365 ;; This function calls:
  1366 ;;		Nothing
  1367 ;; This function is called by:
  1368 ;;		Interrupt level 1
  1369 ;; This function uses a non-reentrant model
  1370 ;;
  1371                           
  1372     00EE                     _isr:	
  1373                           ;psect for function _isr
  1374                           
  1375     00EE                     i1l781:
  1376                           
  1377                           ;Postlab1.c: 50:    if (!PORTBbits.RB0){
  1378     00EE  1283               	bcf	3,5	;RP0=0, select bank0
  1379     00EF  1303               	bcf	3,6	;RP1=0, select bank0
  1380     00F0  1806               	btfsc	6,0	;volatile
  1381     00F1  28F3               	goto	u2_21
  1382     00F2  28F4               	goto	u2_20
  1383     00F3                     u2_21:
  1384     00F3  28FC               	goto	i1l787
  1385     00F4                     u2_20:
  1386     00F4                     i1l111:
  1387     00F4  1C06               	btfss	6,0	;volatile
  1388     00F5  28F7               	goto	u3_21
  1389     00F6  28F8               	goto	u3_20
  1390     00F7                     u3_21:
  1391     00F7  28F4               	goto	i1l111
  1392     00F8                     u3_20:
  1393     00F8                     i1l785:
  1394                           
  1395                           ;Postlab1.c: 52:             PORTC ++;
  1396     00F8  3001               	movlw	1
  1397     00F9  00F0               	movwf	??_isr
  1398     00FA  0870               	movf	??_isr,w
  1399     00FB  0787               	addwf	7,f	;volatile
  1400     00FC                     i1l787:
  1401                           
  1402                           ;Postlab1.c: 54:     if (!PORTBbits.RB1){
  1403     00FC  1886               	btfsc	6,1	;volatile
  1404     00FD  28FF               	goto	u4_21
  1405     00FE  2900               	goto	u4_20
  1406     00FF                     u4_21:
  1407     00FF  2907               	goto	i1l118
  1408     0100                     u4_20:
  1409     0100  2903               	goto	i1l793
  1410     0101                     i1l791:
  1411                           
  1412                           ;Postlab1.c: 57:                 PORTA --;
  1413     0101  3001               	movlw	1
  1414     0102  0285               	subwf	5,f	;volatile
  1415     0103                     i1l793:
  1416                           
  1417                           ;Postlab1.c: 55:             while (!RB1)
  1418     0103  1C86               	btfss	6,1	;volatile
  1419     0104  2906               	goto	u5_21
  1420     0105  2907               	goto	u5_20
  1421     0106                     u5_21:
  1422     0106  2901               	goto	i1l791
  1423     0107                     u5_20:
  1424     0107                     i1l118:
  1425     0107  0872               	movf	??_isr+2,w
  1426     0108  008A               	movwf	10
  1427     0109  0E71               	swapf	??_isr+1,w
  1428     010A  0083               	movwf	3
  1429     010B  0EFE               	swapf	btemp,f
  1430     010C  0E7E               	swapf	btemp,w
  1431     010D  0009               	retfie
  1432     010E                     __end_of_isr:
  1433     007E                     btemp	set	126	;btemp
  1434     007E                     wtemp0	set	126
  1435                           
  1436                           	psect	intentry
  1437     0004                     __pintentry:	
  1438                           ;incstack = 0
  1439                           ; Regs used in _isr: [wreg+status,2+status,0]
  1440                           
  1441     0004                     interrupt_function:
  1442     007E                     saved_w	set	btemp
  1443     0004  00FE               	movwf	btemp
  1444     0005  0E03               	swapf	3,w
  1445     0006  00F1               	movwf	??_isr+1
  1446     0007  080A               	movf	10,w
  1447     0008  00F2               	movwf	??_isr+2
  1448     0009  120A  118A  28EE   	ljmp	_isr
  1449                           
  1450                           	psect	idloc
  1451                           
  1452                           ;Config register IDLOC0 @ 0x2000
  1453                           ;	unspecified, using default values
  1454     2000                     	org	8192
  1455     2000  3FFF               	dw	16383
  1456                           
  1457                           ;Config register IDLOC1 @ 0x2001
  1458                           ;	unspecified, using default values
  1459     2001                     	org	8193
  1460     2001  3FFF               	dw	16383
  1461                           
  1462                           ;Config register IDLOC2 @ 0x2002
  1463                           ;	unspecified, using default values
  1464     2002                     	org	8194
  1465     2002  3FFF               	dw	16383
  1466                           
  1467                           ;Config register IDLOC3 @ 0x2003
  1468                           ;	unspecified, using default values
  1469     2003                     	org	8195
  1470     2003  3FFF               	dw	16383
  1471                           
  1472                           	psect	config
  1473                           
  1474                           ;Config register CONFIG1 @ 0x2007
  1475                           ;	Oscillator Selection bits
  1476                           ;	FOSC = INTRC_CLKOUT, INTOSC oscillator: CLKOUT function on RA6/OSC2/CLKOUT pin, I/O fu
      +                          nction on RA7/OSC1/CLKIN
  1477                           ;	Watchdog Timer Enable bit
  1478                           ;	WDTE = OFF, WDT disabled and can be enabled by SWDTEN bit of the WDTCON register
  1479                           ;	Power-up Timer Enable bit
  1480                           ;	PWRTE = OFF, PWRT disabled
  1481                           ;	RE3/MCLR pin function select bit
  1482                           ;	MCLRE = OFF, RE3/MCLR pin function is digital input, MCLR internally tied to VDD
  1483                           ;	Code Protection bit
  1484                           ;	CP = OFF, Program memory code protection is disabled
  1485                           ;	Data Code Protection bit
  1486                           ;	CPD = OFF, Data memory code protection is disabled
  1487                           ;	Brown Out Reset Selection bits
  1488                           ;	BOREN = OFF, BOR disabled
  1489                           ;	Internal External Switchover bit
  1490                           ;	IESO = OFF, Internal/External Switchover mode is disabled
  1491                           ;	Fail-Safe Clock Monitor Enabled bit
  1492                           ;	FCMEN = OFF, Fail-Safe Clock Monitor is disabled
  1493                           ;	Low Voltage Programming Enable bit
  1494                           ;	LVP = OFF, RB3 pin has digital I/O, HV on MCLR must be used for programming
  1495                           ;	In-Circuit Debugger Mode bit
  1496                           ;	DEBUG = 0x1, unprogrammed default
  1497     2007                     	org	8199
  1498     2007  20D5               	dw	8405
  1499                           
  1500                           ;Config register CONFIG2 @ 0x2008
  1501                           ;	Brown-out Reset Selection bit
  1502                           ;	BOR4V = BOR40V, Brown-out Reset set to 4.0V
  1503                           ;	Flash Program Memory Self Write Enable bits
  1504                           ;	WRT = OFF, Write protection off
  1505     2008                     	org	8200
  1506     2008  3FFF               	dw	16383

Data Sizes:
    Strings     0
    Constant    0
    Data        0
    BSS         2
    Persistent  0
    Stack       0

Auto Spaces:
    Space          Size  Autos    Used
    COMMON           14      8      10
    BANK0            80     15      15
    BANK1            80      0       0
    BANK3            96      0       0
    BANK2            96      0       0

Pointer List with Targets:

    None.

Critical Paths under _main in COMMON

    _main->_config_tris

Critical Paths under _isr in COMMON

    None.

Critical Paths under _main in BANK0

    _main->_config_interrupt

Critical Paths under _isr in BANK0

    None.

Critical Paths under _main in BANK1

    None.

Critical Paths under _isr in BANK1

    None.

Critical Paths under _main in BANK3

    None.

Critical Paths under _isr in BANK3

    None.

Critical Paths under _main in BANK2

    None.

Critical Paths under _isr in BANK2

    None.

Call Graph Tables:

 ---------------------------------------------------------------------------------
 (Depth) Function   	        Calls       Base Space   Used Autos Params    Refs
 ---------------------------------------------------------------------------------
 (0) _main                                                 3     3      0    2139
                                             12 BANK0      3     3      0
                           _adc_init
                   _config_interrupt
                         _config_osc
                       _config_pines
                       _config_ports
                      _config_pullup
                        _config_tris
 ---------------------------------------------------------------------------------
 (1) _config_tris                                          5     1      4     414
                                              3 COMMON     5     1      4
 ---------------------------------------------------------------------------------
 (1) _config_pullup                                        3     0      3     196
                                              3 COMMON     3     0      3
 ---------------------------------------------------------------------------------
 (1) _config_ports                                         4     1      3     316
                                              3 COMMON     4     1      3
 ---------------------------------------------------------------------------------
 (1) _config_pines                                         3     1      2     120
                                              3 COMMON     3     1      2
 ---------------------------------------------------------------------------------
 (1) _config_osc                                           2     2      0      15
                                              3 COMMON     2     2      0
 ---------------------------------------------------------------------------------
 (1) _config_interrupt                                    12     0     12     588
                                              0 BANK0     12     0     12
 ---------------------------------------------------------------------------------
 (1) _adc_init                                            10     1      9     490
                                              3 COMMON     1     1      0
                                              0 BANK0      9     0      9
 ---------------------------------------------------------------------------------
 Estimated maximum stack depth 1
 ---------------------------------------------------------------------------------
 (Depth) Function   	        Calls       Base Space   Used Autos Params    Refs
 ---------------------------------------------------------------------------------
 (2) _isr                                                  3     3      0       0
                                              0 COMMON     3     3      0
 ---------------------------------------------------------------------------------
 Estimated maximum stack depth 2
 ---------------------------------------------------------------------------------

 Call Graph Graphs:

 _main (ROOT)
   _adc_init
   _config_interrupt
   _config_osc
   _config_pines
   _config_ports
   _config_pullup
   _config_tris

 _isr (ROOT)

 Address spaces:
Name               Size   Autos  Total    Cost      Usage
BITCOMMON            E      0       0       0        0.0%
EEDATA             100      0       0       0        0.0%
NULL                 0      0       0       0        0.0%
CODE                 0      0       0       0        0.0%
COMMON               E      8       A       1       71.4%
BITSFR0              0      0       0       1        0.0%
SFR0                 0      0       0       1        0.0%
BITSFR1              0      0       0       2        0.0%
SFR1                 0      0       0       2        0.0%
STACK                0      0       0       2        0.0%
ABS                  0      0      19       3        0.0%
BITBANK0            50      0       0       4        0.0%
BITSFR3              0      0       0       4        0.0%
SFR3                 0      0       0       4        0.0%
BANK0               50      F       F       5       18.8%
BITSFR2              0      0       0       5        0.0%
SFR2                 0      0       0       5        0.0%
BITBANK1            50      0       0       6        0.0%
BANK1               50      0       0       7        0.0%
BITBANK3            60      0       0       8        0.0%
BANK3               60      0       0       9        0.0%
BITBANK2            60      0       0      10        0.0%
BANK2               60      0       0      11        0.0%
DATA                 0      0      19      12        0.0%


Microchip Technology PIC Macro Assembler V2.40 build 20220703182018 
Symbol Table                                                                                   Tue Jul 18 13:49:26 2023

        config_osc@valosc 0074                        l11 00C8                        l61 011B  
                      l70 0128                        l64 0134                        l73 00ED  
                      l58 0146                        l67 013E                        u67 007E  
                      u77 00B1                       l761 011D                       l851 0091  
                     l763 0127                       l853 00AC                       l861 0140  
                     l855 00AF                       l871 00C9                       l863 010F  
                     l857 00B3                       l865 012A                       l859 00BF  
                     l867 0135                       l891 008B                       l883 0015  
                     l869 013C                       l885 0076                       l887 0085  
                     l889 0089                       _RB0 0030                       _RB1 0031  
                     _isr 00EE          config_pines@ansh 0073                      ?_isr 0070  
                    _WPUB 0095                      u2_20 00F4                      u2_21 00F3  
                    u3_20 00F8                      u3_21 00F7                      u4_20 0100  
                    u4_21 00FF                      u5_20 0107                      u5_21 0106  
                    _main 0015                      btemp 007E            ??_config_pines 0075  
                    start 000C            ??_config_ports 0076                     ??_isr 0070  
                   ?_main 0070                     _ANSEL 0188                     i1l111 00F4  
                   i1l118 0107                     i1l781 00EE                     i1l791 0101  
                   i1l793 0103                     i1l785 00F8                     i1l787 00FC  
                   _PORTA 0005                     _PORTC 0007                     _PORTD 0008  
                   _PORTE 0009                     _TRISA 0085                     _TRISB 0086  
                   _TRISC 0087                     _TRISD 0088                     _TRISE 0089  
                   pclath 000A                     status 0003                     wtemp0 007E  
         ??_config_pullup 0076       config_interrupt@gie 002A       config_interrupt@pie 0028  
         __initialization 000F              __end_of_main 0091                    ??_main 002C  
                  _ADRESH 001E                    _ANSELH 0189          __end_of_adc_init 00C9  
       config_tris@tris_a 0077         config_tris@tris_b 0073         config_tris@tris_c 0074  
       config_tris@tris_d 0075         config_tris@tris_e 0076                    _varadc 0078  
    __end_of_config_pines 0147                    saved_w 007E      __end_of_config_ports 0135  
 __end_of__initialization 0011      config_interrupt@rbie 0024      config_interrupt@rbif 0026  
          __pcstackCOMMON 0070            _OPTION_REGbits 0081        config_ports@port_a 0076  
      config_ports@port_c 0073        config_ports@port_d 0074        config_ports@port_e 0075  
            adc_init@adcs 0028              adc_init@vcf0 0024              adc_init@vcf1 0026  
              __pmaintext 0015                __pintentry 0004                 ?_adc_init 0020  
              _config_osc 011C                ??_adc_init 0073                   __ptext1 010E  
                 __ptext2 0135                   __ptext3 0129                   __ptext4 013F  
                 __ptext5 011C                   __ptext6 00C9                   __ptext7 0091  
                 __ptext8 00EE          _config_interrupt 00C9                   _portval 0079  
    end_of_initialization 0011      config_pullup@pinpull 0075     __end_of_config_pullup 013F  
            _config_pines 013F              _config_ports 0129                 _PORTBbits 0006  
             ?_config_osc 0070           config_pines@ans 0075     config_interrupt@adcie 0022  
   config_interrupt@adcif 0020             ??_config_tris 0077       start_initialization 000F  
             __end_of_isr 010E           adc_init@channel 0020       __end_of_config_tris 011C  
             __pbssCOMMON 0078                 ___latbits 0002             __pcstackBANK0 0020  
           adc_init@justf 0022  __end_of_config_interrupt 00EE         interrupt_function 0004  
                _PIE1bits 008C       config_pullup@pulles 0073                  _PIR1bits 000C  
             _config_tris 010E                _ADCON0bits 001F                _ADCON1bits 009F  
            ??_config_osc 0073        __end_of_config_osc 0129                  _adc_init 0091  
              _INTCONbits 000B                  intlevel1 0000                _OSCCONbits 008F  
       ?_config_interrupt 0020             _config_pullup 0135        ??_config_interrupt 0073  
          ?_config_pullup 0073             ?_config_pines 0073             ?_config_ports 0073  
            ?_config_tris 0073  
