

Microchip MPLAB XC8 Assembler V2.40 build 20220703182018 
                                                                                               Tue Jul 25 12:02:52 2023

Microchip MPLAB XC8 C Compiler v2.40 (Free license) build 20220703182018 Og1 
     1                           	processor	16F887
     2                           	pagewidth 120
     3                           	opt	flic
     4                           	psect	strings,global,class=STRING,delta=2,noexec
     5                           	psect	cinit,global,class=CODE,merge=1,delta=2
     6                           	psect	bssBANK0,global,class=BANK0,space=1,delta=1,noexec
     7                           	psect	bssBANK3,global,class=BANK3,space=1,delta=1,noexec
     8                           	psect	cstackBANK3,global,class=BANK3,space=1,delta=1,noexec
     9                           	psect	cstackBANK1,global,class=BANK1,space=1,delta=1,noexec
    10                           	psect	cstackCOMMON,global,class=COMMON,space=1,delta=1,noexec
    11                           	psect	cstackBANK0,global,class=BANK0,space=1,delta=1,noexec
    12                           	psect	maintext,global,class=CODE,split=1,delta=2
    13                           	psect	text1,local,class=CODE,merge=1,delta=2,group=1
    14                           	psect	text2,local,class=CODE,merge=1,delta=2,group=1
    15                           	psect	text3,local,class=CODE,merge=1,delta=2,group=2
    16                           	psect	text4,local,class=CODE,merge=1,delta=2,group=2
    17                           	psect	text5,local,class=CODE,merge=1,delta=2,group=1
    18                           	psect	text6,local,class=CODE,merge=1,delta=2,group=2
    19                           	psect	text7,local,class=CODE,merge=1,delta=2,group=2
    20                           	psect	text8,local,class=CODE,merge=1,delta=2,group=2
    21                           	psect	text9,local,class=CODE,merge=1,delta=2,group=2
    22                           	psect	text10,local,class=CODE,merge=1,delta=2,group=2
    23                           	psect	text11,local,class=CODE,merge=1,delta=2,group=2
    24                           	psect	text12,local,class=CODE,merge=1,delta=2,group=2
    25                           	psect	text13,local,class=CODE,merge=1,delta=2,group=2
    26                           	psect	text14,local,class=CODE,merge=1,delta=2,group=2
    27                           	psect	text15,local,class=CODE,merge=1,delta=2,group=2
    28                           	psect	text16,local,class=CODE,merge=1,delta=2,group=2
    29                           	psect	text17,local,class=CODE,merge=1,delta=2,group=2
    30                           	psect	text18,local,class=CODE,merge=1,delta=2,group=2
    31                           	psect	text19,local,class=CODE,merge=1,delta=2,group=2
    32                           	psect	text20,local,class=CODE,merge=1,delta=2,group=2
    33                           	psect	text21,local,class=CODE,merge=1,delta=2,group=2
    34                           	psect	text22,local,class=CODE,merge=1,delta=2
    35                           	psect	text23,local,class=CODE,merge=1,delta=2,group=2
    36                           	psect	text24,local,class=CODE,merge=1,delta=2
    37                           	psect	text25,local,class=CODE,merge=1,delta=2
    38                           	psect	text26,local,class=CODE,merge=1,delta=2
    39                           	psect	text27,local,class=CODE,merge=1,delta=2
    40                           	psect	text28,local,class=CODE,merge=1,delta=2
    41                           	psect	text29,local,class=CODE,merge=1,delta=2
    42                           	psect	text30,local,class=CODE,merge=1,delta=2
    43                           	psect	intentry,global,class=CODE,delta=2
    44                           	psect	text31,local,class=CODE,merge=1,delta=2
    45                           	psect	text32,local,class=CODE,merge=1,delta=2
    46                           	psect	idloc,global,abs,ovrld,class=IDLOC,space=5,delta=2,noexec
    47                           	psect	config,global,abs,ovrld,class=CONFIG,space=4,delta=2,noexec
    48                           	dabs	1,0x7E,2
    49     0000                     
    50                           ; Version 2.40
    51                           ; Generated 17/11/2021 GMT
    52                           ; 
    53                           ; Copyright © 2021, Microchip Technology Inc. and its subsidiaries ("Microchip")
    54                           ; All rights reserved.
    55                           ; 
    56                           ; This software is developed by Microchip Technology Inc. and its subsidiaries ("Microch
      +                          ip").
    57                           ; 
    58                           ; Redistribution and use in source and binary forms, with or without modification, are
    59                           ; permitted provided that the following conditions are met:
    60                           ; 
    61                           ;     1. Redistributions of source code must retain the above copyright notice, this lis
      +                          t of
    62                           ;        conditions and the following disclaimer.
    63                           ; 
    64                           ;     2. Redistributions in binary form must reproduce the above copyright notice, this 
      +                          list
    65                           ;        of conditions and the following disclaimer in the documentation and/or other
    66                           ;        materials provided with the distribution. Publication is not required when
    67                           ;        this file is used in an embedded application.
    68                           ; 
    69                           ;     3. Microchip's name may not be used to endorse or promote products derived from th
      +                          is
    70                           ;        software without specific prior written permission.
    71                           ; 
    72                           ; THIS SOFTWARE IS PROVIDED BY MICROCHIP "AS IS" AND ANY EXPRESS OR IMPLIED WARRANTIES,
    73                           ; INCLUDING, BUT NOT LIMITED TO, THE IMPLIED WARRANTIES OF MERCHANTABILITY AND FITNESS F
      +                          OR
    74                           ; PURPOSE ARE DISCLAIMED.  IN NO EVENT SHALL MICROCHIP BE LIABLE FOR ANY DIRECT, INDIREC
      +                          T,
    75                           ; INCIDENTAL, SPECIAL, EXEMPLARY, OR CONSEQUENTIAL DAMAGES (INCLUDING BUT NOT LIMITED TO
    76                           ; PROCUREMENT OF SUBSTITUTE GOODS OR SERVICES; LOSS OF USE, DATA OR PROFITS; OR BUSINESS
    77                           ; INTERRUPTION) HOWSOEVER CAUSED AND ON ANY THEORY OF LIABILITY, WHETHER IN CONTRACT, ST
      +                          RICT
    78                           ; LIABILITY, OR TORT (INCLUDING NEGLIGENCE OR OTHERWISE) ARISING IN ANY WAY OUT OF THE U
      +                          SE OF
    79                           ; THIS SOFTWARE, EVEN IF ADVISED OF THE POSSIBILITY OF SUCH DAMAGE.
    80                           ; 
    81                           ; 
    82                           ; Code-generator required, PIC16F887 Definitions
    83                           ; 
    84                           ; SFR Addresses
    85     0000                     	;# 
    86     0001                     	;# 
    87     0002                     	;# 
    88     0003                     	;# 
    89     0004                     	;# 
    90     0005                     	;# 
    91     0006                     	;# 
    92     0007                     	;# 
    93     0008                     	;# 
    94     0009                     	;# 
    95     000A                     	;# 
    96     000B                     	;# 
    97     000C                     	;# 
    98     000D                     	;# 
    99     000E                     	;# 
   100     000E                     	;# 
   101     000F                     	;# 
   102     0010                     	;# 
   103     0011                     	;# 
   104     0012                     	;# 
   105     0013                     	;# 
   106     0014                     	;# 
   107     0015                     	;# 
   108     0015                     	;# 
   109     0016                     	;# 
   110     0017                     	;# 
   111     0018                     	;# 
   112     0019                     	;# 
   113     001A                     	;# 
   114     001B                     	;# 
   115     001B                     	;# 
   116     001C                     	;# 
   117     001D                     	;# 
   118     001E                     	;# 
   119     001F                     	;# 
   120     0081                     	;# 
   121     0085                     	;# 
   122     0086                     	;# 
   123     0087                     	;# 
   124     0088                     	;# 
   125     0089                     	;# 
   126     008C                     	;# 
   127     008D                     	;# 
   128     008E                     	;# 
   129     008F                     	;# 
   130     0090                     	;# 
   131     0091                     	;# 
   132     0092                     	;# 
   133     0093                     	;# 
   134     0093                     	;# 
   135     0093                     	;# 
   136     0094                     	;# 
   137     0095                     	;# 
   138     0096                     	;# 
   139     0097                     	;# 
   140     0098                     	;# 
   141     0099                     	;# 
   142     009A                     	;# 
   143     009B                     	;# 
   144     009C                     	;# 
   145     009D                     	;# 
   146     009E                     	;# 
   147     009F                     	;# 
   148     0105                     	;# 
   149     0107                     	;# 
   150     0108                     	;# 
   151     0109                     	;# 
   152     010C                     	;# 
   153     010C                     	;# 
   154     010D                     	;# 
   155     010E                     	;# 
   156     010F                     	;# 
   157     0185                     	;# 
   158     0187                     	;# 
   159     0188                     	;# 
   160     0189                     	;# 
   161     018C                     	;# 
   162     018D                     	;# 
   163     0000                     	;# 
   164     0001                     	;# 
   165     0002                     	;# 
   166     0003                     	;# 
   167     0004                     	;# 
   168     0005                     	;# 
   169     0006                     	;# 
   170     0007                     	;# 
   171     0008                     	;# 
   172     0009                     	;# 
   173     000A                     	;# 
   174     000B                     	;# 
   175     000C                     	;# 
   176     000D                     	;# 
   177     000E                     	;# 
   178     000E                     	;# 
   179     000F                     	;# 
   180     0010                     	;# 
   181     0011                     	;# 
   182     0012                     	;# 
   183     0013                     	;# 
   184     0014                     	;# 
   185     0015                     	;# 
   186     0015                     	;# 
   187     0016                     	;# 
   188     0017                     	;# 
   189     0018                     	;# 
   190     0019                     	;# 
   191     001A                     	;# 
   192     001B                     	;# 
   193     001B                     	;# 
   194     001C                     	;# 
   195     001D                     	;# 
   196     001E                     	;# 
   197     001F                     	;# 
   198     0081                     	;# 
   199     0085                     	;# 
   200     0086                     	;# 
   201     0087                     	;# 
   202     0088                     	;# 
   203     0089                     	;# 
   204     008C                     	;# 
   205     008D                     	;# 
   206     008E                     	;# 
   207     008F                     	;# 
   208     0090                     	;# 
   209     0091                     	;# 
   210     0092                     	;# 
   211     0093                     	;# 
   212     0093                     	;# 
   213     0093                     	;# 
   214     0094                     	;# 
   215     0095                     	;# 
   216     0096                     	;# 
   217     0097                     	;# 
   218     0098                     	;# 
   219     0099                     	;# 
   220     009A                     	;# 
   221     009B                     	;# 
   222     009C                     	;# 
   223     009D                     	;# 
   224     009E                     	;# 
   225     009F                     	;# 
   226     0105                     	;# 
   227     0107                     	;# 
   228     0108                     	;# 
   229     0109                     	;# 
   230     010C                     	;# 
   231     010C                     	;# 
   232     010D                     	;# 
   233     010E                     	;# 
   234     010F                     	;# 
   235     0185                     	;# 
   236     0187                     	;# 
   237     0188                     	;# 
   238     0189                     	;# 
   239     018C                     	;# 
   240     018D                     	;# 
   241     0000                     	;# 
   242     0001                     	;# 
   243     0002                     	;# 
   244     0003                     	;# 
   245     0004                     	;# 
   246     0005                     	;# 
   247     0006                     	;# 
   248     0007                     	;# 
   249     0008                     	;# 
   250     0009                     	;# 
   251     000A                     	;# 
   252     000B                     	;# 
   253     000C                     	;# 
   254     000D                     	;# 
   255     000E                     	;# 
   256     000E                     	;# 
   257     000F                     	;# 
   258     0010                     	;# 
   259     0011                     	;# 
   260     0012                     	;# 
   261     0013                     	;# 
   262     0014                     	;# 
   263     0015                     	;# 
   264     0015                     	;# 
   265     0016                     	;# 
   266     0017                     	;# 
   267     0018                     	;# 
   268     0019                     	;# 
   269     001A                     	;# 
   270     001B                     	;# 
   271     001B                     	;# 
   272     001C                     	;# 
   273     001D                     	;# 
   274     001E                     	;# 
   275     001F                     	;# 
   276     0081                     	;# 
   277     0085                     	;# 
   278     0086                     	;# 
   279     0087                     	;# 
   280     0088                     	;# 
   281     0089                     	;# 
   282     008C                     	;# 
   283     008D                     	;# 
   284     008E                     	;# 
   285     008F                     	;# 
   286     0090                     	;# 
   287     0091                     	;# 
   288     0092                     	;# 
   289     0093                     	;# 
   290     0093                     	;# 
   291     0093                     	;# 
   292     0094                     	;# 
   293     0095                     	;# 
   294     0096                     	;# 
   295     0097                     	;# 
   296     0098                     	;# 
   297     0099                     	;# 
   298     009A                     	;# 
   299     009B                     	;# 
   300     009C                     	;# 
   301     009D                     	;# 
   302     009E                     	;# 
   303     009F                     	;# 
   304     0105                     	;# 
   305     0107                     	;# 
   306     0108                     	;# 
   307     0109                     	;# 
   308     010C                     	;# 
   309     010C                     	;# 
   310     010D                     	;# 
   311     010E                     	;# 
   312     010F                     	;# 
   313     0185                     	;# 
   314     0187                     	;# 
   315     0188                     	;# 
   316     0189                     	;# 
   317     018C                     	;# 
   318     018D                     	;# 
   319     0000                     	;# 
   320     0001                     	;# 
   321     0002                     	;# 
   322     0003                     	;# 
   323     0004                     	;# 
   324     0005                     	;# 
   325     0006                     	;# 
   326     0007                     	;# 
   327     0008                     	;# 
   328     0009                     	;# 
   329     000A                     	;# 
   330     000B                     	;# 
   331     000C                     	;# 
   332     000D                     	;# 
   333     000E                     	;# 
   334     000E                     	;# 
   335     000F                     	;# 
   336     0010                     	;# 
   337     0011                     	;# 
   338     0012                     	;# 
   339     0013                     	;# 
   340     0014                     	;# 
   341     0015                     	;# 
   342     0015                     	;# 
   343     0016                     	;# 
   344     0017                     	;# 
   345     0018                     	;# 
   346     0019                     	;# 
   347     001A                     	;# 
   348     001B                     	;# 
   349     001B                     	;# 
   350     001C                     	;# 
   351     001D                     	;# 
   352     001E                     	;# 
   353     001F                     	;# 
   354     0081                     	;# 
   355     0085                     	;# 
   356     0086                     	;# 
   357     0087                     	;# 
   358     0088                     	;# 
   359     0089                     	;# 
   360     008C                     	;# 
   361     008D                     	;# 
   362     008E                     	;# 
   363     008F                     	;# 
   364     0090                     	;# 
   365     0091                     	;# 
   366     0092                     	;# 
   367     0093                     	;# 
   368     0093                     	;# 
   369     0093                     	;# 
   370     0094                     	;# 
   371     0095                     	;# 
   372     0096                     	;# 
   373     0097                     	;# 
   374     0098                     	;# 
   375     0099                     	;# 
   376     009A                     	;# 
   377     009B                     	;# 
   378     009C                     	;# 
   379     009D                     	;# 
   380     009E                     	;# 
   381     009F                     	;# 
   382     0105                     	;# 
   383     0107                     	;# 
   384     0108                     	;# 
   385     0109                     	;# 
   386     010C                     	;# 
   387     010C                     	;# 
   388     010D                     	;# 
   389     010E                     	;# 
   390     010F                     	;# 
   391     0185                     	;# 
   392     0187                     	;# 
   393     0188                     	;# 
   394     0189                     	;# 
   395     018C                     	;# 
   396     018D                     	;# 
   397                           
   398                           	psect	strings
   399     1800                     __pstrings:
   400     1800                     stringtab:
   401     1800                     __stringtab:
   402     1800                     stringcode:	
   403                           ;	String table - string pointers are 1 byte each
   404                           
   405     1800                     stringdir:
   406     1800  3018               	movlw	high stringdir
   407     1801  008A               	movwf	10
   408     1802  0804               	movf	4,w
   409     1803  0A84               	incf	4,f
   410     1804  0782               	addwf	2,f
   411     1805                     __stringbase:
   412     1805  3400               	retlw	0
   413     1806                     __end_of__stringtab:
   414     1806                     __powers_:
   415     1806  3400               	retlw	0
   416     1807  3400               	retlw	0
   417     1808  3480               	retlw	128
   418     1809  343F               	retlw	63
   419     180A  3400               	retlw	0
   420     180B  3400               	retlw	0
   421     180C  3420               	retlw	32
   422     180D  3441               	retlw	65
   423     180E  3400               	retlw	0
   424     180F  3400               	retlw	0
   425     1810  34C8               	retlw	200
   426     1811  3442               	retlw	66
   427     1812  3400               	retlw	0
   428     1813  3400               	retlw	0
   429     1814  347A               	retlw	122
   430     1815  3444               	retlw	68
   431     1816  3400               	retlw	0
   432     1817  3440               	retlw	64
   433     1818  341C               	retlw	28
   434     1819  3446               	retlw	70
   435     181A  3400               	retlw	0
   436     181B  3450               	retlw	80
   437     181C  34C3               	retlw	195
   438     181D  3447               	retlw	71
   439     181E  3400               	retlw	0
   440     181F  3424               	retlw	36
   441     1820  3474               	retlw	116
   442     1821  3449               	retlw	73
   443     1822  3480               	retlw	128
   444     1823  3496               	retlw	150
   445     1824  3418               	retlw	24
   446     1825  344B               	retlw	75
   447     1826  3420               	retlw	32
   448     1827  34BC               	retlw	188
   449     1828  34BE               	retlw	190
   450     1829  344C               	retlw	76
   451     182A  3428               	retlw	40
   452     182B  346B               	retlw	107
   453     182C  346E               	retlw	110
   454     182D  344E               	retlw	78
   455     182E  34F9               	retlw	249
   456     182F  3402               	retlw	2
   457     1830  3415               	retlw	21
   458     1831  3450               	retlw	80
   459     1832  34EC               	retlw	236
   460     1833  3478               	retlw	120
   461     1834  34AD               	retlw	173
   462     1835  3460               	retlw	96
   463     1836  34CA               	retlw	202
   464     1837  34F2               	retlw	242
   465     1838  3449               	retlw	73
   466     1839  3471               	retlw	113
   467     183A                     __end_of__powers_:
   468     183A                     __npowers_:
   469     183A  3400               	retlw	0
   470     183B  3400               	retlw	0
   471     183C  3480               	retlw	128
   472     183D  343F               	retlw	63
   473     183E  34CD               	retlw	205
   474     183F  34CC               	retlw	204
   475     1840  34CC               	retlw	204
   476     1841  343D               	retlw	61
   477     1842  340A               	retlw	10
   478     1843  34D7               	retlw	215
   479     1844  3423               	retlw	35
   480     1845  343C               	retlw	60
   481     1846  346F               	retlw	111
   482     1847  3412               	retlw	18
   483     1848  3483               	retlw	131
   484     1849  343A               	retlw	58
   485     184A  3417               	retlw	23
   486     184B  34B7               	retlw	183
   487     184C  34D1               	retlw	209
   488     184D  3438               	retlw	56
   489     184E  34AC               	retlw	172
   490     184F  34C5               	retlw	197
   491     1850  3427               	retlw	39
   492     1851  3437               	retlw	55
   493     1852  34BD               	retlw	189
   494     1853  3437               	retlw	55
   495     1854  3486               	retlw	134
   496     1855  3435               	retlw	53
   497     1856  3495               	retlw	149
   498     1857  34BF               	retlw	191
   499     1858  34D6               	retlw	214
   500     1859  3433               	retlw	51
   501     185A  3477               	retlw	119
   502     185B  34CC               	retlw	204
   503     185C  342B               	retlw	43
   504     185D  3432               	retlw	50
   505     185E  345F               	retlw	95
   506     185F  3470               	retlw	112
   507     1860  3489               	retlw	137
   508     1861  3430               	retlw	48
   509     1862  34FF               	retlw	255
   510     1863  34E6               	retlw	230
   511     1864  34DB               	retlw	219
   512     1865  342E               	retlw	46
   513     1866  3408               	retlw	8
   514     1867  34E5               	retlw	229
   515     1868  343C               	retlw	60
   516     1869  341E               	retlw	30
   517     186A  3460               	retlw	96
   518     186B  3442               	retlw	66
   519     186C  34A2               	retlw	162
   520     186D  340D               	retlw	13
   521     186E                     __end_of__npowers_:
   522     186E                     main@msg:
   523     186E  3441               	retlw	65
   524     186F  3474               	retlw	116
   525     1870  3469               	retlw	105
   526     1871  3463               	retlw	99
   527     1872  346C               	retlw	108
   528     1873  3465               	retlw	101
   529     1874  3457               	retlw	87
   530     1875  346F               	retlw	111
   531     1876  3472               	retlw	114
   532     1877  346C               	retlw	108
   533     1878  3464               	retlw	100
   534     1879  342E               	retlw	46
   535     187A  3463               	retlw	99
   536     187B  346F               	retlw	111
   537     187C  346D               	retlw	109
   538     187D  3400               	retlw	0
   539     187E                     __end_ofmain@msg:
   540     187E                     _dpowers:
   541     187E  3401               	retlw	1
   542     187F  3400               	retlw	0
   543     1880  3400               	retlw	0
   544     1881  3400               	retlw	0
   545     1882  340A               	retlw	10
   546     1883  3400               	retlw	0
   547     1884  3400               	retlw	0
   548     1885  3400               	retlw	0
   549     1886  3464               	retlw	100
   550     1887  3400               	retlw	0
   551     1888  3400               	retlw	0
   552     1889  3400               	retlw	0
   553     188A  34E8               	retlw	232
   554     188B  3403               	retlw	3
   555     188C  3400               	retlw	0
   556     188D  3400               	retlw	0
   557     188E  3410               	retlw	16
   558     188F  3427               	retlw	39
   559     1890  3400               	retlw	0
   560     1891  3400               	retlw	0
   561     1892  34A0               	retlw	160
   562     1893  3486               	retlw	134
   563     1894  3401               	retlw	1
   564     1895  3400               	retlw	0
   565     1896  3440               	retlw	64
   566     1897  3442               	retlw	66
   567     1898  340F               	retlw	15
   568     1899  3400               	retlw	0
   569     189A  3480               	retlw	128
   570     189B  3496               	retlw	150
   571     189C  3498               	retlw	152
   572     189D  3400               	retlw	0
   573     189E  3400               	retlw	0
   574     189F  34E1               	retlw	225
   575     18A0  34F5               	retlw	245
   576     18A1  3405               	retlw	5
   577     18A2  3400               	retlw	0
   578     18A3  34CA               	retlw	202
   579     18A4  349A               	retlw	154
   580     18A5  343B               	retlw	59
   581     18A6                     __end_of_dpowers:
   582     000B                     _INTCONbits	set	11
   583     0007                     _PORTC	set	7
   584     0009                     _PORTE	set	9
   585     001F                     _ADCON0bits	set	31
   586     000C                     _PIR1bits	set	12
   587     0008                     _PORTD	set	8
   588     0008                     _PORTDbits	set	8
   589     001E                     _ADRESH	set	30
   590     003E                     _RC6	set	62
   591     003F                     _RC7	set	63
   592     0043                     _RD3	set	67
   593     0047                     _RD7	set	71
   594     0046                     _RD6	set	70
   595     0045                     _RD5	set	69
   596     0044                     _RD4	set	68
   597     008C                     _PIE1bits	set	140
   598     009F                     _ADCON1bits	set	159
   599     008F                     _OSCCONbits	set	143
   600     0095                     _WPUB	set	149
   601     0081                     _OPTION_REGbits	set	129
   602     0089                     _TRISE	set	137
   603     0087                     _TRISC	set	135
   604     0086                     _TRISB	set	134
   605     0085                     _TRISA	set	133
   606     0088                     _TRISD	set	136
   607     043E                     _TRISC6	set	1086
   608     043F                     _TRISC7	set	1087
   609     0189                     _ANSELH	set	393
   610     0188                     _ANSEL	set	392
   611     18A6                     STR_1:
   612     18A6  3476               	retlw	118	;'v'
   613     18A7  346F               	retlw	111	;'o'
   614     18A8  346C               	retlw	108	;'l'
   615     18A9  3474               	retlw	116	;'t'
   616     18AA  343D               	retlw	61	;'='
   617     18AB  3420               	retlw	32	;' '
   618     18AC  3425               	retlw	37	;'%'
   619     18AD  3466               	retlw	102	;'f'
   620     18AE  3400               	retlw	0
   621                           
   622                           	psect	cinit
   623     0011                     start_initialization:	
   624                           ; #config settings
   625                           
   626     0011                     __initialization:
   627                           
   628                           ; Clear objects allocated to BANK0
   629     0011  1283               	bcf	3,5	;RP0=0, select bank0
   630     0012  1303               	bcf	3,6	;RP1=0, select bank0
   631     0013  01E4               	clrf	__pbssBANK0& (0+127)
   632     0014  01E5               	clrf	(__pbssBANK0+1)& (0+127)
   633     0015  01E6               	clrf	(__pbssBANK0+2)& (0+127)
   634     0016  01E7               	clrf	(__pbssBANK0+3)& (0+127)
   635     0017  01E8               	clrf	(__pbssBANK0+4)& (0+127)
   636     0018  01E9               	clrf	(__pbssBANK0+5)& (0+127)
   637                           
   638                           ; Clear objects allocated to BANK3
   639     0019  1683               	bsf	3,5	;RP0=1, select bank3
   640     001A  1703               	bsf	3,6	;RP1=1, select bank3
   641     001B  01A8               	clrf	__pbssBANK3& (0+127)
   642     001C  01A9               	clrf	(__pbssBANK3+1)& (0+127)
   643     001D  01AA               	clrf	(__pbssBANK3+2)& (0+127)
   644     001E  01AB               	clrf	(__pbssBANK3+3)& (0+127)
   645     001F  01AC               	clrf	(__pbssBANK3+4)& (0+127)
   646     0020  01AD               	clrf	(__pbssBANK3+5)& (0+127)
   647     0021  01AE               	clrf	(__pbssBANK3+6)& (0+127)
   648     0022  01AF               	clrf	(__pbssBANK3+7)& (0+127)
   649     0023                     end_of_initialization:	
   650                           ;End of C runtime variable initialization code
   651                           
   652     0023                     __end_of__initialization:
   653     0023  0183               	clrf	3
   654     0024  120A  118A  2EE7   	ljmp	_main	;jump to C main() function
   655                           
   656                           	psect	bssBANK0
   657     0064                     __pbssBANK0:
   658     0064                     _val:
   659     0064                     	ds	2
   660     0066                     _valpot1:
   661     0066                     	ds	2
   662     0068                     _valpot0:
   663     0068                     	ds	2
   664                           
   665                           	psect	bssBANK3
   666     01A8                     __pbssBANK3:
   667     01A8                     _varvolt:
   668     01A8                     	ds	4
   669     01AC                     _i:
   670     01AC                     	ds	2
   671     01AE                     _CMCON:
   672     01AE                     	ds	2
   673                           
   674                           	psect	cstackBANK3
   675     0190                     __pcstackBANK3:
   676     0190                     main@s:
   677                           
   678                           ; 20 bytes @ 0x0
   679     0190                     	ds	20
   680     01A4                     main@varvolt2:
   681                           
   682                           ; 4 bytes @ 0x14
   683     01A4                     	ds	4
   684                           
   685                           	psect	cstackBANK1
   686     00A0                     __pcstackBANK1:
   687     00A0                     ?___fltol:
   688     00A0                     ?___fladd:	
   689                           ; 4 bytes @ 0x0
   690                           
   691     00A0                     ___fltol@f1:	
   692                           ; 4 bytes @ 0x0
   693                           
   694     00A0                     ___fladd@b:	
   695                           ; 4 bytes @ 0x0
   696                           
   697     00A0                     ___fldiv@rem:	
   698                           ; 4 bytes @ 0x0
   699                           
   700                           
   701                           ; 4 bytes @ 0x0
   702     00A0                     	ds	4
   703     00A4                     ??___fltol:
   704     00A4                     ___fldiv@sign:	
   705                           ; 1 bytes @ 0x4
   706                           
   707     00A4                     ___fladd@a:	
   708                           ; 1 bytes @ 0x4
   709                           
   710                           
   711                           ; 4 bytes @ 0x4
   712     00A4                     	ds	1
   713     00A5                     ___fldiv@new_exp:
   714                           
   715                           ; 2 bytes @ 0x5
   716     00A5                     	ds	2
   717     00A7                     ___fldiv@grs:
   718                           
   719                           ; 4 bytes @ 0x7
   720     00A7                     	ds	1
   721     00A8                     ??___fladd:
   722     00A8                     ___fltol@sign1:	
   723                           ; 1 bytes @ 0x8
   724                           
   725                           
   726                           ; 1 bytes @ 0x8
   727     00A8                     	ds	1
   728     00A9                     ___fltol@exp1:
   729                           
   730                           ; 1 bytes @ 0x9
   731     00A9                     	ds	2
   732     00AB                     ___fldiv@bexp:
   733                           
   734                           ; 1 bytes @ 0xB
   735     00AB                     	ds	1
   736     00AC                     ___fldiv@aexp:
   737                           
   738                           ; 1 bytes @ 0xC
   739     00AC                     	ds	4
   740     00B0                     ___fladd@signs:
   741                           
   742                           ; 1 bytes @ 0x10
   743     00B0                     	ds	1
   744     00B1                     ___fladd@aexp:
   745                           
   746                           ; 1 bytes @ 0x11
   747     00B1                     	ds	1
   748     00B2                     ___fladd@bexp:
   749                           
   750                           ; 1 bytes @ 0x12
   751     00B2                     	ds	1
   752     00B3                     ___fladd@grs:
   753                           
   754                           ; 1 bytes @ 0x13
   755     00B3                     	ds	1
   756     00B4                     ?___flsub:
   757     00B4                     ___flsub@a:	
   758                           ; 4 bytes @ 0x14
   759                           
   760                           
   761                           ; 4 bytes @ 0x14
   762     00B4                     	ds	4
   763     00B8                     ___flsub@b:
   764                           
   765                           ; 4 bytes @ 0x18
   766     00B8                     	ds	4
   767     00BC                     ?_sprintf:
   768     00BC                     sprintf@f:	
   769                           ; 2 bytes @ 0x1C
   770                           
   771                           
   772                           ; 1 bytes @ 0x1C
   773     00BC                     	ds	5
   774     00C1                     ??_sprintf:
   775                           
   776                           ; 1 bytes @ 0x21
   777     00C1                     	ds	5
   778     00C6                     _sprintf$1079:
   779                           
   780                           ; 4 bytes @ 0x26
   781     00C6                     	ds	4
   782     00CA                     sprintf@ap:
   783                           
   784                           ; 1 bytes @ 0x2A
   785     00CA                     	ds	1
   786     00CB                     sprintf@flag:
   787                           
   788                           ; 2 bytes @ 0x2B
   789     00CB                     	ds	2
   790     00CD                     sprintf@prec:
   791                           
   792                           ; 2 bytes @ 0x2D
   793     00CD                     	ds	2
   794     00CF                     sprintf@val:
   795                           
   796                           ; 4 bytes @ 0x2F
   797     00CF                     	ds	4
   798     00D3                     sprintf@eexp:
   799                           
   800                           ; 2 bytes @ 0x33
   801     00D3                     	ds	2
   802     00D5                     sprintf@sp:
   803                           
   804                           ; 1 bytes @ 0x35
   805     00D5                     	ds	1
   806     00D6                     sprintf@tmpval:
   807                           
   808                           ; 4 bytes @ 0x36
   809     00D6                     	ds	4
   810     00DA                     sprintf@fval:
   811                           
   812                           ; 4 bytes @ 0x3A
   813     00DA                     	ds	4
   814     00DE                     sprintf@c:
   815                           
   816                           ; 1 bytes @ 0x3E
   817     00DE                     	ds	1
   818     00DF                     ??_main:
   819                           
   820                           ; 1 bytes @ 0x3F
   821     00DF                     	ds	1
   822                           
   823                           	psect	cstackCOMMON
   824     0070                     __pcstackCOMMON:
   825     0070                     ?_setup:
   826     0070                     ?_ToggleEpinOfLCD:	
   827                           ; 1 bytes @ 0x0
   828                           
   829     0070                     ?_WriteCommandToLCD:	
   830                           ; 1 bytes @ 0x0
   831                           
   832     0070                     ?_WriteDataToLCD:	
   833                           ; 1 bytes @ 0x0
   834                           
   835     0070                     ?_InitLCD:	
   836                           ; 1 bytes @ 0x0
   837                           
   838     0070                     ?_WriteStringToLCD:	
   839                           ; 1 bytes @ 0x0
   840                           
   841     0070                     ?_ClearLCDScreen:	
   842                           ; 1 bytes @ 0x0
   843                           
   844     0070                     ?_isr:	
   845                           ; 1 bytes @ 0x0
   846                           
   847     0070                     ?_main:	
   848                           ; 1 bytes @ 0x0
   849                           
   850     0070                     ?i1___awdiv:	
   851                           ; 1 bytes @ 0x0
   852                           
   853     0070                     ?i1___xxtofl:	
   854                           ; 2 bytes @ 0x0
   855                           
   856     0070                     i1___awdiv@divisor:	
   857                           ; 4 bytes @ 0x0
   858                           
   859     0070                     i1___xxtofl@val:	
   860                           ; 2 bytes @ 0x0
   861                           
   862                           
   863                           ; 4 bytes @ 0x0
   864     0070                     	ds	2
   865     0072                     i1___awdiv@dividend:
   866                           
   867                           ; 2 bytes @ 0x2
   868     0072                     	ds	2
   869     0074                     ??i1___awdiv:
   870     0074                     ??i1___xxtofl:	
   871                           ; 1 bytes @ 0x4
   872                           
   873                           
   874                           ; 1 bytes @ 0x4
   875     0074                     	ds	1
   876     0075                     i1___awdiv@counter:
   877                           
   878                           ; 1 bytes @ 0x5
   879     0075                     	ds	1
   880     0076                     i1___awdiv@sign:
   881                           
   882                           ; 1 bytes @ 0x6
   883     0076                     	ds	1
   884     0077                     i1___awdiv@quotient:
   885                           
   886                           ; 2 bytes @ 0x7
   887     0077                     	ds	1
   888     0078                     i1___xxtofl@sign:
   889                           
   890                           ; 1 bytes @ 0x8
   891     0078                     	ds	1
   892     0079                     i1___xxtofl@exp:
   893                           
   894                           ; 1 bytes @ 0x9
   895     0079                     	ds	1
   896     007A                     i1___xxtofl@arg:
   897                           
   898                           ; 4 bytes @ 0xA
   899     007A                     	ds	4
   900                           
   901                           	psect	cstackBANK0
   902     0020                     __pcstackBANK0:
   903     0020                     ??_isr:
   904                           
   905                           ; 1 bytes @ 0x0
   906     0020                     	ds	6
   907     0026                     ?___fleq:
   908     0026                     ?___flge:	
   909                           ; 1 bit 
   910                           
   911     0026                     ??_setup:	
   912                           ; 1 bit 
   913                           
   914     0026                     ??_ToggleEpinOfLCD:	
   915                           ; 1 bytes @ 0x6
   916                           
   917     0026                     ?__Umul8_16:	
   918                           ; 1 bytes @ 0x6
   919                           
   920     0026                     ?___wmul:	
   921                           ; 2 bytes @ 0x6
   922                           
   923     0026                     ?___awmod:	
   924                           ; 2 bytes @ 0x6
   925                           
   926     0026                     ?___lwmod:	
   927                           ; 2 bytes @ 0x6
   928                           
   929     0026                     ?__tdiv_to_l_:	
   930                           ; 2 bytes @ 0x6
   931                           
   932     0026                     ?__div_to_l_:	
   933                           ; 4 bytes @ 0x6
   934                           
   935     0026                     ?___lldiv:	
   936                           ; 4 bytes @ 0x6
   937                           
   938     0026                     ?___flneg:	
   939                           ; 4 bytes @ 0x6
   940                           
   941     0026                     ?___llmod:	
   942                           ; 4 bytes @ 0x6
   943                           
   944     0026                     ?___xxtofl:	
   945                           ; 4 bytes @ 0x6
   946                           
   947     0026                     __Umul8_16@multiplicand:	
   948                           ; 4 bytes @ 0x6
   949                           
   950     0026                     ___wmul@multiplier:	
   951                           ; 1 bytes @ 0x6
   952                           
   953     0026                     ___awmod@divisor:	
   954                           ; 2 bytes @ 0x6
   955                           
   956     0026                     ___lwmod@divisor:	
   957                           ; 2 bytes @ 0x6
   958                           
   959     0026                     ___lldiv@divisor:	
   960                           ; 2 bytes @ 0x6
   961                           
   962     0026                     __div_to_l_@f1:	
   963                           ; 4 bytes @ 0x6
   964                           
   965     0026                     ___fleq@ff1:	
   966                           ; 4 bytes @ 0x6
   967                           
   968     0026                     ___flge@ff1:	
   969                           ; 4 bytes @ 0x6
   970                           
   971     0026                     ___flneg@f1:	
   972                           ; 4 bytes @ 0x6
   973                           
   974     0026                     __tdiv_to_l_@f1:	
   975                           ; 4 bytes @ 0x6
   976                           
   977     0026                     ___llmod@divisor:	
   978                           ; 4 bytes @ 0x6
   979                           
   980     0026                     ___xxtofl@val:	
   981                           ; 4 bytes @ 0x6
   982                           
   983                           
   984                           ; 4 bytes @ 0x6
   985     0026                     	ds	1
   986     0027                     ??_WriteCommandToLCD:
   987     0027                     ??_WriteDataToLCD:	
   988                           ; 1 bytes @ 0x7
   989                           
   990     0027                     WriteCommandToLCD@Command:	
   991                           ; 1 bytes @ 0x7
   992                           
   993     0027                     WriteDataToLCD@LCDChar:	
   994                           ; 1 bytes @ 0x7
   995                           
   996                           
   997                           ; 1 bytes @ 0x7
   998     0027                     	ds	1
   999     0028                     ??__Umul8_16:
  1000     0028                     ??_InitLCD:	
  1001                           ; 1 bytes @ 0x8
  1002                           
  1003     0028                     ??_WriteStringToLCD:	
  1004                           ; 1 bytes @ 0x8
  1005                           
  1006     0028                     ??_ClearLCDScreen:	
  1007                           ; 1 bytes @ 0x8
  1008                           
  1009     0028                     ___wmul@multiplicand:	
  1010                           ; 1 bytes @ 0x8
  1011                           
  1012     0028                     ___awmod@dividend:	
  1013                           ; 2 bytes @ 0x8
  1014                           
  1015     0028                     ___lwmod@dividend:	
  1016                           ; 2 bytes @ 0x8
  1017                           
  1018                           
  1019                           ; 2 bytes @ 0x8
  1020     0028                     	ds	1
  1021     0029                     WriteStringToLCD@s:
  1022                           
  1023                           ; 1 bytes @ 0x9
  1024     0029                     	ds	1
  1025     002A                     ??___wmul:
  1026     002A                     ??___awmod:	
  1027                           ; 1 bytes @ 0xA
  1028                           
  1029     002A                     ??___flneg:	
  1030                           ; 1 bytes @ 0xA
  1031                           
  1032     002A                     ??___lwmod:	
  1033                           ; 1 bytes @ 0xA
  1034                           
  1035     002A                     ??___xxtofl:	
  1036                           ; 1 bytes @ 0xA
  1037                           
  1038     002A                     ___wmul@product:	
  1039                           ; 1 bytes @ 0xA
  1040                           
  1041     002A                     __Umul8_16@product:	
  1042                           ; 2 bytes @ 0xA
  1043                           
  1044     002A                     ___lldiv@dividend:	
  1045                           ; 2 bytes @ 0xA
  1046                           
  1047     002A                     __div_to_l_@f2:	
  1048                           ; 4 bytes @ 0xA
  1049                           
  1050     002A                     ___fleq@ff2:	
  1051                           ; 4 bytes @ 0xA
  1052                           
  1053     002A                     ___flge@ff2:	
  1054                           ; 4 bytes @ 0xA
  1055                           
  1056     002A                     __tdiv_to_l_@f2:	
  1057                           ; 4 bytes @ 0xA
  1058                           
  1059     002A                     ___llmod@dividend:	
  1060                           ; 4 bytes @ 0xA
  1061                           
  1062                           
  1063                           ; 4 bytes @ 0xA
  1064     002A                     	ds	1
  1065     002B                     ___awmod@counter:
  1066     002B                     ___lwmod@counter:	
  1067                           ; 1 bytes @ 0xB
  1068                           
  1069                           
  1070                           ; 1 bytes @ 0xB
  1071     002B                     	ds	1
  1072     002C                     ?___lwdiv:
  1073     002C                     ___awmod@sign:	
  1074                           ; 2 bytes @ 0xC
  1075                           
  1076     002C                     ___lwdiv@divisor:	
  1077                           ; 1 bytes @ 0xC
  1078                           
  1079     002C                     __Umul8_16@word_mpld:	
  1080                           ; 2 bytes @ 0xC
  1081                           
  1082                           
  1083                           ; 2 bytes @ 0xC
  1084     002C                     	ds	1
  1085     002D                     ?___awdiv:
  1086     002D                     ___awdiv@divisor:	
  1087                           ; 2 bytes @ 0xD
  1088                           
  1089                           
  1090                           ; 2 bytes @ 0xD
  1091     002D                     	ds	1
  1092     002E                     ??__tdiv_to_l_:
  1093     002E                     ??__div_to_l_:	
  1094                           ; 1 bytes @ 0xE
  1095                           
  1096     002E                     ??___lldiv:	
  1097                           ; 1 bytes @ 0xE
  1098                           
  1099     002E                     ??___fleq:	
  1100                           ; 1 bytes @ 0xE
  1101                           
  1102     002E                     ??___flge:	
  1103                           ; 1 bytes @ 0xE
  1104                           
  1105     002E                     ??___llmod:	
  1106                           ; 1 bytes @ 0xE
  1107                           
  1108     002E                     __Umul8_16@multiplier:	
  1109                           ; 1 bytes @ 0xE
  1110                           
  1111     002E                     ___xxtofl@sign:	
  1112                           ; 1 bytes @ 0xE
  1113                           
  1114     002E                     ___lwdiv@dividend:	
  1115                           ; 1 bytes @ 0xE
  1116                           
  1117                           
  1118                           ; 2 bytes @ 0xE
  1119     002E                     	ds	1
  1120     002F                     ___llmod@counter:
  1121     002F                     ___xxtofl@exp:	
  1122                           ; 1 bytes @ 0xF
  1123                           
  1124     002F                     ___awdiv@dividend:	
  1125                           ; 1 bytes @ 0xF
  1126                           
  1127     002F                     ___lldiv@quotient:	
  1128                           ; 2 bytes @ 0xF
  1129                           
  1130     002F                     __div_to_l_@quot:	
  1131                           ; 4 bytes @ 0xF
  1132                           
  1133                           
  1134                           ; 4 bytes @ 0xF
  1135     002F                     	ds	1
  1136     0030                     ??___lwdiv:
  1137     0030                     ___xxtofl@arg:	
  1138                           ; 1 bytes @ 0x10
  1139                           
  1140                           
  1141                           ; 4 bytes @ 0x10
  1142     0030                     	ds	1
  1143     0031                     ??___awdiv:
  1144     0031                     ___lwdiv@quotient:	
  1145                           ; 1 bytes @ 0x11
  1146                           
  1147     0031                     __tdiv_to_l_@quot:	
  1148                           ; 2 bytes @ 0x11
  1149                           
  1150                           
  1151                           ; 4 bytes @ 0x11
  1152     0031                     	ds	1
  1153     0032                     ___awdiv@counter:
  1154                           
  1155                           ; 1 bytes @ 0x12
  1156     0032                     	ds	1
  1157     0033                     ___lldiv@counter:
  1158     0033                     ___awdiv@sign:	
  1159                           ; 1 bytes @ 0x13
  1160                           
  1161     0033                     __div_to_l_@cntr:	
  1162                           ; 1 bytes @ 0x13
  1163                           
  1164     0033                     ___lwdiv@counter:	
  1165                           ; 1 bytes @ 0x13
  1166                           
  1167                           
  1168                           ; 1 bytes @ 0x13
  1169     0033                     	ds	1
  1170     0034                     __div_to_l_@exp1:
  1171     0034                     ___awdiv@quotient:	
  1172                           ; 1 bytes @ 0x14
  1173                           
  1174                           
  1175                           ; 2 bytes @ 0x14
  1176     0034                     	ds	1
  1177     0035                     __tdiv_to_l_@cntr:
  1178                           
  1179                           ; 1 bytes @ 0x15
  1180     0035                     	ds	1
  1181     0036                     ?___flmul:
  1182     0036                     __tdiv_to_l_@exp1:	
  1183                           ; 4 bytes @ 0x16
  1184                           
  1185     0036                     ___flmul@b:	
  1186                           ; 1 bytes @ 0x16
  1187                           
  1188                           
  1189                           ; 4 bytes @ 0x16
  1190     0036                     	ds	4
  1191     003A                     ___flmul@a:
  1192                           
  1193                           ; 4 bytes @ 0x1A
  1194     003A                     	ds	4
  1195     003E                     ??___flmul:
  1196                           
  1197                           ; 1 bytes @ 0x1E
  1198     003E                     	ds	5
  1199     0043                     ___flmul@sign:
  1200                           
  1201                           ; 1 bytes @ 0x23
  1202     0043                     	ds	1
  1203     0044                     ___flmul@grs:
  1204                           
  1205                           ; 4 bytes @ 0x24
  1206     0044                     	ds	4
  1207     0048                     ___flmul@aexp:
  1208                           
  1209                           ; 1 bytes @ 0x28
  1210     0048                     	ds	1
  1211     0049                     ___flmul@bexp:
  1212                           
  1213                           ; 1 bytes @ 0x29
  1214     0049                     	ds	1
  1215     004A                     ___flmul@prod:
  1216                           
  1217                           ; 4 bytes @ 0x2A
  1218     004A                     	ds	4
  1219     004E                     ___flmul@temp:
  1220                           
  1221                           ; 2 bytes @ 0x2E
  1222     004E                     	ds	2
  1223     0050                     ?_fround:
  1224     0050                     ?_scale:	
  1225                           ; 4 bytes @ 0x30
  1226                           
  1227     0050                     ?___fldiv:	
  1228                           ; 4 bytes @ 0x30
  1229                           
  1230     0050                     ___fldiv@a:	
  1231                           ; 4 bytes @ 0x30
  1232                           
  1233                           
  1234                           ; 4 bytes @ 0x30
  1235     0050                     	ds	4
  1236     0054                     ??_fround:
  1237     0054                     ??_scale:	
  1238                           ; 1 bytes @ 0x34
  1239                           
  1240     0054                     ___fldiv@b:	
  1241                           ; 1 bytes @ 0x34
  1242                           
  1243                           
  1244                           ; 4 bytes @ 0x34
  1245     0054                     	ds	4
  1246     0058                     ??___fldiv:
  1247                           
  1248                           ; 1 bytes @ 0x38
  1249     0058                     	ds	3
  1250     005B                     _fround$1077:
  1251                           
  1252                           ; 4 bytes @ 0x3B
  1253     005B                     	ds	3
  1254     005E                     _scale$1078:
  1255                           
  1256                           ; 4 bytes @ 0x3E
  1257     005E                     	ds	1
  1258     005F                     _fround$1076:
  1259                           
  1260                           ; 4 bytes @ 0x3F
  1261     005F                     	ds	3
  1262     0062                     scale@scl:
  1263                           
  1264                           ; 1 bytes @ 0x42
  1265     0062                     	ds	1
  1266     0063                     fround@prec:
  1267                           
  1268                           ; 1 bytes @ 0x43
  1269     0063                     	ds	1
  1270     0064                     ??___flsub:
  1271                           
  1272                           	psect	maintext
  1273     06E7                     __pmaintext:	
  1274                           ; 1 bytes @ 0x44
  1275 ;;
  1276 ;;Main: autosize = 0, tempsize = 1, incstack = 0, save=0
  1277 ;;
  1278 ;; *************** function _main *****************
  1279 ;; Defined at:
  1280 ;;		line 57 in file "Lab2.c"
  1281 ;; Parameters:    Size  Location     Type
  1282 ;;		None
  1283 ;; Auto vars:     Size  Location     Type
  1284 ;;  s              20    0[BANK3 ] unsigned char [20]
  1285 ;;  varvolt2        4   20[BANK3 ] float 
  1286 ;; Return value:  Size  Location     Type
  1287 ;;                  1    wreg      void 
  1288 ;; Registers used:
  1289 ;;		wreg, fsr0l, fsr0h, status,2, status,0, btemp+1, pclath, cstack
  1290 ;; Tracked objects:
  1291 ;;		On entry : B00/0
  1292 ;;		On exit  : 0/0
  1293 ;;		Unchanged: 0/0
  1294 ;; Data sizes:     COMMON   BANK0   BANK1   BANK3   BANK2
  1295 ;;      Params:         0       0       0       0       0
  1296 ;;      Locals:         0       0       0      24       0
  1297 ;;      Temps:          0       0       1       0       0
  1298 ;;      Totals:         0       0       1      24       0
  1299 ;;Total ram usage:       25 bytes
  1300 ;; Hardware stack levels required when called: 6
  1301 ;; This function calls:
  1302 ;;		_ClearLCDScreen
  1303 ;;		_InitLCD
  1304 ;;		_WriteStringToLCD
  1305 ;;		___fldiv
  1306 ;;		___flmul
  1307 ;;		_setup
  1308 ;;		_sprintf
  1309 ;; This function is called by:
  1310 ;;		Startup code after reset
  1311 ;; This function uses a non-reentrant model
  1312 ;;
  1313                           
  1314     06E7                     _main:	
  1315                           ;psect for function _main
  1316                           
  1317     06E7                     l4366:	
  1318                           ;incstack = 0
  1319                           ; Regs used in _main: [wreg-fsr0h+status,2+status,0+btemp+1+pclath+cstack]
  1320                           
  1321                           
  1322                           ;Lab2.c: 65:  setup();
  1323     06E7  160A  158A  2320  120A  118A  	fcall	_setup
  1324     06EC                     l4368:
  1325                           
  1326                           ;Lab2.c: 66:  ADCON0bits.GO =1;
  1327     06EC  1283               	bcf	3,5	;RP0=0, select bank0
  1328     06ED  1303               	bcf	3,6	;RP1=0, select bank0
  1329     06EE  149F               	bsf	31,1	;volatile
  1330     06EF                     l4370:
  1331                           
  1332                           ;Lab2.c: 67:  i=0;
  1333     06EF  1683               	bsf	3,5	;RP0=1, select bank3
  1334     06F0  1703               	bsf	3,6	;RP1=1, select bank3
  1335     06F1  01AC               	clrf	_i^(0+384)
  1336     06F2  01AD               	clrf	(_i+1)^(0+384)
  1337     06F3                     l4372:
  1338                           
  1339                           ;Lab2.c: 68: CMCON = 0x07;
  1340     06F3  3007               	movlw	7
  1341     06F4  00AE               	movwf	_CMCON^(0+384)
  1342     06F5  3000               	movlw	0
  1343     06F6  00AF               	movwf	(_CMCON^(0+384)+1)
  1344     06F7                     l4374:
  1345                           
  1346                           ;Lab2.c: 69:     InitLCD();
  1347     06F7  160A  158A  22AD  120A  118A  	fcall	_InitLCD
  1348     06FC                     l4376:
  1349                           
  1350                           ;Lab2.c: 70:      ClearLCDScreen();
  1351     06FC  160A  158A  2269  120A  118A  	fcall	_ClearLCDScreen
  1352     0701                     l4378:
  1353                           
  1354                           ;Lab2.c: 74:      if (ADCON0bits.GO ==0){
  1355     0701  1283               	bcf	3,5	;RP0=0, select bank0
  1356     0702  1303               	bcf	3,6	;RP1=0, select bank0
  1357     0703  189F               	btfsc	31,1	;volatile
  1358     0704  2F06               	goto	u7401
  1359     0705  2F07               	goto	u7400
  1360     0706                     u7401:
  1361     0706  2F34               	goto	l4394
  1362     0707                     u7400:
  1363     0707                     l4380:
  1364                           
  1365                           ;Lab2.c: 75:            for (i=0;i<=2;i++){
  1366     0707  1683               	bsf	3,5	;RP0=1, select bank3
  1367     0708  1703               	bsf	3,6	;RP1=1, select bank3
  1368     0709  01AC               	clrf	_i^(0+384)
  1369     070A  01AD               	clrf	(_i+1)^(0+384)
  1370     070B                     l4386:
  1371                           
  1372                           ;Lab2.c: 76:            ADCON0bits.CHS = i;
  1373     070B  1683               	bsf	3,5	;RP0=1, select bank3
  1374     070C  1703               	bsf	3,6	;RP1=1, select bank3
  1375     070D  082C               	movf	_i^(0+384),w
  1376     070E  1683               	bsf	3,5	;RP0=1, select bank1
  1377     070F  1303               	bcf	3,6	;RP1=0, select bank1
  1378     0710  00DF               	movwf	??_main^(0+128)
  1379     0711  0DDF               	rlf	??_main^(0+128),f
  1380     0712  0DDF               	rlf	??_main^(0+128),f
  1381     0713  1283               	bcf	3,5	;RP0=0, select bank0
  1382     0714  1303               	bcf	3,6	;RP1=0, select bank0
  1383     0715  081F               	movf	31,w	;volatile
  1384     0716  1683               	bsf	3,5	;RP0=1, select bank1
  1385     0717  1303               	bcf	3,6	;RP1=0, select bank1
  1386     0718  065F               	xorwf	??_main^(0+128),w
  1387     0719  39C3               	andlw	-61
  1388     071A  065F               	xorwf	??_main^(0+128),w
  1389     071B  1283               	bcf	3,5	;RP0=0, select bank0
  1390     071C  1303               	bcf	3,6	;RP1=0, select bank0
  1391     071D  009F               	movwf	31	;volatile
  1392     071E                     l4388:
  1393                           
  1394                           ;Lab2.c: 77:            ADCON0bits.GO =1;
  1395     071E  149F               	bsf	31,1	;volatile
  1396     071F                     l4390:
  1397                           
  1398                           ;Lab2.c: 78:         }
  1399     071F  3001               	movlw	1
  1400     0720  1683               	bsf	3,5	;RP0=1, select bank3
  1401     0721  1703               	bsf	3,6	;RP1=1, select bank3
  1402     0722  07AC               	addwf	_i^(0+384),f
  1403     0723  1803               	skipnc
  1404     0724  0AAD               	incf	(_i+1)^(0+384),f
  1405     0725  3000               	movlw	0
  1406     0726  07AD               	addwf	(_i+1)^(0+384),f
  1407     0727                     l4392:
  1408     0727  082D               	movf	(_i+1)^(0+384),w
  1409     0728  3A80               	xorlw	128
  1410     0729  00FF               	movwf	btemp+1
  1411     072A  3080               	movlw	128
  1412     072B  027F               	subwf	btemp+1,w
  1413     072C  1D03               	skipz
  1414     072D  2F30               	goto	u7415
  1415     072E  3003               	movlw	3
  1416     072F  022C               	subwf	_i^(0+384),w
  1417     0730                     u7415:
  1418     0730  1C03               	skipc
  1419     0731  2F33               	goto	u7411
  1420     0732  2F34               	goto	u7410
  1421     0733                     u7411:
  1422     0733  2F0B               	goto	l4386
  1423     0734                     u7410:
  1424     0734                     l4394:
  1425                           
  1426                           ;Lab2.c: 81:      char s[20];;Lab2.c: 83: float varvolt2 = (varvolt*5)/255 ;
  1427     0734  3043               	movlw	67
  1428     0735  1283               	bcf	3,5	;RP0=0, select bank0
  1429     0736  1303               	bcf	3,6	;RP1=0, select bank0
  1430     0737  00D3               	movwf	___fldiv@a+3
  1431     0738  307F               	movlw	127
  1432     0739  00D2               	movwf	___fldiv@a+2
  1433     073A  3000               	movlw	0
  1434     073B  00D1               	movwf	___fldiv@a+1
  1435     073C  3000               	movlw	0
  1436     073D  00D0               	movwf	___fldiv@a
  1437     073E  3040               	movlw	64
  1438     073F  00B9               	movwf	___flmul@b+3
  1439     0740  30A0               	movlw	160
  1440     0741  00B8               	movwf	___flmul@b+2
  1441     0742  3000               	movlw	0
  1442     0743  00B7               	movwf	___flmul@b+1
  1443     0744  3000               	movlw	0
  1444     0745  00B6               	movwf	___flmul@b
  1445     0746  1683               	bsf	3,5	;RP0=1, select bank3
  1446     0747  1703               	bsf	3,6	;RP1=1, select bank3
  1447     0748  082B               	movf	(_varvolt+3)^(0+384),w
  1448     0749  1283               	bcf	3,5	;RP0=0, select bank0
  1449     074A  1303               	bcf	3,6	;RP1=0, select bank0
  1450     074B  00BD               	movwf	___flmul@a+3
  1451     074C  1683               	bsf	3,5	;RP0=1, select bank3
  1452     074D  1703               	bsf	3,6	;RP1=1, select bank3
  1453     074E  082A               	movf	(_varvolt+2)^(0+384),w
  1454     074F  1283               	bcf	3,5	;RP0=0, select bank0
  1455     0750  1303               	bcf	3,6	;RP1=0, select bank0
  1456     0751  00BC               	movwf	___flmul@a+2
  1457     0752  1683               	bsf	3,5	;RP0=1, select bank3
  1458     0753  1703               	bsf	3,6	;RP1=1, select bank3
  1459     0754  0829               	movf	(_varvolt+1)^(0+384),w
  1460     0755  1283               	bcf	3,5	;RP0=0, select bank0
  1461     0756  1303               	bcf	3,6	;RP1=0, select bank0
  1462     0757  00BB               	movwf	___flmul@a+1
  1463     0758  1683               	bsf	3,5	;RP0=1, select bank3
  1464     0759  1703               	bsf	3,6	;RP1=1, select bank3
  1465     075A  0828               	movf	_varvolt^(0+384),w
  1466     075B  1283               	bcf	3,5	;RP0=0, select bank0
  1467     075C  1303               	bcf	3,6	;RP1=0, select bank0
  1468     075D  00BA               	movwf	___flmul@a
  1469     075E  120A  158A  2158  120A  118A  	fcall	___flmul
  1470     0763  1283               	bcf	3,5	;RP0=0, select bank0
  1471     0764  1303               	bcf	3,6	;RP1=0, select bank0
  1472     0765  0839               	movf	?___flmul+3,w
  1473     0766  00D7               	movwf	___fldiv@b+3
  1474     0767  0838               	movf	?___flmul+2,w
  1475     0768  00D6               	movwf	___fldiv@b+2
  1476     0769  0837               	movf	?___flmul+1,w
  1477     076A  00D5               	movwf	___fldiv@b+1
  1478     076B  0836               	movf	?___flmul,w
  1479     076C  00D4               	movwf	___fldiv@b
  1480     076D  160A  118A  256E  120A  118A  	fcall	___fldiv
  1481     0772  1283               	bcf	3,5	;RP0=0, select bank0
  1482     0773  1303               	bcf	3,6	;RP1=0, select bank0
  1483     0774  0853               	movf	?___fldiv+3,w
  1484     0775  1683               	bsf	3,5	;RP0=1, select bank3
  1485     0776  1703               	bsf	3,6	;RP1=1, select bank3
  1486     0777  00A7               	movwf	(main@varvolt2+3)^(0+384)
  1487     0778  1283               	bcf	3,5	;RP0=0, select bank0
  1488     0779  1303               	bcf	3,6	;RP1=0, select bank0
  1489     077A  0852               	movf	?___fldiv+2,w
  1490     077B  1683               	bsf	3,5	;RP0=1, select bank3
  1491     077C  1703               	bsf	3,6	;RP1=1, select bank3
  1492     077D  00A6               	movwf	(main@varvolt2+2)^(0+384)
  1493     077E  1283               	bcf	3,5	;RP0=0, select bank0
  1494     077F  1303               	bcf	3,6	;RP1=0, select bank0
  1495     0780  0851               	movf	?___fldiv+1,w
  1496     0781  1683               	bsf	3,5	;RP0=1, select bank3
  1497     0782  1703               	bsf	3,6	;RP1=1, select bank3
  1498     0783  00A5               	movwf	(main@varvolt2+1)^(0+384)
  1499     0784  1283               	bcf	3,5	;RP0=0, select bank0
  1500     0785  1303               	bcf	3,6	;RP1=0, select bank0
  1501     0786  0850               	movf	?___fldiv,w
  1502     0787  1683               	bsf	3,5	;RP0=1, select bank3
  1503     0788  1703               	bsf	3,6	;RP1=1, select bank3
  1504     0789  00A4               	movwf	main@varvolt2^(0+384)
  1505     078A                     l4396:
  1506                           
  1507                           ;Lab2.c: 85:         sprintf(s, "volt= %f", varvolt2);
  1508     078A  30A1               	movlw	(low ((STR_1-__stringbase)| (0+32768)))& (0+255)
  1509     078B  1683               	bsf	3,5	;RP0=1, select bank1
  1510     078C  1303               	bcf	3,6	;RP1=0, select bank1
  1511     078D  00BC               	movwf	sprintf@f^(0+128)
  1512     078E  1683               	bsf	3,5	;RP0=1, select bank3
  1513     078F  1703               	bsf	3,6	;RP1=1, select bank3
  1514     0790  0827               	movf	(main@varvolt2+3)^(0+384),w
  1515     0791  1683               	bsf	3,5	;RP0=1, select bank1
  1516     0792  1303               	bcf	3,6	;RP1=0, select bank1
  1517     0793  00C0               	movwf	((?_sprintf+3)^(0+128)+1)
  1518     0794  1683               	bsf	3,5	;RP0=1, select bank3
  1519     0795  1703               	bsf	3,6	;RP1=1, select bank3
  1520     0796  0826               	movf	(main@varvolt2+2)^(0+384),w
  1521     0797  1683               	bsf	3,5	;RP0=1, select bank1
  1522     0798  1303               	bcf	3,6	;RP1=0, select bank1
  1523     0799  00BF               	movwf	((?_sprintf+2)^(0+128)+1)
  1524     079A  1683               	bsf	3,5	;RP0=1, select bank3
  1525     079B  1703               	bsf	3,6	;RP1=1, select bank3
  1526     079C  0825               	movf	(main@varvolt2+1)^(0+384),w
  1527     079D  1683               	bsf	3,5	;RP0=1, select bank1
  1528     079E  1303               	bcf	3,6	;RP1=0, select bank1
  1529     079F  00BE               	movwf	((?_sprintf+1)^(0+128)+1)
  1530     07A0  1683               	bsf	3,5	;RP0=1, select bank3
  1531     07A1  1703               	bsf	3,6	;RP1=1, select bank3
  1532     07A2  0824               	movf	main@varvolt2^(0+384),w
  1533     07A3  1683               	bsf	3,5	;RP0=1, select bank1
  1534     07A4  1303               	bcf	3,6	;RP1=0, select bank1
  1535     07A5  00BD               	movwf	(?_sprintf^(0+128)+1)
  1536     07A6  3090               	movlw	(low (main@s| (0+256)))& (0+255)
  1537     07A7  120A  118A  2027  120A  118A  	fcall	_sprintf
  1538     07AC                     l4398:
  1539                           
  1540                           ;Lab2.c: 87:         const char msg[] = "AticleWorld.com";;Lab2.c: 88:     ClearLCDScree
      +                          n();
  1541     07AC  160A  158A  2269  120A  118A  	fcall	_ClearLCDScreen
  1542                           
  1543                           ;Lab2.c: 89:     WriteStringToLCD(s);
  1544     07B1  3090               	movlw	(low (main@s| (0+256)))& (0+255)
  1545     07B2  160A  158A  2292  120A  118A  	fcall	_WriteStringToLCD
  1546     07B7  2F01               	goto	l4378
  1547     07B8  120A  118A  280E   	ljmp	start
  1548     07BB                     __end_of_main:
  1549                           
  1550                           	psect	text1
  1551     0027                     __ptext1:	
  1552 ;; *************** function _sprintf *****************
  1553 ;; Defined at:
  1554 ;;		line 505 in file "C:\Program Files\Microchip\xc8\v2.40\pic\sources\c90\common\doprnt.c"
  1555 ;; Parameters:    Size  Location     Type
  1556 ;;  sp              1    wreg     PTR unsigned char 
  1557 ;;		 -> main@s(20), 
  1558 ;;  f               1   28[BANK1 ] PTR const unsigned char 
  1559 ;;		 -> STR_1(9), 
  1560 ;; Auto vars:     Size  Location     Type
  1561 ;;  sp              1   53[BANK1 ] PTR unsigned char 
  1562 ;;		 -> main@s(20), 
  1563 ;;  fval            4   58[BANK1 ] PTR unsigned char 
  1564 ;;  tmpval          4   54[BANK1 ] struct .
  1565 ;;  val             4   47[BANK1 ] unsigned long 
  1566 ;;  eexp            2   51[BANK1 ] int 
  1567 ;;  prec            2   45[BANK1 ] int 
  1568 ;;  flag            2   43[BANK1 ] unsigned short 
  1569 ;;  cp              2    0        PTR const unsigned char 
  1570 ;;  len             2    0        unsigned int 
  1571 ;;  width           2    0        int 
  1572 ;;  c               1   62[BANK1 ] unsigned char 
  1573 ;;  ap              1   42[BANK1 ] PTR void [1]
  1574 ;;		 -> ?_sprintf(2), 
  1575 ;;  d               1    0        unsigned char 
  1576 ;; Return value:  Size  Location     Type
  1577 ;;                  2   28[BANK1 ] int 
  1578 ;; Registers used:
  1579 ;;		wreg, fsr0l, fsr0h, status,2, status,0, btemp+1, pclath, cstack
  1580 ;; Tracked objects:
  1581 ;;		On entry : 0/0
  1582 ;;		On exit  : 0/0
  1583 ;;		Unchanged: 0/0
  1584 ;; Data sizes:     COMMON   BANK0   BANK1   BANK3   BANK2
  1585 ;;      Params:         0       0       5       0       0
  1586 ;;      Locals:         0       0      25       0       0
  1587 ;;      Temps:          0       0       5       0       0
  1588 ;;      Totals:         0       0      35       0       0
  1589 ;;Total ram usage:       35 bytes
  1590 ;; Hardware stack levels used: 1
  1591 ;; Hardware stack levels required when called: 5
  1592 ;; This function calls:
  1593 ;;		___awdiv
  1594 ;;		___fladd
  1595 ;;		___fleq
  1596 ;;		___flge
  1597 ;;		___flmul
  1598 ;;		___flneg
  1599 ;;		___flsub
  1600 ;;		___fltol
  1601 ;;		___lldiv
  1602 ;;		___llmod
  1603 ;;		___wmul
  1604 ;;		___xxtofl
  1605 ;;		__div_to_l_
  1606 ;;		__tdiv_to_l_
  1607 ;;		_fround
  1608 ;;		_scale
  1609 ;; This function is called by:
  1610 ;;		_main
  1611 ;; This function uses a non-reentrant model
  1612 ;;
  1613                           
  1614     0027                     _sprintf:	
  1615                           ;psect for function _sprintf
  1616                           
  1617                           
  1618                           ;incstack = 0
  1619                           ; Regs used in _sprintf: [wreg-fsr0h+status,2+status,0+btemp+1+pclath+cstack]
  1620                           ;sprintf@sp stored from wreg
  1621     0027  1683               	bsf	3,5	;RP0=1, select bank1
  1622     0028  1303               	bcf	3,6	;RP1=0, select bank1
  1623     0029  00D5               	movwf	sprintf@sp^(0+128)
  1624     002A                     l4052:
  1625                           
  1626                           ;C:\Program Files\Microchip\xc8\v2.40\pic\sources\c90\common\doprnt.c: 505: sprintf(char
      +                           * sp, const char * f, ...);C:\Program Files\Microchip\xc8\v2.40\pic\sources\c90\common\
      +                          doprnt.c: 506: {;C:\Program Files\Microchip\xc8\v2.40\pic\sources\c90\common\doprnt.c: 5
      +                          07:  va_list ap;;C:\Program Files\Microchip\xc8\v2.40\pic\sources\c90\common\doprnt.c: 5
      +                          12:  char c;;C:\Program Files\Microchip\xc8\v2.40\pic\sources\c90\common\doprnt.c: 514: 
      +                           int width;;C:\Program Files\Microchip\xc8\v2.40\pic\sources\c90\common\doprnt.c: 517:  
      +                          int prec;
  1627     002A  30BD               	movlw	(low ((?_sprintf| 0+1)))& (0+255)
  1628     002B  00CA               	movwf	sprintf@ap^(0+128)
  1629                           
  1630                           ;C:\Program Files\Microchip\xc8\v2.40\pic\sources\c90\common\doprnt.c: 553:  while((c = 
      +                          *f++)) {
  1631     002C  2ED2               	goto	l4212
  1632     002D                     l4054:
  1633                           
  1634                           ;C:\Program Files\Microchip\xc8\v2.40\pic\sources\c90\common\doprnt.c: 555:   if(c != '%
      +                          ')
  1635     002D  3025               	movlw	37
  1636     002E  065E               	xorwf	sprintf@c^(0+128),w
  1637     002F  1903               	btfsc	3,2
  1638     0030  2832               	goto	u6831
  1639     0031  2833               	goto	u6830
  1640     0032                     u6831:
  1641     0032  283D               	goto	l4060
  1642     0033                     u6830:
  1643     0033                     l4056:
  1644                           
  1645                           ;C:\Program Files\Microchip\xc8\v2.40\pic\sources\c90\common\doprnt.c: 557:   {;C:\Progr
      +                          am Files\Microchip\xc8\v2.40\pic\sources\c90\common\doprnt.c: 558:    ((*sp++ = (c)));
  1646     0033  0855               	movf	sprintf@sp^(0+128),w
  1647     0034  0084               	movwf	4
  1648     0035  085E               	movf	sprintf@c^(0+128),w
  1649     0036  1783               	bsf	3,7	;select IRP bank2
  1650     0037  0080               	movwf	0
  1651     0038                     l4058:
  1652     0038  3001               	movlw	1
  1653     0039  00C1               	movwf	??_sprintf^(0+128)
  1654     003A  0841               	movf	??_sprintf^(0+128),w
  1655     003B  07D5               	addwf	sprintf@sp^(0+128),f
  1656                           
  1657                           ;C:\Program Files\Microchip\xc8\v2.40\pic\sources\c90\common\doprnt.c: 559:    continue;
  1658     003C  2ED2               	goto	l4212
  1659     003D                     l4060:
  1660                           
  1661                           ;C:\Program Files\Microchip\xc8\v2.40\pic\sources\c90\common\doprnt.c: 565:   flag = 0;
  1662     003D  01CB               	clrf	sprintf@flag^(0+128)
  1663     003E  01CC               	clrf	(sprintf@flag+1)^(0+128)
  1664                           
  1665                           ;C:\Program Files\Microchip\xc8\v2.40\pic\sources\c90\common\doprnt.c: 661:   switch(c =
      +                           *f++) {
  1666     003F  2842               	goto	l4064
  1667     0040                     l302:	
  1668                           ;C:\Program Files\Microchip\xc8\v2.40\pic\sources\c90\common\doprnt.c: 688:   case 'f':
  1669                           
  1670                           
  1671                           ;C:\Program Files\Microchip\xc8\v2.40\pic\sources\c90\common\doprnt.c: 689:    flag |= 0
      +                          x400;
  1672     0040  154C               	bsf	(sprintf@flag^(0+128)+1),2
  1673                           
  1674                           ;C:\Program Files\Microchip\xc8\v2.40\pic\sources\c90\common\doprnt.c: 690:    break;
  1675     0041  285C               	goto	l4066
  1676     0042                     l4064:
  1677     0042  3001               	movlw	1
  1678     0043  07BC               	addwf	sprintf@f^(0+128),f
  1679     0044  30FF               	movlw	-1
  1680     0045  073C               	addwf	sprintf@f^(0+128),w
  1681     0046  0084               	movwf	4
  1682     0047  160A  158A  2000  120A  118A  	fcall	stringdir
  1683     004C  00DE               	movwf	sprintf@c^(0+128)
  1684     004D  00C1               	movwf	??_sprintf^(0+128)
  1685     004E  01C2               	clrf	(??_sprintf^(0+128)+1)
  1686                           
  1687                           ; Switch on 2 bytes has been partitioned into a top level switch of size 1, and 1 sub-sw
      +                          itches
  1688                           ; Switch size 1, requested type "simple"
  1689                           ; Number of cases is 1, Range of values is 0 to 0
  1690                           ; switch strategies available:
  1691                           ; Name         Instructions Cycles
  1692                           ; simple_byte            4     3 (average)
  1693                           ; direct_byte           11     8 (fixed)
  1694                           ; jumptable            260     6 (fixed)
  1695                           ;	Chosen strategy is simple_byte
  1696     004F  0842               	movf	(??_sprintf+1)^(0+128),w
  1697     0050  3A00               	xorlw	0	; case 0
  1698     0051  1903               	skipnz
  1699     0052  2854               	goto	l4430
  1700     0053  2ED2               	goto	l4212
  1701     0054                     l4430:
  1702                           
  1703                           ; Switch size 1, requested type "simple"
  1704                           ; Number of cases is 2, Range of values is 0 to 102
  1705                           ; switch strategies available:
  1706                           ; Name         Instructions Cycles
  1707                           ; simple_byte            7     4 (average)
  1708                           ; jumptable            260     6 (fixed)
  1709                           ;	Chosen strategy is simple_byte
  1710     0054  0841               	movf	??_sprintf^(0+128),w
  1711     0055  3A00               	xorlw	0	; case 0
  1712     0056  1903               	skipnz
  1713     0057  2EE2               	goto	l4214
  1714     0058  3A66               	xorlw	102	; case 102
  1715     0059  1903               	skipnz
  1716     005A  2840               	goto	l302
  1717     005B  2ED2               	goto	l4212
  1718     005C                     l4066:
  1719                           
  1720                           ;C:\Program Files\Microchip\xc8\v2.40\pic\sources\c90\common\doprnt.c: 851:   if(flag & 
      +                          (0x700)) {
  1721     005C  3000               	movlw	0
  1722     005D  054B               	andwf	sprintf@flag^(0+128),w
  1723     005E  00C1               	movwf	??_sprintf^(0+128)
  1724     005F  3007               	movlw	7
  1725     0060  054C               	andwf	(sprintf@flag+1)^(0+128),w
  1726     0061  00C2               	movwf	(??_sprintf+1)^(0+128)
  1727     0062  0841               	movf	??_sprintf^(0+128),w
  1728     0063  0442               	iorwf	(??_sprintf^(0+128)+1),w
  1729     0064  1903               	btfsc	3,2
  1730     0065  2867               	goto	u6841
  1731     0066  2868               	goto	u6840
  1732     0067                     u6841:
  1733     0067  2EC0               	goto	l4206
  1734     0068                     u6840:
  1735     0068                     l4068:
  1736                           
  1737                           ;C:\Program Files\Microchip\xc8\v2.40\pic\sources\c90\common\doprnt.c: 855:     prec = 6
      +                          ;
  1738     0068  3006               	movlw	6
  1739     0069  00CD               	movwf	sprintf@prec^(0+128)
  1740     006A  3000               	movlw	0
  1741     006B  00CE               	movwf	(sprintf@prec^(0+128)+1)
  1742     006C                     l4070:
  1743                           
  1744                           ;C:\Program Files\Microchip\xc8\v2.40\pic\sources\c90\common\doprnt.c: 856:    fval = (*
      +                          (double *)__va_arg((*(double **)ap), (double)0));
  1745     006C  084A               	movf	sprintf@ap^(0+128),w
  1746     006D  0084               	movwf	4
  1747     006E  1383               	bcf	3,7	;select IRP bank0
  1748     006F  0800               	movf	0,w
  1749     0070  00DA               	movwf	sprintf@fval^(0+128)
  1750     0071  0A84               	incf	4,f
  1751     0072  0800               	movf	0,w
  1752     0073  00DB               	movwf	(sprintf@fval+1)^(0+128)
  1753     0074  0A84               	incf	4,f
  1754     0075  0800               	movf	0,w
  1755     0076  00DC               	movwf	(sprintf@fval+2)^(0+128)
  1756     0077  0A84               	incf	4,f
  1757     0078  0800               	movf	0,w
  1758     0079  00DD               	movwf	(sprintf@fval+3)^(0+128)
  1759     007A                     l4072:
  1760     007A  3004               	movlw	4
  1761     007B  00C1               	movwf	??_sprintf^(0+128)
  1762     007C  0841               	movf	??_sprintf^(0+128),w
  1763     007D  07CA               	addwf	sprintf@ap^(0+128),f
  1764     007E                     l4074:
  1765                           
  1766                           ;C:\Program Files\Microchip\xc8\v2.40\pic\sources\c90\common\doprnt.c: 857:    if(fval <
      +                           0.0) {
  1767     007E  085D               	movf	(sprintf@fval+3)^(0+128),w
  1768     007F  1283               	bcf	3,5	;RP0=0, select bank0
  1769     0080  1303               	bcf	3,6	;RP1=0, select bank0
  1770     0081  00A9               	movwf	___flge@ff1+3
  1771     0082  1683               	bsf	3,5	;RP0=1, select bank1
  1772     0083  1303               	bcf	3,6	;RP1=0, select bank1
  1773     0084  085C               	movf	(sprintf@fval+2)^(0+128),w
  1774     0085  1283               	bcf	3,5	;RP0=0, select bank0
  1775     0086  1303               	bcf	3,6	;RP1=0, select bank0
  1776     0087  00A8               	movwf	___flge@ff1+2
  1777     0088  1683               	bsf	3,5	;RP0=1, select bank1
  1778     0089  1303               	bcf	3,6	;RP1=0, select bank1
  1779     008A  085B               	movf	(sprintf@fval+1)^(0+128),w
  1780     008B  1283               	bcf	3,5	;RP0=0, select bank0
  1781     008C  1303               	bcf	3,6	;RP1=0, select bank0
  1782     008D  00A7               	movwf	___flge@ff1+1
  1783     008E  1683               	bsf	3,5	;RP0=1, select bank1
  1784     008F  1303               	bcf	3,6	;RP1=0, select bank1
  1785     0090  085A               	movf	sprintf@fval^(0+128),w
  1786     0091  1283               	bcf	3,5	;RP0=0, select bank0
  1787     0092  1303               	bcf	3,6	;RP1=0, select bank0
  1788     0093  00A6               	movwf	___flge@ff1
  1789     0094  3000               	movlw	0
  1790     0095  00AD               	movwf	___flge@ff2+3
  1791     0096  3000               	movlw	0
  1792     0097  00AC               	movwf	___flge@ff2+2
  1793     0098  3000               	movlw	0
  1794     0099  00AB               	movwf	___flge@ff2+1
  1795     009A  3000               	movlw	0
  1796     009B  00AA               	movwf	___flge@ff2
  1797     009C  160A  158A  25ED  120A  118A  	fcall	___flge
  1798     00A1  1803               	btfsc	3,0
  1799     00A2  28A4               	goto	u6851
  1800     00A3  28A5               	goto	u6850
  1801     00A4                     u6851:
  1802     00A4  28DE               	goto	l4080
  1803     00A5                     u6850:
  1804     00A5                     l4076:
  1805                           
  1806                           ;C:\Program Files\Microchip\xc8\v2.40\pic\sources\c90\common\doprnt.c: 858:     fval = -
      +                          fval;
  1807     00A5  1683               	bsf	3,5	;RP0=1, select bank1
  1808     00A6  1303               	bcf	3,6	;RP1=0, select bank1
  1809     00A7  085D               	movf	(sprintf@fval+3)^(0+128),w
  1810     00A8  1283               	bcf	3,5	;RP0=0, select bank0
  1811     00A9  1303               	bcf	3,6	;RP1=0, select bank0
  1812     00AA  00A9               	movwf	___flneg@f1+3
  1813     00AB  1683               	bsf	3,5	;RP0=1, select bank1
  1814     00AC  1303               	bcf	3,6	;RP1=0, select bank1
  1815     00AD  085C               	movf	(sprintf@fval+2)^(0+128),w
  1816     00AE  1283               	bcf	3,5	;RP0=0, select bank0
  1817     00AF  1303               	bcf	3,6	;RP1=0, select bank0
  1818     00B0  00A8               	movwf	___flneg@f1+2
  1819     00B1  1683               	bsf	3,5	;RP0=1, select bank1
  1820     00B2  1303               	bcf	3,6	;RP1=0, select bank1
  1821     00B3  085B               	movf	(sprintf@fval+1)^(0+128),w
  1822     00B4  1283               	bcf	3,5	;RP0=0, select bank0
  1823     00B5  1303               	bcf	3,6	;RP1=0, select bank0
  1824     00B6  00A7               	movwf	___flneg@f1+1
  1825     00B7  1683               	bsf	3,5	;RP0=1, select bank1
  1826     00B8  1303               	bcf	3,6	;RP1=0, select bank1
  1827     00B9  085A               	movf	sprintf@fval^(0+128),w
  1828     00BA  1283               	bcf	3,5	;RP0=0, select bank0
  1829     00BB  1303               	bcf	3,6	;RP1=0, select bank0
  1830     00BC  00A6               	movwf	___flneg@f1
  1831     00BD  160A  158A  225C  120A  118A  	fcall	___flneg
  1832     00C2  1283               	bcf	3,5	;RP0=0, select bank0
  1833     00C3  1303               	bcf	3,6	;RP1=0, select bank0
  1834     00C4  0829               	movf	?___flneg+3,w
  1835     00C5  1683               	bsf	3,5	;RP0=1, select bank1
  1836     00C6  1303               	bcf	3,6	;RP1=0, select bank1
  1837     00C7  00DD               	movwf	(sprintf@fval+3)^(0+128)
  1838     00C8  1283               	bcf	3,5	;RP0=0, select bank0
  1839     00C9  1303               	bcf	3,6	;RP1=0, select bank0
  1840     00CA  0828               	movf	?___flneg+2,w
  1841     00CB  1683               	bsf	3,5	;RP0=1, select bank1
  1842     00CC  1303               	bcf	3,6	;RP1=0, select bank1
  1843     00CD  00DC               	movwf	(sprintf@fval+2)^(0+128)
  1844     00CE  1283               	bcf	3,5	;RP0=0, select bank0
  1845     00CF  1303               	bcf	3,6	;RP1=0, select bank0
  1846     00D0  0827               	movf	?___flneg+1,w
  1847     00D1  1683               	bsf	3,5	;RP0=1, select bank1
  1848     00D2  1303               	bcf	3,6	;RP1=0, select bank1
  1849     00D3  00DB               	movwf	(sprintf@fval+1)^(0+128)
  1850     00D4  1283               	bcf	3,5	;RP0=0, select bank0
  1851     00D5  1303               	bcf	3,6	;RP1=0, select bank0
  1852     00D6  0826               	movf	?___flneg,w
  1853     00D7  1683               	bsf	3,5	;RP0=1, select bank1
  1854     00D8  1303               	bcf	3,6	;RP1=0, select bank1
  1855     00D9  00DA               	movwf	sprintf@fval^(0+128)
  1856     00DA                     l4078:
  1857                           
  1858                           ;C:\Program Files\Microchip\xc8\v2.40\pic\sources\c90\common\doprnt.c: 859:     flag |= 
      +                          0x03;
  1859     00DA  3003               	movlw	3
  1860     00DB  04CB               	iorwf	sprintf@flag^(0+128),f
  1861     00DC  3000               	movlw	0
  1862     00DD  04CC               	iorwf	(sprintf@flag+1)^(0+128),f
  1863     00DE                     l4080:
  1864                           
  1865                           ;C:\Program Files\Microchip\xc8\v2.40\pic\sources\c90\common\doprnt.c: 861:    eexp = 0;
  1866     00DE  1683               	bsf	3,5	;RP0=1, select bank1
  1867     00DF  1303               	bcf	3,6	;RP1=0, select bank1
  1868     00E0  01D3               	clrf	sprintf@eexp^(0+128)
  1869     00E1  01D4               	clrf	(sprintf@eexp+1)^(0+128)
  1870     00E2                     l4082:
  1871                           
  1872                           ;C:\Program Files\Microchip\xc8\v2.40\pic\sources\c90\common\doprnt.c: 862:    if( fval!
      +                          =0) {
  1873     00E2  085D               	movf	(sprintf@fval+3)^(0+128),w
  1874     00E3  1283               	bcf	3,5	;RP0=0, select bank0
  1875     00E4  1303               	bcf	3,6	;RP1=0, select bank0
  1876     00E5  00A9               	movwf	___fleq@ff1+3
  1877     00E6  1683               	bsf	3,5	;RP0=1, select bank1
  1878     00E7  1303               	bcf	3,6	;RP1=0, select bank1
  1879     00E8  085C               	movf	(sprintf@fval+2)^(0+128),w
  1880     00E9  1283               	bcf	3,5	;RP0=0, select bank0
  1881     00EA  1303               	bcf	3,6	;RP1=0, select bank0
  1882     00EB  00A8               	movwf	___fleq@ff1+2
  1883     00EC  1683               	bsf	3,5	;RP0=1, select bank1
  1884     00ED  1303               	bcf	3,6	;RP1=0, select bank1
  1885     00EE  085B               	movf	(sprintf@fval+1)^(0+128),w
  1886     00EF  1283               	bcf	3,5	;RP0=0, select bank0
  1887     00F0  1303               	bcf	3,6	;RP1=0, select bank0
  1888     00F1  00A7               	movwf	___fleq@ff1+1
  1889     00F2  1683               	bsf	3,5	;RP0=1, select bank1
  1890     00F3  1303               	bcf	3,6	;RP1=0, select bank1
  1891     00F4  085A               	movf	sprintf@fval^(0+128),w
  1892     00F5  1283               	bcf	3,5	;RP0=0, select bank0
  1893     00F6  1303               	bcf	3,6	;RP1=0, select bank0
  1894     00F7  00A6               	movwf	___fleq@ff1
  1895     00F8  3000               	movlw	0
  1896     00F9  00AD               	movwf	___fleq@ff2+3
  1897     00FA  3000               	movlw	0
  1898     00FB  00AC               	movwf	___fleq@ff2+2
  1899     00FC  3000               	movlw	0
  1900     00FD  00AB               	movwf	___fleq@ff2+1
  1901     00FE  3000               	movlw	0
  1902     00FF  00AA               	movwf	___fleq@ff2
  1903     0100  160A  118A  2001  120A  118A  	fcall	___fleq
  1904     0105  1803               	btfsc	3,0
  1905     0106  2908               	goto	u6861
  1906     0107  2909               	goto	u6860
  1907     0108                     u6861:
  1908     0108  2A35               	goto	l4108
  1909     0109                     u6860:
  1910     0109                     l4084:
  1911                           
  1912                           ;C:\Program Files\Microchip\xc8\v2.40\pic\sources\c90\common\doprnt.c: 863:     (void)(*
      +                          (&eexp) = (unsigned char)((*(unsigned long *)&fval >> 23) & 255) - 126);
  1913     0109  1003               	clrc
  1914     010A  1683               	bsf	3,5	;RP0=1, select bank1
  1915     010B  1303               	bcf	3,6	;RP1=0, select bank1
  1916     010C  0D5C               	rlf	(sprintf@fval+2)^(0+128),w
  1917     010D  0D5D               	rlf	(sprintf@fval+3)^(0+128),w
  1918     010E  3E82               	addlw	130
  1919     010F  00D3               	movwf	sprintf@eexp^(0+128)
  1920     0110  30FF               	movlw	255
  1921     0111  1803               	skipnc
  1922     0112  3000               	movlw	0
  1923     0113  00D4               	movwf	(sprintf@eexp^(0+128)+1)
  1924     0114                     l4086:
  1925                           
  1926                           ;C:\Program Files\Microchip\xc8\v2.40\pic\sources\c90\common\doprnt.c: 864:     eexp--;
  1927     0114  30FF               	movlw	255
  1928     0115  07D3               	addwf	sprintf@eexp^(0+128),f
  1929     0116  1803               	skipnc
  1930     0117  0AD4               	incf	(sprintf@eexp+1)^(0+128),f
  1931     0118  30FF               	movlw	255
  1932     0119  07D4               	addwf	(sprintf@eexp+1)^(0+128),f
  1933     011A                     l4088:
  1934                           
  1935                           ;C:\Program Files\Microchip\xc8\v2.40\pic\sources\c90\common\doprnt.c: 865:     eexp *= 
      +                          3;
  1936     011A  3003               	movlw	3
  1937     011B  1283               	bcf	3,5	;RP0=0, select bank0
  1938     011C  1303               	bcf	3,6	;RP1=0, select bank0
  1939     011D  00A6               	movwf	___wmul@multiplier
  1940     011E  3000               	movlw	0
  1941     011F  00A7               	movwf	___wmul@multiplier+1
  1942     0120  1683               	bsf	3,5	;RP0=1, select bank1
  1943     0121  1303               	bcf	3,6	;RP1=0, select bank1
  1944     0122  0854               	movf	(sprintf@eexp+1)^(0+128),w
  1945     0123  1283               	bcf	3,5	;RP0=0, select bank0
  1946     0124  1303               	bcf	3,6	;RP1=0, select bank0
  1947     0125  00A9               	movwf	___wmul@multiplicand+1
  1948     0126  1683               	bsf	3,5	;RP0=1, select bank1
  1949     0127  1303               	bcf	3,6	;RP1=0, select bank1
  1950     0128  0853               	movf	sprintf@eexp^(0+128),w
  1951     0129  1283               	bcf	3,5	;RP0=0, select bank0
  1952     012A  1303               	bcf	3,6	;RP1=0, select bank0
  1953     012B  00A8               	movwf	___wmul@multiplicand
  1954     012C  160A  158A  22D0  120A  118A  	fcall	___wmul
  1955     0131  1283               	bcf	3,5	;RP0=0, select bank0
  1956     0132  1303               	bcf	3,6	;RP1=0, select bank0
  1957     0133  0827               	movf	?___wmul+1,w
  1958     0134  1683               	bsf	3,5	;RP0=1, select bank1
  1959     0135  1303               	bcf	3,6	;RP1=0, select bank1
  1960     0136  00D4               	movwf	(sprintf@eexp+1)^(0+128)
  1961     0137  1283               	bcf	3,5	;RP0=0, select bank0
  1962     0138  1303               	bcf	3,6	;RP1=0, select bank0
  1963     0139  0826               	movf	?___wmul,w
  1964     013A  1683               	bsf	3,5	;RP0=1, select bank1
  1965     013B  1303               	bcf	3,6	;RP1=0, select bank1
  1966     013C  00D3               	movwf	sprintf@eexp^(0+128)
  1967     013D                     l4090:
  1968                           
  1969                           ;C:\Program Files\Microchip\xc8\v2.40\pic\sources\c90\common\doprnt.c: 866:     eexp /= 
      +                          10;
  1970     013D  300A               	movlw	10
  1971     013E  1283               	bcf	3,5	;RP0=0, select bank0
  1972     013F  1303               	bcf	3,6	;RP1=0, select bank0
  1973     0140  00AD               	movwf	___awdiv@divisor
  1974     0141  3000               	movlw	0
  1975     0142  00AE               	movwf	___awdiv@divisor+1
  1976     0143  1683               	bsf	3,5	;RP0=1, select bank1
  1977     0144  1303               	bcf	3,6	;RP1=0, select bank1
  1978     0145  0854               	movf	(sprintf@eexp+1)^(0+128),w
  1979     0146  1283               	bcf	3,5	;RP0=0, select bank0
  1980     0147  1303               	bcf	3,6	;RP1=0, select bank0
  1981     0148  00B0               	movwf	___awdiv@dividend+1
  1982     0149  1683               	bsf	3,5	;RP0=1, select bank1
  1983     014A  1303               	bcf	3,6	;RP1=0, select bank1
  1984     014B  0853               	movf	sprintf@eexp^(0+128),w
  1985     014C  1283               	bcf	3,5	;RP0=0, select bank0
  1986     014D  1303               	bcf	3,6	;RP1=0, select bank0
  1987     014E  00AF               	movwf	___awdiv@dividend
  1988     014F  160A  158A  2584  120A  118A  	fcall	___awdiv
  1989     0154  1283               	bcf	3,5	;RP0=0, select bank0
  1990     0155  1303               	bcf	3,6	;RP1=0, select bank0
  1991     0156  082E               	movf	?___awdiv+1,w
  1992     0157  1683               	bsf	3,5	;RP0=1, select bank1
  1993     0158  1303               	bcf	3,6	;RP1=0, select bank1
  1994     0159  00D4               	movwf	(sprintf@eexp+1)^(0+128)
  1995     015A  1283               	bcf	3,5	;RP0=0, select bank0
  1996     015B  1303               	bcf	3,6	;RP1=0, select bank0
  1997     015C  082D               	movf	?___awdiv,w
  1998     015D  1683               	bsf	3,5	;RP0=1, select bank1
  1999     015E  1303               	bcf	3,6	;RP1=0, select bank1
  2000     015F  00D3               	movwf	sprintf@eexp^(0+128)
  2001     0160                     l4092:
  2002                           
  2003                           ;C:\Program Files\Microchip\xc8\v2.40\pic\sources\c90\common\doprnt.c: 867:     if(eexp 
      +                          < 0)
  2004     0160  1FD4               	btfss	(sprintf@eexp+1)^(0+128),7
  2005     0161  2963               	goto	u6871
  2006     0162  2964               	goto	u6870
  2007     0163                     u6871:
  2008     0163  296A               	goto	l4096
  2009     0164                     u6870:
  2010     0164                     l4094:
  2011                           
  2012                           ;C:\Program Files\Microchip\xc8\v2.40\pic\sources\c90\common\doprnt.c: 868:      eexp--;
  2013     0164  30FF               	movlw	255
  2014     0165  07D3               	addwf	sprintf@eexp^(0+128),f
  2015     0166  1803               	skipnc
  2016     0167  0AD4               	incf	(sprintf@eexp+1)^(0+128),f
  2017     0168  30FF               	movlw	255
  2018     0169  07D4               	addwf	(sprintf@eexp+1)^(0+128),f
  2019     016A                     l4096:
  2020                           
  2021                           ;C:\Program Files\Microchip\xc8\v2.40\pic\sources\c90\common\doprnt.c: 872:     tmpval.i
      +                          nteg = scale(-eexp);
  2022     016A  0353               	decf	sprintf@eexp^(0+128),w
  2023     016B  3AFF               	xorlw	255
  2024     016C  120A  158A  249D  120A  118A  	fcall	_scale
  2025     0171  1283               	bcf	3,5	;RP0=0, select bank0
  2026     0172  1303               	bcf	3,6	;RP1=0, select bank0
  2027     0173  0853               	movf	?_scale+3,w
  2028     0174  1683               	bsf	3,5	;RP0=1, select bank1
  2029     0175  1303               	bcf	3,6	;RP1=0, select bank1
  2030     0176  00D9               	movwf	(sprintf@tmpval+3)^(0+128)
  2031     0177  1283               	bcf	3,5	;RP0=0, select bank0
  2032     0178  1303               	bcf	3,6	;RP1=0, select bank0
  2033     0179  0852               	movf	?_scale+2,w
  2034     017A  1683               	bsf	3,5	;RP0=1, select bank1
  2035     017B  1303               	bcf	3,6	;RP1=0, select bank1
  2036     017C  00D8               	movwf	(sprintf@tmpval+2)^(0+128)
  2037     017D  1283               	bcf	3,5	;RP0=0, select bank0
  2038     017E  1303               	bcf	3,6	;RP1=0, select bank0
  2039     017F  0851               	movf	?_scale+1,w
  2040     0180  1683               	bsf	3,5	;RP0=1, select bank1
  2041     0181  1303               	bcf	3,6	;RP1=0, select bank1
  2042     0182  00D7               	movwf	(sprintf@tmpval+1)^(0+128)
  2043     0183  1283               	bcf	3,5	;RP0=0, select bank0
  2044     0184  1303               	bcf	3,6	;RP1=0, select bank0
  2045     0185  0850               	movf	?_scale,w
  2046     0186  1683               	bsf	3,5	;RP0=1, select bank1
  2047     0187  1303               	bcf	3,6	;RP1=0, select bank1
  2048     0188  00D6               	movwf	sprintf@tmpval^(0+128)
  2049     0189                     l4098:
  2050                           
  2051                           ;C:\Program Files\Microchip\xc8\v2.40\pic\sources\c90\common\doprnt.c: 873:     tmpval.i
      +                          nteg *= fval;
  2052     0189  085D               	movf	(sprintf@fval+3)^(0+128),w
  2053     018A  1283               	bcf	3,5	;RP0=0, select bank0
  2054     018B  1303               	bcf	3,6	;RP1=0, select bank0
  2055     018C  00B9               	movwf	___flmul@b+3
  2056     018D  1683               	bsf	3,5	;RP0=1, select bank1
  2057     018E  1303               	bcf	3,6	;RP1=0, select bank1
  2058     018F  085C               	movf	(sprintf@fval+2)^(0+128),w
  2059     0190  1283               	bcf	3,5	;RP0=0, select bank0
  2060     0191  1303               	bcf	3,6	;RP1=0, select bank0
  2061     0192  00B8               	movwf	___flmul@b+2
  2062     0193  1683               	bsf	3,5	;RP0=1, select bank1
  2063     0194  1303               	bcf	3,6	;RP1=0, select bank1
  2064     0195  085B               	movf	(sprintf@fval+1)^(0+128),w
  2065     0196  1283               	bcf	3,5	;RP0=0, select bank0
  2066     0197  1303               	bcf	3,6	;RP1=0, select bank0
  2067     0198  00B7               	movwf	___flmul@b+1
  2068     0199  1683               	bsf	3,5	;RP0=1, select bank1
  2069     019A  1303               	bcf	3,6	;RP1=0, select bank1
  2070     019B  085A               	movf	sprintf@fval^(0+128),w
  2071     019C  1283               	bcf	3,5	;RP0=0, select bank0
  2072     019D  1303               	bcf	3,6	;RP1=0, select bank0
  2073     019E  00B6               	movwf	___flmul@b
  2074     019F  1683               	bsf	3,5	;RP0=1, select bank1
  2075     01A0  1303               	bcf	3,6	;RP1=0, select bank1
  2076     01A1  0859               	movf	(sprintf@tmpval+3)^(0+128),w
  2077     01A2  1283               	bcf	3,5	;RP0=0, select bank0
  2078     01A3  1303               	bcf	3,6	;RP1=0, select bank0
  2079     01A4  00BD               	movwf	___flmul@a+3
  2080     01A5  1683               	bsf	3,5	;RP0=1, select bank1
  2081     01A6  1303               	bcf	3,6	;RP1=0, select bank1
  2082     01A7  0858               	movf	(sprintf@tmpval+2)^(0+128),w
  2083     01A8  1283               	bcf	3,5	;RP0=0, select bank0
  2084     01A9  1303               	bcf	3,6	;RP1=0, select bank0
  2085     01AA  00BC               	movwf	___flmul@a+2
  2086     01AB  1683               	bsf	3,5	;RP0=1, select bank1
  2087     01AC  1303               	bcf	3,6	;RP1=0, select bank1
  2088     01AD  0857               	movf	(sprintf@tmpval+1)^(0+128),w
  2089     01AE  1283               	bcf	3,5	;RP0=0, select bank0
  2090     01AF  1303               	bcf	3,6	;RP1=0, select bank0
  2091     01B0  00BB               	movwf	___flmul@a+1
  2092     01B1  1683               	bsf	3,5	;RP0=1, select bank1
  2093     01B2  1303               	bcf	3,6	;RP1=0, select bank1
  2094     01B3  0856               	movf	sprintf@tmpval^(0+128),w
  2095     01B4  1283               	bcf	3,5	;RP0=0, select bank0
  2096     01B5  1303               	bcf	3,6	;RP1=0, select bank0
  2097     01B6  00BA               	movwf	___flmul@a
  2098     01B7  120A  158A  2158  120A  118A  	fcall	___flmul
  2099     01BC  1283               	bcf	3,5	;RP0=0, select bank0
  2100     01BD  1303               	bcf	3,6	;RP1=0, select bank0
  2101     01BE  0839               	movf	?___flmul+3,w
  2102     01BF  1683               	bsf	3,5	;RP0=1, select bank1
  2103     01C0  1303               	bcf	3,6	;RP1=0, select bank1
  2104     01C1  00D9               	movwf	(sprintf@tmpval+3)^(0+128)
  2105     01C2  1283               	bcf	3,5	;RP0=0, select bank0
  2106     01C3  1303               	bcf	3,6	;RP1=0, select bank0
  2107     01C4  0838               	movf	?___flmul+2,w
  2108     01C5  1683               	bsf	3,5	;RP0=1, select bank1
  2109     01C6  1303               	bcf	3,6	;RP1=0, select bank1
  2110     01C7  00D8               	movwf	(sprintf@tmpval+2)^(0+128)
  2111     01C8  1283               	bcf	3,5	;RP0=0, select bank0
  2112     01C9  1303               	bcf	3,6	;RP1=0, select bank0
  2113     01CA  0837               	movf	?___flmul+1,w
  2114     01CB  1683               	bsf	3,5	;RP0=1, select bank1
  2115     01CC  1303               	bcf	3,6	;RP1=0, select bank1
  2116     01CD  00D7               	movwf	(sprintf@tmpval+1)^(0+128)
  2117     01CE  1283               	bcf	3,5	;RP0=0, select bank0
  2118     01CF  1303               	bcf	3,6	;RP1=0, select bank0
  2119     01D0  0836               	movf	?___flmul,w
  2120     01D1  1683               	bsf	3,5	;RP0=1, select bank1
  2121     01D2  1303               	bcf	3,6	;RP1=0, select bank1
  2122     01D3  00D6               	movwf	sprintf@tmpval^(0+128)
  2123     01D4                     l4100:
  2124                           
  2125                           ;C:\Program Files\Microchip\xc8\v2.40\pic\sources\c90\common\doprnt.c: 874:     if(tmpva
      +                          l.integ < 1.0)
  2126     01D4  0859               	movf	(sprintf@tmpval+3)^(0+128),w
  2127     01D5  1283               	bcf	3,5	;RP0=0, select bank0
  2128     01D6  1303               	bcf	3,6	;RP1=0, select bank0
  2129     01D7  00A9               	movwf	___flge@ff1+3
  2130     01D8  1683               	bsf	3,5	;RP0=1, select bank1
  2131     01D9  1303               	bcf	3,6	;RP1=0, select bank1
  2132     01DA  0858               	movf	(sprintf@tmpval+2)^(0+128),w
  2133     01DB  1283               	bcf	3,5	;RP0=0, select bank0
  2134     01DC  1303               	bcf	3,6	;RP1=0, select bank0
  2135     01DD  00A8               	movwf	___flge@ff1+2
  2136     01DE  1683               	bsf	3,5	;RP0=1, select bank1
  2137     01DF  1303               	bcf	3,6	;RP1=0, select bank1
  2138     01E0  0857               	movf	(sprintf@tmpval+1)^(0+128),w
  2139     01E1  1283               	bcf	3,5	;RP0=0, select bank0
  2140     01E2  1303               	bcf	3,6	;RP1=0, select bank0
  2141     01E3  00A7               	movwf	___flge@ff1+1
  2142     01E4  1683               	bsf	3,5	;RP0=1, select bank1
  2143     01E5  1303               	bcf	3,6	;RP1=0, select bank1
  2144     01E6  0856               	movf	sprintf@tmpval^(0+128),w
  2145     01E7  1283               	bcf	3,5	;RP0=0, select bank0
  2146     01E8  1303               	bcf	3,6	;RP1=0, select bank0
  2147     01E9  00A6               	movwf	___flge@ff1
  2148     01EA  303F               	movlw	63
  2149     01EB  00AD               	movwf	___flge@ff2+3
  2150     01EC  3080               	movlw	128
  2151     01ED  00AC               	movwf	___flge@ff2+2
  2152     01EE  3000               	movlw	0
  2153     01EF  00AB               	movwf	___flge@ff2+1
  2154     01F0  3000               	movlw	0
  2155     01F1  00AA               	movwf	___flge@ff2
  2156     01F2  160A  158A  25ED  120A  118A  	fcall	___flge
  2157     01F7  1803               	btfsc	3,0
  2158     01F8  29FA               	goto	u6881
  2159     01F9  29FB               	goto	u6880
  2160     01FA                     u6881:
  2161     01FA  2A04               	goto	l4104
  2162     01FB                     u6880:
  2163     01FB                     l4102:
  2164                           
  2165                           ;C:\Program Files\Microchip\xc8\v2.40\pic\sources\c90\common\doprnt.c: 875:      eexp--;
  2166     01FB  30FF               	movlw	255
  2167     01FC  1683               	bsf	3,5	;RP0=1, select bank1
  2168     01FD  1303               	bcf	3,6	;RP1=0, select bank1
  2169     01FE  07D3               	addwf	sprintf@eexp^(0+128),f
  2170     01FF  1803               	skipnc
  2171     0200  0AD4               	incf	(sprintf@eexp+1)^(0+128),f
  2172     0201  30FF               	movlw	255
  2173     0202  07D4               	addwf	(sprintf@eexp+1)^(0+128),f
  2174     0203  2A35               	goto	l4108
  2175     0204                     l4104:
  2176     0204  1683               	bsf	3,5	;RP0=1, select bank1
  2177     0205  1303               	bcf	3,6	;RP1=0, select bank1
  2178     0206  0859               	movf	(sprintf@tmpval+3)^(0+128),w
  2179     0207  1283               	bcf	3,5	;RP0=0, select bank0
  2180     0208  1303               	bcf	3,6	;RP1=0, select bank0
  2181     0209  00A9               	movwf	___flge@ff1+3
  2182     020A  1683               	bsf	3,5	;RP0=1, select bank1
  2183     020B  1303               	bcf	3,6	;RP1=0, select bank1
  2184     020C  0858               	movf	(sprintf@tmpval+2)^(0+128),w
  2185     020D  1283               	bcf	3,5	;RP0=0, select bank0
  2186     020E  1303               	bcf	3,6	;RP1=0, select bank0
  2187     020F  00A8               	movwf	___flge@ff1+2
  2188     0210  1683               	bsf	3,5	;RP0=1, select bank1
  2189     0211  1303               	bcf	3,6	;RP1=0, select bank1
  2190     0212  0857               	movf	(sprintf@tmpval+1)^(0+128),w
  2191     0213  1283               	bcf	3,5	;RP0=0, select bank0
  2192     0214  1303               	bcf	3,6	;RP1=0, select bank0
  2193     0215  00A7               	movwf	___flge@ff1+1
  2194     0216  1683               	bsf	3,5	;RP0=1, select bank1
  2195     0217  1303               	bcf	3,6	;RP1=0, select bank1
  2196     0218  0856               	movf	sprintf@tmpval^(0+128),w
  2197     0219  1283               	bcf	3,5	;RP0=0, select bank0
  2198     021A  1303               	bcf	3,6	;RP1=0, select bank0
  2199     021B  00A6               	movwf	___flge@ff1
  2200     021C  3041               	movlw	65
  2201     021D  00AD               	movwf	___flge@ff2+3
  2202     021E  3020               	movlw	32
  2203     021F  00AC               	movwf	___flge@ff2+2
  2204     0220  3000               	movlw	0
  2205     0221  00AB               	movwf	___flge@ff2+1
  2206     0222  3000               	movlw	0
  2207     0223  00AA               	movwf	___flge@ff2
  2208     0224  160A  158A  25ED  120A  118A  	fcall	___flge
  2209     0229  1C03               	btfss	3,0
  2210     022A  2A2C               	goto	u6891
  2211     022B  2A2D               	goto	u6890
  2212     022C                     u6891:
  2213     022C  2A35               	goto	l4108
  2214     022D                     u6890:
  2215     022D                     l4106:
  2216                           
  2217                           ;C:\Program Files\Microchip\xc8\v2.40\pic\sources\c90\common\doprnt.c: 877:      eexp++;
  2218     022D  3001               	movlw	1
  2219     022E  1683               	bsf	3,5	;RP0=1, select bank1
  2220     022F  1303               	bcf	3,6	;RP1=0, select bank1
  2221     0230  07D3               	addwf	sprintf@eexp^(0+128),f
  2222     0231  1803               	skipnc
  2223     0232  0AD4               	incf	(sprintf@eexp+1)^(0+128),f
  2224     0233  3000               	movlw	0
  2225     0234  07D4               	addwf	(sprintf@eexp+1)^(0+128),f
  2226     0235                     l4108:
  2227     0235                     l4110:	
  2228                           ;C:\Program Files\Microchip\xc8\v2.40\pic\sources\c90\common\doprnt.c: 1138:      if(pre
      +                          c <= 12)
  2229                           
  2230                           
  2231                           ;C:\Program Files\Microchip\xc8\v2.40\pic\sources\c90\common\doprnt.c: 1139:       fval 
      +                          += fround((unsigned int)prec);
  2232     0235  3006               	movlw	6
  2233     0236  160A  118A  2109  120A  118A  	fcall	_fround
  2234     023B  1283               	bcf	3,5	;RP0=0, select bank0
  2235     023C  1303               	bcf	3,6	;RP1=0, select bank0
  2236     023D  0853               	movf	?_fround+3,w
  2237     023E  1683               	bsf	3,5	;RP0=1, select bank1
  2238     023F  1303               	bcf	3,6	;RP1=0, select bank1
  2239     0240  00A3               	movwf	(___fladd@b+3)^(0+128)
  2240     0241  1283               	bcf	3,5	;RP0=0, select bank0
  2241     0242  1303               	bcf	3,6	;RP1=0, select bank0
  2242     0243  0852               	movf	?_fround+2,w
  2243     0244  1683               	bsf	3,5	;RP0=1, select bank1
  2244     0245  1303               	bcf	3,6	;RP1=0, select bank1
  2245     0246  00A2               	movwf	(___fladd@b+2)^(0+128)
  2246     0247  1283               	bcf	3,5	;RP0=0, select bank0
  2247     0248  1303               	bcf	3,6	;RP1=0, select bank0
  2248     0249  0851               	movf	?_fround+1,w
  2249     024A  1683               	bsf	3,5	;RP0=1, select bank1
  2250     024B  1303               	bcf	3,6	;RP1=0, select bank1
  2251     024C  00A1               	movwf	(___fladd@b+1)^(0+128)
  2252     024D  1283               	bcf	3,5	;RP0=0, select bank0
  2253     024E  1303               	bcf	3,6	;RP1=0, select bank0
  2254     024F  0850               	movf	?_fround,w
  2255     0250  1683               	bsf	3,5	;RP0=1, select bank1
  2256     0251  1303               	bcf	3,6	;RP1=0, select bank1
  2257     0252  00A0               	movwf	___fladd@b^(0+128)
  2258     0253  085D               	movf	(sprintf@fval+3)^(0+128),w
  2259     0254  00A7               	movwf	(___fladd@a+3)^(0+128)
  2260     0255  085C               	movf	(sprintf@fval+2)^(0+128),w
  2261     0256  00A6               	movwf	(___fladd@a+2)^(0+128)
  2262     0257  085B               	movf	(sprintf@fval+1)^(0+128),w
  2263     0258  00A5               	movwf	(___fladd@a+1)^(0+128)
  2264     0259  085A               	movf	sprintf@fval^(0+128),w
  2265     025A  00A4               	movwf	___fladd@a^(0+128)
  2266     025B  160A  118A  2316  120A  118A  	fcall	___fladd
  2267     0260  1683               	bsf	3,5	;RP0=1, select bank1
  2268     0261  1303               	bcf	3,6	;RP1=0, select bank1
  2269     0262  0823               	movf	(?___fladd+3)^(0+128),w
  2270     0263  00DD               	movwf	(sprintf@fval+3)^(0+128)
  2271     0264  0822               	movf	(?___fladd+2)^(0+128),w
  2272     0265  00DC               	movwf	(sprintf@fval+2)^(0+128)
  2273     0266  0821               	movf	(?___fladd+1)^(0+128),w
  2274     0267  00DB               	movwf	(sprintf@fval+1)^(0+128)
  2275     0268  0820               	movf	?___fladd^(0+128),w
  2276     0269  00DA               	movwf	sprintf@fval^(0+128)
  2277     026A                     l4112:
  2278                           
  2279                           ;C:\Program Files\Microchip\xc8\v2.40\pic\sources\c90\common\doprnt.c: 1142:     if((eex
      +                          p > 9)||(fval != 0 && (unsigned long)fval == 0 && eexp > 1)) {
  2280     026A  0854               	movf	(sprintf@eexp+1)^(0+128),w
  2281     026B  3A80               	xorlw	128
  2282     026C  00FF               	movwf	btemp+1
  2283     026D  3080               	movlw	128
  2284     026E  027F               	subwf	btemp+1,w
  2285     026F  1D03               	skipz
  2286     0270  2A73               	goto	u6905
  2287     0271  300A               	movlw	10
  2288     0272  0253               	subwf	sprintf@eexp^(0+128),w
  2289     0273                     u6905:
  2290     0273  1803               	skipnc
  2291     0274  2A76               	goto	u6901
  2292     0275  2A77               	goto	u6900
  2293     0276                     u6901:
  2294     0276  2AC6               	goto	l4120
  2295     0277                     u6900:
  2296     0277                     l4114:
  2297     0277  1683               	bsf	3,5	;RP0=1, select bank1
  2298     0278  1303               	bcf	3,6	;RP1=0, select bank1
  2299     0279  085D               	movf	(sprintf@fval+3)^(0+128),w
  2300     027A  1283               	bcf	3,5	;RP0=0, select bank0
  2301     027B  1303               	bcf	3,6	;RP1=0, select bank0
  2302     027C  00A9               	movwf	___fleq@ff1+3
  2303     027D  1683               	bsf	3,5	;RP0=1, select bank1
  2304     027E  1303               	bcf	3,6	;RP1=0, select bank1
  2305     027F  085C               	movf	(sprintf@fval+2)^(0+128),w
  2306     0280  1283               	bcf	3,5	;RP0=0, select bank0
  2307     0281  1303               	bcf	3,6	;RP1=0, select bank0
  2308     0282  00A8               	movwf	___fleq@ff1+2
  2309     0283  1683               	bsf	3,5	;RP0=1, select bank1
  2310     0284  1303               	bcf	3,6	;RP1=0, select bank1
  2311     0285  085B               	movf	(sprintf@fval+1)^(0+128),w
  2312     0286  1283               	bcf	3,5	;RP0=0, select bank0
  2313     0287  1303               	bcf	3,6	;RP1=0, select bank0
  2314     0288  00A7               	movwf	___fleq@ff1+1
  2315     0289  1683               	bsf	3,5	;RP0=1, select bank1
  2316     028A  1303               	bcf	3,6	;RP1=0, select bank1
  2317     028B  085A               	movf	sprintf@fval^(0+128),w
  2318     028C  1283               	bcf	3,5	;RP0=0, select bank0
  2319     028D  1303               	bcf	3,6	;RP1=0, select bank0
  2320     028E  00A6               	movwf	___fleq@ff1
  2321     028F  3000               	movlw	0
  2322     0290  00AD               	movwf	___fleq@ff2+3
  2323     0291  3000               	movlw	0
  2324     0292  00AC               	movwf	___fleq@ff2+2
  2325     0293  3000               	movlw	0
  2326     0294  00AB               	movwf	___fleq@ff2+1
  2327     0295  3000               	movlw	0
  2328     0296  00AA               	movwf	___fleq@ff2
  2329     0297  160A  118A  2001  120A  118A  	fcall	___fleq
  2330     029C  1803               	btfsc	3,0
  2331     029D  2A9F               	goto	u6911
  2332     029E  2AA0               	goto	u6910
  2333     029F                     u6911:
  2334     029F  2B72               	goto	l4134
  2335     02A0                     u6910:
  2336     02A0                     l4116:
  2337     02A0  1683               	bsf	3,5	;RP0=1, select bank1
  2338     02A1  1303               	bcf	3,6	;RP1=0, select bank1
  2339     02A2  085D               	movf	(sprintf@fval+3)^(0+128),w
  2340     02A3  00A3               	movwf	(___fltol@f1+3)^(0+128)
  2341     02A4  085C               	movf	(sprintf@fval+2)^(0+128),w
  2342     02A5  00A2               	movwf	(___fltol@f1+2)^(0+128)
  2343     02A6  085B               	movf	(sprintf@fval+1)^(0+128),w
  2344     02A7  00A1               	movwf	(___fltol@f1+1)^(0+128)
  2345     02A8  085A               	movf	sprintf@fval^(0+128),w
  2346     02A9  00A0               	movwf	___fltol@f1^(0+128)
  2347     02AA  120A  158A  2026  120A  118A  	fcall	___fltol
  2348     02AF  1683               	bsf	3,5	;RP0=1, select bank1
  2349     02B0  1303               	bcf	3,6	;RP1=0, select bank1
  2350     02B1  0823               	movf	(?___fltol+3)^(0+128),w
  2351     02B2  0422               	iorwf	(?___fltol+2)^(0+128),w
  2352     02B3  0421               	iorwf	(?___fltol+1)^(0+128),w
  2353     02B4  0420               	iorwf	?___fltol^(0+128),w
  2354     02B5  1D03               	skipz
  2355     02B6  2AB8               	goto	u6921
  2356     02B7  2AB9               	goto	u6920
  2357     02B8                     u6921:
  2358     02B8  2B72               	goto	l4134
  2359     02B9                     u6920:
  2360     02B9                     l4118:
  2361     02B9  0854               	movf	(sprintf@eexp+1)^(0+128),w
  2362     02BA  3A80               	xorlw	128
  2363     02BB  00FF               	movwf	btemp+1
  2364     02BC  3080               	movlw	128
  2365     02BD  027F               	subwf	btemp+1,w
  2366     02BE  1D03               	skipz
  2367     02BF  2AC2               	goto	u6935
  2368     02C0  3002               	movlw	2
  2369     02C1  0253               	subwf	sprintf@eexp^(0+128),w
  2370     02C2                     u6935:
  2371     02C2  1C03               	skipc
  2372     02C3  2AC5               	goto	u6931
  2373     02C4  2AC6               	goto	u6930
  2374     02C5                     u6931:
  2375     02C5  2B72               	goto	l4134
  2376     02C6                     u6930:
  2377     02C6                     l4120:
  2378                           
  2379                           ;C:\Program Files\Microchip\xc8\v2.40\pic\sources\c90\common\doprnt.c: 1146:      if(tmp
      +                          val.integ < 4.294967296){
  2380     02C6  1683               	bsf	3,5	;RP0=1, select bank1
  2381     02C7  1303               	bcf	3,6	;RP1=0, select bank1
  2382     02C8  0859               	movf	(sprintf@tmpval+3)^(0+128),w
  2383     02C9  1283               	bcf	3,5	;RP0=0, select bank0
  2384     02CA  1303               	bcf	3,6	;RP1=0, select bank0
  2385     02CB  00A9               	movwf	___flge@ff1+3
  2386     02CC  1683               	bsf	3,5	;RP0=1, select bank1
  2387     02CD  1303               	bcf	3,6	;RP1=0, select bank1
  2388     02CE  0858               	movf	(sprintf@tmpval+2)^(0+128),w
  2389     02CF  1283               	bcf	3,5	;RP0=0, select bank0
  2390     02D0  1303               	bcf	3,6	;RP1=0, select bank0
  2391     02D1  00A8               	movwf	___flge@ff1+2
  2392     02D2  1683               	bsf	3,5	;RP0=1, select bank1
  2393     02D3  1303               	bcf	3,6	;RP1=0, select bank1
  2394     02D4  0857               	movf	(sprintf@tmpval+1)^(0+128),w
  2395     02D5  1283               	bcf	3,5	;RP0=0, select bank0
  2396     02D6  1303               	bcf	3,6	;RP1=0, select bank0
  2397     02D7  00A7               	movwf	___flge@ff1+1
  2398     02D8  1683               	bsf	3,5	;RP0=1, select bank1
  2399     02D9  1303               	bcf	3,6	;RP1=0, select bank1
  2400     02DA  0856               	movf	sprintf@tmpval^(0+128),w
  2401     02DB  1283               	bcf	3,5	;RP0=0, select bank0
  2402     02DC  1303               	bcf	3,6	;RP1=0, select bank0
  2403     02DD  00A6               	movwf	___flge@ff1
  2404     02DE  3040               	movlw	64
  2405     02DF  00AD               	movwf	___flge@ff2+3
  2406     02E0  3089               	movlw	137
  2407     02E1  00AC               	movwf	___flge@ff2+2
  2408     02E2  3070               	movlw	112
  2409     02E3  00AB               	movwf	___flge@ff2+1
  2410     02E4  305F               	movlw	95
  2411     02E5  00AA               	movwf	___flge@ff2
  2412     02E6  160A  158A  25ED  120A  118A  	fcall	___flge
  2413     02EB  1803               	btfsc	3,0
  2414     02EC  2AEE               	goto	u6941
  2415     02ED  2AEF               	goto	u6940
  2416     02EE                     u6941:
  2417     02EE  2AF8               	goto	l4124
  2418     02EF                     u6940:
  2419     02EF                     l4122:
  2420                           
  2421                           ;C:\Program Files\Microchip\xc8\v2.40\pic\sources\c90\common\doprnt.c: 1147:       eexp 
      +                          -= (sizeof dpowers/sizeof dpowers[0])-1;
  2422     02EF  30F7               	movlw	247
  2423     02F0  1683               	bsf	3,5	;RP0=1, select bank1
  2424     02F1  1303               	bcf	3,6	;RP1=0, select bank1
  2425     02F2  07D3               	addwf	sprintf@eexp^(0+128),f
  2426     02F3  1803               	skipnc
  2427     02F4  0AD4               	incf	(sprintf@eexp+1)^(0+128),f
  2428     02F5  30FF               	movlw	255
  2429     02F6  07D4               	addwf	(sprintf@eexp+1)^(0+128),f
  2430                           
  2431                           ;C:\Program Files\Microchip\xc8\v2.40\pic\sources\c90\common\doprnt.c: 1148:      }else{
  2432     02F7  2B00               	goto	l4126
  2433     02F8                     l4124:
  2434                           
  2435                           ;C:\Program Files\Microchip\xc8\v2.40\pic\sources\c90\common\doprnt.c: 1149:       eexp 
      +                          -= (sizeof dpowers/sizeof dpowers[0])-2;
  2436     02F8  30F8               	movlw	248
  2437     02F9  1683               	bsf	3,5	;RP0=1, select bank1
  2438     02FA  1303               	bcf	3,6	;RP1=0, select bank1
  2439     02FB  07D3               	addwf	sprintf@eexp^(0+128),f
  2440     02FC  1803               	skipnc
  2441     02FD  0AD4               	incf	(sprintf@eexp+1)^(0+128),f
  2442     02FE  30FF               	movlw	255
  2443     02FF  07D4               	addwf	(sprintf@eexp+1)^(0+128),f
  2444     0300                     l4126:
  2445                           
  2446                           ;C:\Program Files\Microchip\xc8\v2.40\pic\sources\c90\common\doprnt.c: 1152:      val = 
      +                          ((sizeof(double)== 3) ? _tdiv_to_l_(fval,tmpval.integ) : _div_to_l_(fval,tmpval.integ));
  2447     0300  0853               	movf	sprintf@eexp^(0+128),w
  2448     0301  120A  158A  249D  120A  118A  	fcall	_scale
  2449     0306  1283               	bcf	3,5	;RP0=0, select bank0
  2450     0307  1303               	bcf	3,6	;RP1=0, select bank0
  2451     0308  0853               	movf	?_scale+3,w
  2452     0309  1683               	bsf	3,5	;RP0=1, select bank1
  2453     030A  1303               	bcf	3,6	;RP1=0, select bank1
  2454     030B  00D9               	movwf	(sprintf@tmpval+3)^(0+128)
  2455     030C  1283               	bcf	3,5	;RP0=0, select bank0
  2456     030D  1303               	bcf	3,6	;RP1=0, select bank0
  2457     030E  0852               	movf	?_scale+2,w
  2458     030F  1683               	bsf	3,5	;RP0=1, select bank1
  2459     0310  1303               	bcf	3,6	;RP1=0, select bank1
  2460     0311  00D8               	movwf	(sprintf@tmpval+2)^(0+128)
  2461     0312  1283               	bcf	3,5	;RP0=0, select bank0
  2462     0313  1303               	bcf	3,6	;RP1=0, select bank0
  2463     0314  0851               	movf	?_scale+1,w
  2464     0315  1683               	bsf	3,5	;RP0=1, select bank1
  2465     0316  1303               	bcf	3,6	;RP1=0, select bank1
  2466     0317  00D7               	movwf	(sprintf@tmpval+1)^(0+128)
  2467     0318  1283               	bcf	3,5	;RP0=0, select bank0
  2468     0319  1303               	bcf	3,6	;RP1=0, select bank0
  2469     031A  0850               	movf	?_scale,w
  2470     031B  1683               	bsf	3,5	;RP0=1, select bank1
  2471     031C  1303               	bcf	3,6	;RP1=0, select bank1
  2472     031D  00D6               	movwf	sprintf@tmpval^(0+128)
  2473     031E                     l4128:
  2474     031E  085D               	movf	(sprintf@fval+3)^(0+128),w
  2475     031F  1283               	bcf	3,5	;RP0=0, select bank0
  2476     0320  1303               	bcf	3,6	;RP1=0, select bank0
  2477     0321  00A9               	movwf	__div_to_l_@f1+3
  2478     0322  1683               	bsf	3,5	;RP0=1, select bank1
  2479     0323  1303               	bcf	3,6	;RP1=0, select bank1
  2480     0324  085C               	movf	(sprintf@fval+2)^(0+128),w
  2481     0325  1283               	bcf	3,5	;RP0=0, select bank0
  2482     0326  1303               	bcf	3,6	;RP1=0, select bank0
  2483     0327  00A8               	movwf	__div_to_l_@f1+2
  2484     0328  1683               	bsf	3,5	;RP0=1, select bank1
  2485     0329  1303               	bcf	3,6	;RP1=0, select bank1
  2486     032A  085B               	movf	(sprintf@fval+1)^(0+128),w
  2487     032B  1283               	bcf	3,5	;RP0=0, select bank0
  2488     032C  1303               	bcf	3,6	;RP1=0, select bank0
  2489     032D  00A7               	movwf	__div_to_l_@f1+1
  2490     032E  1683               	bsf	3,5	;RP0=1, select bank1
  2491     032F  1303               	bcf	3,6	;RP1=0, select bank1
  2492     0330  085A               	movf	sprintf@fval^(0+128),w
  2493     0331  1283               	bcf	3,5	;RP0=0, select bank0
  2494     0332  1303               	bcf	3,6	;RP1=0, select bank0
  2495     0333  00A6               	movwf	__div_to_l_@f1
  2496     0334  1683               	bsf	3,5	;RP0=1, select bank1
  2497     0335  1303               	bcf	3,6	;RP1=0, select bank1
  2498     0336  0859               	movf	(sprintf@tmpval+3)^(0+128),w
  2499     0337  1283               	bcf	3,5	;RP0=0, select bank0
  2500     0338  1303               	bcf	3,6	;RP1=0, select bank0
  2501     0339  00AD               	movwf	__div_to_l_@f2+3
  2502     033A  1683               	bsf	3,5	;RP0=1, select bank1
  2503     033B  1303               	bcf	3,6	;RP1=0, select bank1
  2504     033C  0858               	movf	(sprintf@tmpval+2)^(0+128),w
  2505     033D  1283               	bcf	3,5	;RP0=0, select bank0
  2506     033E  1303               	bcf	3,6	;RP1=0, select bank0
  2507     033F  00AC               	movwf	__div_to_l_@f2+2
  2508     0340  1683               	bsf	3,5	;RP0=1, select bank1
  2509     0341  1303               	bcf	3,6	;RP1=0, select bank1
  2510     0342  0857               	movf	(sprintf@tmpval+1)^(0+128),w
  2511     0343  1283               	bcf	3,5	;RP0=0, select bank0
  2512     0344  1303               	bcf	3,6	;RP1=0, select bank0
  2513     0345  00AB               	movwf	__div_to_l_@f2+1
  2514     0346  1683               	bsf	3,5	;RP0=1, select bank1
  2515     0347  1303               	bcf	3,6	;RP1=0, select bank1
  2516     0348  0856               	movf	sprintf@tmpval^(0+128),w
  2517     0349  1283               	bcf	3,5	;RP0=0, select bank0
  2518     034A  1303               	bcf	3,6	;RP1=0, select bank0
  2519     034B  00AA               	movwf	__div_to_l_@f2
  2520     034C  160A  118A  2051  120A  118A  	fcall	__div_to_l_
  2521     0351  1283               	bcf	3,5	;RP0=0, select bank0
  2522     0352  1303               	bcf	3,6	;RP1=0, select bank0
  2523     0353  0829               	movf	?__div_to_l_+3,w
  2524     0354  1683               	bsf	3,5	;RP0=1, select bank1
  2525     0355  1303               	bcf	3,6	;RP1=0, select bank1
  2526     0356  00D2               	movwf	(sprintf@val+3)^(0+128)
  2527     0357  1283               	bcf	3,5	;RP0=0, select bank0
  2528     0358  1303               	bcf	3,6	;RP1=0, select bank0
  2529     0359  0828               	movf	?__div_to_l_+2,w
  2530     035A  1683               	bsf	3,5	;RP0=1, select bank1
  2531     035B  1303               	bcf	3,6	;RP1=0, select bank1
  2532     035C  00D1               	movwf	(sprintf@val+2)^(0+128)
  2533     035D  1283               	bcf	3,5	;RP0=0, select bank0
  2534     035E  1303               	bcf	3,6	;RP1=0, select bank0
  2535     035F  0827               	movf	?__div_to_l_+1,w
  2536     0360  1683               	bsf	3,5	;RP0=1, select bank1
  2537     0361  1303               	bcf	3,6	;RP1=0, select bank1
  2538     0362  00D0               	movwf	(sprintf@val+1)^(0+128)
  2539     0363  1283               	bcf	3,5	;RP0=0, select bank0
  2540     0364  1303               	bcf	3,6	;RP1=0, select bank0
  2541     0365  0826               	movf	?__div_to_l_,w
  2542     0366  1683               	bsf	3,5	;RP0=1, select bank1
  2543     0367  1303               	bcf	3,6	;RP1=0, select bank1
  2544     0368  00CF               	movwf	sprintf@val^(0+128)
  2545     0369                     l4132:
  2546                           
  2547                           ;C:\Program Files\Microchip\xc8\v2.40\pic\sources\c90\common\doprnt.c: 1155:      fval =
      +                           0.0;
  2548     0369  3000               	movlw	0
  2549     036A  00DD               	movwf	(sprintf@fval+3)^(0+128)
  2550     036B  3000               	movlw	0
  2551     036C  00DC               	movwf	(sprintf@fval+2)^(0+128)
  2552     036D  3000               	movlw	0
  2553     036E  00DB               	movwf	(sprintf@fval+1)^(0+128)
  2554     036F  3000               	movlw	0
  2555     0370  00DA               	movwf	sprintf@fval^(0+128)
  2556                           
  2557                           ;C:\Program Files\Microchip\xc8\v2.40\pic\sources\c90\common\doprnt.c: 1156:     } else 
      +                          {
  2558     0371  2BD8               	goto	l4140
  2559     0372                     l4134:
  2560                           
  2561                           ;C:\Program Files\Microchip\xc8\v2.40\pic\sources\c90\common\doprnt.c: 1157:      val = 
      +                          (unsigned long)fval;
  2562     0372  1683               	bsf	3,5	;RP0=1, select bank1
  2563     0373  1303               	bcf	3,6	;RP1=0, select bank1
  2564     0374  085D               	movf	(sprintf@fval+3)^(0+128),w
  2565     0375  00A3               	movwf	(___fltol@f1+3)^(0+128)
  2566     0376  085C               	movf	(sprintf@fval+2)^(0+128),w
  2567     0377  00A2               	movwf	(___fltol@f1+2)^(0+128)
  2568     0378  085B               	movf	(sprintf@fval+1)^(0+128),w
  2569     0379  00A1               	movwf	(___fltol@f1+1)^(0+128)
  2570     037A  085A               	movf	sprintf@fval^(0+128),w
  2571     037B  00A0               	movwf	___fltol@f1^(0+128)
  2572     037C  120A  158A  2026  120A  118A  	fcall	___fltol
  2573     0381  1683               	bsf	3,5	;RP0=1, select bank1
  2574     0382  1303               	bcf	3,6	;RP1=0, select bank1
  2575     0383  0823               	movf	(?___fltol+3)^(0+128),w
  2576     0384  00D2               	movwf	(sprintf@val+3)^(0+128)
  2577     0385  0822               	movf	(?___fltol+2)^(0+128),w
  2578     0386  00D1               	movwf	(sprintf@val+2)^(0+128)
  2579     0387  0821               	movf	(?___fltol+1)^(0+128),w
  2580     0388  00D0               	movwf	(sprintf@val+1)^(0+128)
  2581     0389  0820               	movf	?___fltol^(0+128),w
  2582     038A  00CF               	movwf	sprintf@val^(0+128)
  2583     038B                     l4136:
  2584                           
  2585                           ;C:\Program Files\Microchip\xc8\v2.40\pic\sources\c90\common\doprnt.c: 1158:      fval -
      +                          = (double)val;
  2586     038B  0852               	movf	(sprintf@val+3)^(0+128),w
  2587     038C  1283               	bcf	3,5	;RP0=0, select bank0
  2588     038D  1303               	bcf	3,6	;RP1=0, select bank0
  2589     038E  00A9               	movwf	___xxtofl@val+3
  2590     038F  1683               	bsf	3,5	;RP0=1, select bank1
  2591     0390  1303               	bcf	3,6	;RP1=0, select bank1
  2592     0391  0851               	movf	(sprintf@val+2)^(0+128),w
  2593     0392  1283               	bcf	3,5	;RP0=0, select bank0
  2594     0393  1303               	bcf	3,6	;RP1=0, select bank0
  2595     0394  00A8               	movwf	___xxtofl@val+2
  2596     0395  1683               	bsf	3,5	;RP0=1, select bank1
  2597     0396  1303               	bcf	3,6	;RP1=0, select bank1
  2598     0397  0850               	movf	(sprintf@val+1)^(0+128),w
  2599     0398  1283               	bcf	3,5	;RP0=0, select bank0
  2600     0399  1303               	bcf	3,6	;RP1=0, select bank0
  2601     039A  00A7               	movwf	___xxtofl@val+1
  2602     039B  1683               	bsf	3,5	;RP0=1, select bank1
  2603     039C  1303               	bcf	3,6	;RP1=0, select bank1
  2604     039D  084F               	movf	sprintf@val^(0+128),w
  2605     039E  1283               	bcf	3,5	;RP0=0, select bank0
  2606     039F  1303               	bcf	3,6	;RP1=0, select bank0
  2607     03A0  00A6               	movwf	___xxtofl@val
  2608     03A1  3000               	movlw	0
  2609     03A2  120A  158A  209E  120A  118A  	fcall	___xxtofl
  2610     03A7  1283               	bcf	3,5	;RP0=0, select bank0
  2611     03A8  1303               	bcf	3,6	;RP1=0, select bank0
  2612     03A9  0829               	movf	?___xxtofl+3,w
  2613     03AA  1683               	bsf	3,5	;RP0=1, select bank1
  2614     03AB  1303               	bcf	3,6	;RP1=0, select bank1
  2615     03AC  00B7               	movwf	(___flsub@a+3)^(0+128)
  2616     03AD  1283               	bcf	3,5	;RP0=0, select bank0
  2617     03AE  1303               	bcf	3,6	;RP1=0, select bank0
  2618     03AF  0828               	movf	?___xxtofl+2,w
  2619     03B0  1683               	bsf	3,5	;RP0=1, select bank1
  2620     03B1  1303               	bcf	3,6	;RP1=0, select bank1
  2621     03B2  00B6               	movwf	(___flsub@a+2)^(0+128)
  2622     03B3  1283               	bcf	3,5	;RP0=0, select bank0
  2623     03B4  1303               	bcf	3,6	;RP1=0, select bank0
  2624     03B5  0827               	movf	?___xxtofl+1,w
  2625     03B6  1683               	bsf	3,5	;RP0=1, select bank1
  2626     03B7  1303               	bcf	3,6	;RP1=0, select bank1
  2627     03B8  00B5               	movwf	(___flsub@a+1)^(0+128)
  2628     03B9  1283               	bcf	3,5	;RP0=0, select bank0
  2629     03BA  1303               	bcf	3,6	;RP1=0, select bank0
  2630     03BB  0826               	movf	?___xxtofl,w
  2631     03BC  1683               	bsf	3,5	;RP0=1, select bank1
  2632     03BD  1303               	bcf	3,6	;RP1=0, select bank1
  2633     03BE  00B4               	movwf	___flsub@a^(0+128)
  2634     03BF  085D               	movf	(sprintf@fval+3)^(0+128),w
  2635     03C0  00BB               	movwf	(___flsub@b+3)^(0+128)
  2636     03C1  085C               	movf	(sprintf@fval+2)^(0+128),w
  2637     03C2  00BA               	movwf	(___flsub@b+2)^(0+128)
  2638     03C3  085B               	movf	(sprintf@fval+1)^(0+128),w
  2639     03C4  00B9               	movwf	(___flsub@b+1)^(0+128)
  2640     03C5  085A               	movf	sprintf@fval^(0+128),w
  2641     03C6  00B8               	movwf	___flsub@b^(0+128)
  2642     03C7  120A  158A  2002  120A  118A  	fcall	___flsub
  2643     03CC  1683               	bsf	3,5	;RP0=1, select bank1
  2644     03CD  1303               	bcf	3,6	;RP1=0, select bank1
  2645     03CE  0837               	movf	(?___flsub+3)^(0+128),w
  2646     03CF  00DD               	movwf	(sprintf@fval+3)^(0+128)
  2647     03D0  0836               	movf	(?___flsub+2)^(0+128),w
  2648     03D1  00DC               	movwf	(sprintf@fval+2)^(0+128)
  2649     03D2  0835               	movf	(?___flsub+1)^(0+128),w
  2650     03D3  00DB               	movwf	(sprintf@fval+1)^(0+128)
  2651     03D4  0834               	movf	?___flsub^(0+128),w
  2652     03D5  00DA               	movwf	sprintf@fval^(0+128)
  2653     03D6                     l4138:
  2654                           
  2655                           ;C:\Program Files\Microchip\xc8\v2.40\pic\sources\c90\common\doprnt.c: 1159:      eexp =
      +                           0;
  2656     03D6  01D3               	clrf	sprintf@eexp^(0+128)
  2657     03D7  01D4               	clrf	(sprintf@eexp+1)^(0+128)
  2658     03D8                     l4140:
  2659                           
  2660                           ;C:\Program Files\Microchip\xc8\v2.40\pic\sources\c90\common\doprnt.c: 1162:     for(c =
      +                           1 ; c != (sizeof dpowers/sizeof dpowers[0]) ; c++)
  2661     03D8  01DE               	clrf	sprintf@c^(0+128)
  2662     03D9  0ADE               	incf	sprintf@c^(0+128),f
  2663     03DA                     l4146:
  2664                           
  2665                           ;C:\Program Files\Microchip\xc8\v2.40\pic\sources\c90\common\doprnt.c: 1163:      if(val
      +                           < dpowers[c])
  2666     03DA  085E               	movf	sprintf@c^(0+128),w
  2667     03DB  00C1               	movwf	??_sprintf^(0+128)
  2668     03DC  3001               	movlw	1
  2669     03DD                     u6955:
  2670     03DD  1003               	clrc
  2671     03DE  0DC1               	rlf	??_sprintf^(0+128),f
  2672     03DF  3EFF               	addlw	-1
  2673     03E0  1D03               	skipz
  2674     03E1  2BDD               	goto	u6955
  2675     03E2  1003               	clrc
  2676     03E3  0D41               	rlf	??_sprintf^(0+128),w
  2677     03E4  3E79               	addlw	low ((_dpowers-__stringbase)| (0+32768))
  2678     03E5  0084               	movwf	4
  2679     03E6  160A  158A  2000  120A  118A  	fcall	stringdir
  2680     03EB  00C2               	movwf	(??_sprintf+1)^(0+128)
  2681     03EC  160A  158A  2000  120A  118A  	fcall	stringdir
  2682     03F1  00C3               	movwf	((??_sprintf+1)^(0+128)+1)
  2683     03F2  160A  158A  2000  120A  118A  	fcall	stringdir
  2684     03F7  00C4               	movwf	((??_sprintf+1)^(0+128)+2)
  2685     03F8  160A  158A  2000  120A  118A  	fcall	stringdir
  2686     03FD  00C5               	movwf	((??_sprintf+1)^(0+128)+3)
  2687     03FE  0845               	movf	(??_sprintf+4)^(0+128),w
  2688     03FF  0252               	subwf	(sprintf@val+3)^(0+128),w
  2689     0400  1D03               	skipz
  2690     0401  2C0C               	goto	u6965
  2691     0402  0844               	movf	(??_sprintf+3)^(0+128),w
  2692     0403  0251               	subwf	(sprintf@val+2)^(0+128),w
  2693     0404  1D03               	skipz
  2694     0405  2C0C               	goto	u6965
  2695     0406  0843               	movf	(??_sprintf+2)^(0+128),w
  2696     0407  0250               	subwf	(sprintf@val+1)^(0+128),w
  2697     0408  1D03               	skipz
  2698     0409  2C0C               	goto	u6965
  2699     040A  0842               	movf	(??_sprintf+1)^(0+128),w
  2700     040B  024F               	subwf	sprintf@val^(0+128),w
  2701     040C                     u6965:
  2702     040C  1803               	skipnc
  2703     040D  2C0F               	goto	u6961
  2704     040E  2C10               	goto	u6960
  2705     040F                     u6961:
  2706     040F  2C11               	goto	l4150
  2707     0410                     u6960:
  2708     0410  2C1B               	goto	l4152
  2709     0411                     l4150:
  2710     0411  3001               	movlw	1
  2711     0412  00C1               	movwf	??_sprintf^(0+128)
  2712     0413  0841               	movf	??_sprintf^(0+128),w
  2713     0414  07DE               	addwf	sprintf@c^(0+128),f
  2714     0415  300A               	movlw	10
  2715     0416  065E               	xorwf	sprintf@c^(0+128),w
  2716     0417  1D03               	btfss	3,2
  2717     0418  2C1A               	goto	u6971
  2718     0419  2C1B               	goto	u6970
  2719     041A                     u6971:
  2720     041A  2BDA               	goto	l4146
  2721     041B                     u6970:
  2722     041B                     l4152:
  2723                           
  2724                           ;C:\Program Files\Microchip\xc8\v2.40\pic\sources\c90\common\doprnt.c: 1201:     {;C:\Pr
      +                          ogram Files\Microchip\xc8\v2.40\pic\sources\c90\common\doprnt.c: 1214:     if(flag & 0x0
      +                          3)
  2725     041B  3003               	movlw	3
  2726     041C  054B               	andwf	sprintf@flag^(0+128),w
  2727     041D  00C1               	movwf	??_sprintf^(0+128)
  2728     041E  3000               	movlw	0
  2729     041F  054C               	andwf	(sprintf@flag+1)^(0+128),w
  2730     0420  00C2               	movwf	(??_sprintf+1)^(0+128)
  2731     0421  0841               	movf	??_sprintf^(0+128),w
  2732     0422  0442               	iorwf	(??_sprintf^(0+128)+1),w
  2733     0423  1903               	btfsc	3,2
  2734     0424  2C26               	goto	u6981
  2735     0425  2C27               	goto	u6980
  2736     0426                     u6981:
  2737     0426  2CD5               	goto	l327
  2738     0427                     u6980:
  2739     0427                     l4154:
  2740                           
  2741                           ;C:\Program Files\Microchip\xc8\v2.40\pic\sources\c90\common\doprnt.c: 1216:      ((*sp+
      +                          + = ('-')));
  2742     0427  0855               	movf	sprintf@sp^(0+128),w
  2743     0428  0084               	movwf	4
  2744     0429  302D               	movlw	45
  2745     042A  1783               	bsf	3,7	;select IRP bank2
  2746     042B  0080               	movwf	0
  2747     042C                     l4156:
  2748     042C  3001               	movlw	1
  2749     042D  00C1               	movwf	??_sprintf^(0+128)
  2750     042E  0841               	movf	??_sprintf^(0+128),w
  2751     042F  07D5               	addwf	sprintf@sp^(0+128),f
  2752     0430  2CD5               	goto	l327
  2753     0431                     l4158:
  2754                           
  2755                           ;C:\Program Files\Microchip\xc8\v2.40\pic\sources\c90\common\doprnt.c: 1226:     {;C:\Pr
      +                          ogram Files\Microchip\xc8\v2.40\pic\sources\c90\common\doprnt.c: 1227:      tmpval.vd = 
      +                          val/dpowers[c];
  2756     0431  085E               	movf	sprintf@c^(0+128),w
  2757     0432  00C1               	movwf	??_sprintf^(0+128)
  2758     0433  3001               	movlw	1
  2759     0434                     u6995:
  2760     0434  1003               	clrc
  2761     0435  0DC1               	rlf	??_sprintf^(0+128),f
  2762     0436  3EFF               	addlw	-1
  2763     0437  1D03               	skipz
  2764     0438  2C34               	goto	u6995
  2765     0439  1003               	clrc
  2766     043A  0D41               	rlf	??_sprintf^(0+128),w
  2767     043B  3E79               	addlw	low ((_dpowers-__stringbase)| (0+32768))
  2768     043C  0084               	movwf	4
  2769     043D  160A  158A  2000  120A  118A  	fcall	stringdir
  2770     0442  1283               	bcf	3,5	;RP0=0, select bank0
  2771     0443  1303               	bcf	3,6	;RP1=0, select bank0
  2772     0444  00A6               	movwf	___lldiv@divisor
  2773     0445  160A  158A  2000  120A  118A  	fcall	stringdir
  2774     044A  00A7               	movwf	___lldiv@divisor+1
  2775     044B  160A  158A  2000  120A  118A  	fcall	stringdir
  2776     0450  00A8               	movwf	___lldiv@divisor+2
  2777     0451  160A  158A  2000  120A  118A  	fcall	stringdir
  2778     0456  00A9               	movwf	___lldiv@divisor+3
  2779     0457  1683               	bsf	3,5	;RP0=1, select bank1
  2780     0458  1303               	bcf	3,6	;RP1=0, select bank1
  2781     0459  0852               	movf	(sprintf@val+3)^(0+128),w
  2782     045A  1283               	bcf	3,5	;RP0=0, select bank0
  2783     045B  1303               	bcf	3,6	;RP1=0, select bank0
  2784     045C  00AD               	movwf	___lldiv@dividend+3
  2785     045D  1683               	bsf	3,5	;RP0=1, select bank1
  2786     045E  1303               	bcf	3,6	;RP1=0, select bank1
  2787     045F  0851               	movf	(sprintf@val+2)^(0+128),w
  2788     0460  1283               	bcf	3,5	;RP0=0, select bank0
  2789     0461  1303               	bcf	3,6	;RP1=0, select bank0
  2790     0462  00AC               	movwf	___lldiv@dividend+2
  2791     0463  1683               	bsf	3,5	;RP0=1, select bank1
  2792     0464  1303               	bcf	3,6	;RP1=0, select bank1
  2793     0465  0850               	movf	(sprintf@val+1)^(0+128),w
  2794     0466  1283               	bcf	3,5	;RP0=0, select bank0
  2795     0467  1303               	bcf	3,6	;RP1=0, select bank0
  2796     0468  00AB               	movwf	___lldiv@dividend+1
  2797     0469  1683               	bsf	3,5	;RP0=1, select bank1
  2798     046A  1303               	bcf	3,6	;RP1=0, select bank1
  2799     046B  084F               	movf	sprintf@val^(0+128),w
  2800     046C  1283               	bcf	3,5	;RP0=0, select bank0
  2801     046D  1303               	bcf	3,6	;RP1=0, select bank0
  2802     046E  00AA               	movwf	___lldiv@dividend
  2803     046F  160A  158A  251C  120A  118A  	fcall	___lldiv
  2804     0474  1283               	bcf	3,5	;RP0=0, select bank0
  2805     0475  1303               	bcf	3,6	;RP1=0, select bank0
  2806     0476  0829               	movf	?___lldiv+3,w
  2807     0477  1683               	bsf	3,5	;RP0=1, select bank1
  2808     0478  1303               	bcf	3,6	;RP1=0, select bank1
  2809     0479  00D9               	movwf	(sprintf@tmpval+3)^(0+128)
  2810     047A  1283               	bcf	3,5	;RP0=0, select bank0
  2811     047B  1303               	bcf	3,6	;RP1=0, select bank0
  2812     047C  0828               	movf	?___lldiv+2,w
  2813     047D  1683               	bsf	3,5	;RP0=1, select bank1
  2814     047E  1303               	bcf	3,6	;RP1=0, select bank1
  2815     047F  00D8               	movwf	(sprintf@tmpval+2)^(0+128)
  2816     0480  1283               	bcf	3,5	;RP0=0, select bank0
  2817     0481  1303               	bcf	3,6	;RP1=0, select bank0
  2818     0482  0827               	movf	?___lldiv+1,w
  2819     0483  1683               	bsf	3,5	;RP0=1, select bank1
  2820     0484  1303               	bcf	3,6	;RP1=0, select bank1
  2821     0485  00D7               	movwf	(sprintf@tmpval+1)^(0+128)
  2822     0486  1283               	bcf	3,5	;RP0=0, select bank0
  2823     0487  1303               	bcf	3,6	;RP1=0, select bank0
  2824     0488  0826               	movf	?___lldiv,w
  2825     0489  1683               	bsf	3,5	;RP0=1, select bank1
  2826     048A  1303               	bcf	3,6	;RP1=0, select bank1
  2827     048B  00D6               	movwf	sprintf@tmpval^(0+128)
  2828     048C                     l4160:
  2829                           
  2830                           ;C:\Program Files\Microchip\xc8\v2.40\pic\sources\c90\common\doprnt.c: 1228:      tmpval
      +                          .vd %= 10;
  2831     048C  3000               	movlw	0
  2832     048D  1283               	bcf	3,5	;RP0=0, select bank0
  2833     048E  1303               	bcf	3,6	;RP1=0, select bank0
  2834     048F  00A9               	movwf	___llmod@divisor+3
  2835     0490  3000               	movlw	0
  2836     0491  00A8               	movwf	___llmod@divisor+2
  2837     0492  3000               	movlw	0
  2838     0493  00A7               	movwf	___llmod@divisor+1
  2839     0494  300A               	movlw	10
  2840     0495  00A6               	movwf	___llmod@divisor
  2841     0496  1683               	bsf	3,5	;RP0=1, select bank1
  2842     0497  1303               	bcf	3,6	;RP1=0, select bank1
  2843     0498  0859               	movf	(sprintf@tmpval+3)^(0+128),w
  2844     0499  1283               	bcf	3,5	;RP0=0, select bank0
  2845     049A  1303               	bcf	3,6	;RP1=0, select bank0
  2846     049B  00AD               	movwf	___llmod@dividend+3
  2847     049C  1683               	bsf	3,5	;RP0=1, select bank1
  2848     049D  1303               	bcf	3,6	;RP1=0, select bank1
  2849     049E  0858               	movf	(sprintf@tmpval+2)^(0+128),w
  2850     049F  1283               	bcf	3,5	;RP0=0, select bank0
  2851     04A0  1303               	bcf	3,6	;RP1=0, select bank0
  2852     04A1  00AC               	movwf	___llmod@dividend+2
  2853     04A2  1683               	bsf	3,5	;RP0=1, select bank1
  2854     04A3  1303               	bcf	3,6	;RP1=0, select bank1
  2855     04A4  0857               	movf	(sprintf@tmpval+1)^(0+128),w
  2856     04A5  1283               	bcf	3,5	;RP0=0, select bank0
  2857     04A6  1303               	bcf	3,6	;RP1=0, select bank0
  2858     04A7  00AB               	movwf	___llmod@dividend+1
  2859     04A8  1683               	bsf	3,5	;RP0=1, select bank1
  2860     04A9  1303               	bcf	3,6	;RP1=0, select bank1
  2861     04AA  0856               	movf	sprintf@tmpval^(0+128),w
  2862     04AB  1283               	bcf	3,5	;RP0=0, select bank0
  2863     04AC  1303               	bcf	3,6	;RP1=0, select bank0
  2864     04AD  00AA               	movwf	___llmod@dividend
  2865     04AE  160A  158A  239F  120A  118A  	fcall	___llmod
  2866     04B3  1283               	bcf	3,5	;RP0=0, select bank0
  2867     04B4  1303               	bcf	3,6	;RP1=0, select bank0
  2868     04B5  0829               	movf	?___llmod+3,w
  2869     04B6  1683               	bsf	3,5	;RP0=1, select bank1
  2870     04B7  1303               	bcf	3,6	;RP1=0, select bank1
  2871     04B8  00D9               	movwf	(sprintf@tmpval+3)^(0+128)
  2872     04B9  1283               	bcf	3,5	;RP0=0, select bank0
  2873     04BA  1303               	bcf	3,6	;RP1=0, select bank0
  2874     04BB  0828               	movf	?___llmod+2,w
  2875     04BC  1683               	bsf	3,5	;RP0=1, select bank1
  2876     04BD  1303               	bcf	3,6	;RP1=0, select bank1
  2877     04BE  00D8               	movwf	(sprintf@tmpval+2)^(0+128)
  2878     04BF  1283               	bcf	3,5	;RP0=0, select bank0
  2879     04C0  1303               	bcf	3,6	;RP1=0, select bank0
  2880     04C1  0827               	movf	?___llmod+1,w
  2881     04C2  1683               	bsf	3,5	;RP0=1, select bank1
  2882     04C3  1303               	bcf	3,6	;RP1=0, select bank1
  2883     04C4  00D7               	movwf	(sprintf@tmpval+1)^(0+128)
  2884     04C5  1283               	bcf	3,5	;RP0=0, select bank0
  2885     04C6  1303               	bcf	3,6	;RP1=0, select bank0
  2886     04C7  0826               	movf	?___llmod,w
  2887     04C8  1683               	bsf	3,5	;RP0=1, select bank1
  2888     04C9  1303               	bcf	3,6	;RP1=0, select bank1
  2889     04CA  00D6               	movwf	sprintf@tmpval^(0+128)
  2890     04CB                     l4162:
  2891                           
  2892                           ;C:\Program Files\Microchip\xc8\v2.40\pic\sources\c90\common\doprnt.c: 1229:      ((*sp+
      +                          + = ('0' + tmpval.vd)));
  2893     04CB  0855               	movf	sprintf@sp^(0+128),w
  2894     04CC  0084               	movwf	4
  2895     04CD  0856               	movf	sprintf@tmpval^(0+128),w
  2896     04CE  3E30               	addlw	48
  2897     04CF  1783               	bsf	3,7	;select IRP bank2
  2898     04D0  0080               	movwf	0
  2899     04D1  3001               	movlw	1
  2900     04D2  00C1               	movwf	??_sprintf^(0+128)
  2901     04D3  0841               	movf	??_sprintf^(0+128),w
  2902     04D4  07D5               	addwf	sprintf@sp^(0+128),f
  2903     04D5                     l327:	
  2904                           ;C:\Program Files\Microchip\xc8\v2.40\pic\sources\c90\common\doprnt.c: 1230:     };C:\Pr
      +                          ogram Files\Microchip\xc8\v2.40\pic\sources\c90\common\doprnt.c: 1232:    }
  2905                           
  2906                           
  2907                           ;C:\Program Files\Microchip\xc8\v2.40\pic\sources\c90\common\doprnt.c: 1222:    while(c-
      +                          -) {
  2908     04D5  3001               	movlw	1
  2909     04D6  02DE               	subwf	sprintf@c^(0+128),f
  2910     04D7  0A5E               	incf	sprintf@c^(0+128),w
  2911     04D8  1D03               	btfss	3,2
  2912     04D9  2CDB               	goto	u7001
  2913     04DA  2CDC               	goto	u7000
  2914     04DB                     u7001:
  2915     04DB  2C31               	goto	l4158
  2916     04DC                     u7000:
  2917     04DC  2CEE               	goto	l4170
  2918     04DD                     l4164:
  2919                           
  2920                           ;C:\Program Files\Microchip\xc8\v2.40\pic\sources\c90\common\doprnt.c: 1234:     ((*sp++
      +                           = ('0')));
  2921     04DD  1683               	bsf	3,5	;RP0=1, select bank1
  2922     04DE  1303               	bcf	3,6	;RP1=0, select bank1
  2923     04DF  0855               	movf	sprintf@sp^(0+128),w
  2924     04E0  0084               	movwf	4
  2925     04E1  3030               	movlw	48
  2926     04E2  1783               	bsf	3,7	;select IRP bank2
  2927     04E3  0080               	movwf	0
  2928     04E4                     l4166:
  2929     04E4  3001               	movlw	1
  2930     04E5  00C1               	movwf	??_sprintf^(0+128)
  2931     04E6  0841               	movf	??_sprintf^(0+128),w
  2932     04E7  07D5               	addwf	sprintf@sp^(0+128),f
  2933     04E8                     l4168:
  2934                           
  2935                           ;C:\Program Files\Microchip\xc8\v2.40\pic\sources\c90\common\doprnt.c: 1235:     eexp--;
  2936     04E8  30FF               	movlw	255
  2937     04E9  07D3               	addwf	sprintf@eexp^(0+128),f
  2938     04EA  1803               	skipnc
  2939     04EB  0AD4               	incf	(sprintf@eexp+1)^(0+128),f
  2940     04EC  30FF               	movlw	255
  2941     04ED  07D4               	addwf	(sprintf@eexp+1)^(0+128),f
  2942     04EE                     l4170:
  2943                           
  2944                           ;C:\Program Files\Microchip\xc8\v2.40\pic\sources\c90\common\doprnt.c: 1233:    while(ee
      +                          xp > 0) {
  2945     04EE  0854               	movf	(sprintf@eexp+1)^(0+128),w
  2946     04EF  3A80               	xorlw	128
  2947     04F0  00FF               	movwf	btemp+1
  2948     04F1  3080               	movlw	128
  2949     04F2  027F               	subwf	btemp+1,w
  2950     04F3  1D03               	skipz
  2951     04F4  2CF7               	goto	u7015
  2952     04F5  3001               	movlw	1
  2953     04F6  0253               	subwf	sprintf@eexp^(0+128),w
  2954     04F7                     u7015:
  2955     04F7  1803               	skipnc
  2956     04F8  2CFA               	goto	u7011
  2957     04F9  2CFB               	goto	u7010
  2958     04FA                     u7011:
  2959     04FA  2CDD               	goto	l4164
  2960     04FB                     u7010:
  2961     04FB                     l4172:
  2962                           
  2963                           ;C:\Program Files\Microchip\xc8\v2.40\pic\sources\c90\common\doprnt.c: 1237:    if(prec 
      +                          > (int)((sizeof dpowers/sizeof dpowers[0])-2))
  2964     04FB  1683               	bsf	3,5	;RP0=1, select bank1
  2965     04FC  1303               	bcf	3,6	;RP1=0, select bank1
  2966     04FD  084E               	movf	(sprintf@prec+1)^(0+128),w
  2967     04FE  3A80               	xorlw	128
  2968     04FF  00FF               	movwf	btemp+1
  2969     0500  3080               	movlw	128
  2970     0501  027F               	subwf	btemp+1,w
  2971     0502  1D03               	skipz
  2972     0503  2D06               	goto	u7025
  2973     0504  3009               	movlw	9
  2974     0505  024D               	subwf	sprintf@prec^(0+128),w
  2975     0506                     u7025:
  2976     0506  1C03               	skipc
  2977     0507  2D09               	goto	u7021
  2978     0508  2D0A               	goto	u7020
  2979     0509                     u7021:
  2980     0509  2D0F               	goto	l4176
  2981     050A                     u7020:
  2982     050A                     l4174:
  2983                           
  2984                           ;C:\Program Files\Microchip\xc8\v2.40\pic\sources\c90\common\doprnt.c: 1238:     c = (si
      +                          zeof dpowers/sizeof dpowers[0])-2;
  2985     050A  3008               	movlw	8
  2986     050B  1683               	bsf	3,5	;RP0=1, select bank1
  2987     050C  1303               	bcf	3,6	;RP1=0, select bank1
  2988     050D  00DE               	movwf	sprintf@c^(0+128)
  2989     050E  2D13               	goto	l334
  2990     050F                     l4176:
  2991                           
  2992                           ;C:\Program Files\Microchip\xc8\v2.40\pic\sources\c90\common\doprnt.c: 1240:     c = (ch
      +                          ar)prec;
  2993     050F  1683               	bsf	3,5	;RP0=1, select bank1
  2994     0510  1303               	bcf	3,6	;RP1=0, select bank1
  2995     0511  084D               	movf	sprintf@prec^(0+128),w
  2996     0512  00DE               	movwf	sprintf@c^(0+128)
  2997     0513                     l334:
  2998                           
  2999                           ;C:\Program Files\Microchip\xc8\v2.40\pic\sources\c90\common\doprnt.c: 1241:    prec -= 
      +                          (int)c;
  3000     0513  085E               	movf	sprintf@c^(0+128),w
  3001     0514  00C1               	movwf	??_sprintf^(0+128)
  3002     0515  01C2               	clrf	(??_sprintf^(0+128)+1)
  3003     0516  0841               	movf	??_sprintf^(0+128),w
  3004     0517  02CD               	subwf	sprintf@prec^(0+128),f
  3005     0518  0842               	movf	(??_sprintf+1)^(0+128),w
  3006     0519  1C03               	skipc
  3007     051A  03CE               	decf	(sprintf@prec+1)^(0+128),f
  3008     051B  02CE               	subwf	(sprintf@prec+1)^(0+128),f
  3009     051C                     l4178:
  3010                           
  3011                           ;C:\Program Files\Microchip\xc8\v2.40\pic\sources\c90\common\doprnt.c: 1245:    if(c)
  3012     051C  085E               	movf	sprintf@c^(0+128),w
  3013     051D  1903               	btfsc	3,2
  3014     051E  2D20               	goto	u7031
  3015     051F  2D21               	goto	u7030
  3016     0520                     u7031:
  3017     0520  2D2A               	goto	l4184
  3018     0521                     u7030:
  3019     0521                     l4180:
  3020                           
  3021                           ;C:\Program Files\Microchip\xc8\v2.40\pic\sources\c90\common\doprnt.c: 1247:     ((*sp++
      +                           = ('.')));
  3022     0521  0855               	movf	sprintf@sp^(0+128),w
  3023     0522  0084               	movwf	4
  3024     0523  302E               	movlw	46
  3025     0524  1783               	bsf	3,7	;select IRP bank2
  3026     0525  0080               	movwf	0
  3027     0526                     l4182:
  3028     0526  3001               	movlw	1
  3029     0527  00C1               	movwf	??_sprintf^(0+128)
  3030     0528  0841               	movf	??_sprintf^(0+128),w
  3031     0529  07D5               	addwf	sprintf@sp^(0+128),f
  3032     052A                     l4184:
  3033                           
  3034                           ;C:\Program Files\Microchip\xc8\v2.40\pic\sources\c90\common\doprnt.c: 1253:    val = (u
      +                          nsigned long)(fval * scale((signed char)c));
  3035     052A  085E               	movf	sprintf@c^(0+128),w
  3036     052B  120A  158A  249D  120A  118A  	fcall	_scale
  3037     0530  1283               	bcf	3,5	;RP0=0, select bank0
  3038     0531  1303               	bcf	3,6	;RP1=0, select bank0
  3039     0532  0853               	movf	?_scale+3,w
  3040     0533  1683               	bsf	3,5	;RP0=1, select bank1
  3041     0534  1303               	bcf	3,6	;RP1=0, select bank1
  3042     0535  00C9               	movwf	(_sprintf$1079+3)^(0+128)
  3043     0536  1283               	bcf	3,5	;RP0=0, select bank0
  3044     0537  1303               	bcf	3,6	;RP1=0, select bank0
  3045     0538  0852               	movf	?_scale+2,w
  3046     0539  1683               	bsf	3,5	;RP0=1, select bank1
  3047     053A  1303               	bcf	3,6	;RP1=0, select bank1
  3048     053B  00C8               	movwf	(_sprintf$1079+2)^(0+128)
  3049     053C  1283               	bcf	3,5	;RP0=0, select bank0
  3050     053D  1303               	bcf	3,6	;RP1=0, select bank0
  3051     053E  0851               	movf	?_scale+1,w
  3052     053F  1683               	bsf	3,5	;RP0=1, select bank1
  3053     0540  1303               	bcf	3,6	;RP1=0, select bank1
  3054     0541  00C7               	movwf	(_sprintf$1079+1)^(0+128)
  3055     0542  1283               	bcf	3,5	;RP0=0, select bank0
  3056     0543  1303               	bcf	3,6	;RP1=0, select bank0
  3057     0544  0850               	movf	?_scale,w
  3058     0545  1683               	bsf	3,5	;RP0=1, select bank1
  3059     0546  1303               	bcf	3,6	;RP1=0, select bank1
  3060     0547  00C6               	movwf	_sprintf$1079^(0+128)
  3061     0548                     l4186:
  3062                           
  3063                           ;C:\Program Files\Microchip\xc8\v2.40\pic\sources\c90\common\doprnt.c: 1253:    val = (u
      +                          nsigned long)(fval * scale((signed char)c));
  3064     0548  0849               	movf	(_sprintf$1079+3)^(0+128),w
  3065     0549  1283               	bcf	3,5	;RP0=0, select bank0
  3066     054A  1303               	bcf	3,6	;RP1=0, select bank0
  3067     054B  00BD               	movwf	___flmul@a+3
  3068     054C  1683               	bsf	3,5	;RP0=1, select bank1
  3069     054D  1303               	bcf	3,6	;RP1=0, select bank1
  3070     054E  0848               	movf	(_sprintf$1079+2)^(0+128),w
  3071     054F  1283               	bcf	3,5	;RP0=0, select bank0
  3072     0550  1303               	bcf	3,6	;RP1=0, select bank0
  3073     0551  00BC               	movwf	___flmul@a+2
  3074     0552  1683               	bsf	3,5	;RP0=1, select bank1
  3075     0553  1303               	bcf	3,6	;RP1=0, select bank1
  3076     0554  0847               	movf	(_sprintf$1079+1)^(0+128),w
  3077     0555  1283               	bcf	3,5	;RP0=0, select bank0
  3078     0556  1303               	bcf	3,6	;RP1=0, select bank0
  3079     0557  00BB               	movwf	___flmul@a+1
  3080     0558  1683               	bsf	3,5	;RP0=1, select bank1
  3081     0559  1303               	bcf	3,6	;RP1=0, select bank1
  3082     055A  0846               	movf	_sprintf$1079^(0+128),w
  3083     055B  1283               	bcf	3,5	;RP0=0, select bank0
  3084     055C  1303               	bcf	3,6	;RP1=0, select bank0
  3085     055D  00BA               	movwf	___flmul@a
  3086     055E  1683               	bsf	3,5	;RP0=1, select bank1
  3087     055F  1303               	bcf	3,6	;RP1=0, select bank1
  3088     0560  085D               	movf	(sprintf@fval+3)^(0+128),w
  3089     0561  1283               	bcf	3,5	;RP0=0, select bank0
  3090     0562  1303               	bcf	3,6	;RP1=0, select bank0
  3091     0563  00B9               	movwf	___flmul@b+3
  3092     0564  1683               	bsf	3,5	;RP0=1, select bank1
  3093     0565  1303               	bcf	3,6	;RP1=0, select bank1
  3094     0566  085C               	movf	(sprintf@fval+2)^(0+128),w
  3095     0567  1283               	bcf	3,5	;RP0=0, select bank0
  3096     0568  1303               	bcf	3,6	;RP1=0, select bank0
  3097     0569  00B8               	movwf	___flmul@b+2
  3098     056A  1683               	bsf	3,5	;RP0=1, select bank1
  3099     056B  1303               	bcf	3,6	;RP1=0, select bank1
  3100     056C  085B               	movf	(sprintf@fval+1)^(0+128),w
  3101     056D  1283               	bcf	3,5	;RP0=0, select bank0
  3102     056E  1303               	bcf	3,6	;RP1=0, select bank0
  3103     056F  00B7               	movwf	___flmul@b+1
  3104     0570  1683               	bsf	3,5	;RP0=1, select bank1
  3105     0571  1303               	bcf	3,6	;RP1=0, select bank1
  3106     0572  085A               	movf	sprintf@fval^(0+128),w
  3107     0573  1283               	bcf	3,5	;RP0=0, select bank0
  3108     0574  1303               	bcf	3,6	;RP1=0, select bank0
  3109     0575  00B6               	movwf	___flmul@b
  3110     0576  120A  158A  2158  120A  118A  	fcall	___flmul
  3111     057B  1283               	bcf	3,5	;RP0=0, select bank0
  3112     057C  1303               	bcf	3,6	;RP1=0, select bank0
  3113     057D  0839               	movf	?___flmul+3,w
  3114     057E  1683               	bsf	3,5	;RP0=1, select bank1
  3115     057F  1303               	bcf	3,6	;RP1=0, select bank1
  3116     0580  00A3               	movwf	(___fltol@f1+3)^(0+128)
  3117     0581  1283               	bcf	3,5	;RP0=0, select bank0
  3118     0582  1303               	bcf	3,6	;RP1=0, select bank0
  3119     0583  0838               	movf	?___flmul+2,w
  3120     0584  1683               	bsf	3,5	;RP0=1, select bank1
  3121     0585  1303               	bcf	3,6	;RP1=0, select bank1
  3122     0586  00A2               	movwf	(___fltol@f1+2)^(0+128)
  3123     0587  1283               	bcf	3,5	;RP0=0, select bank0
  3124     0588  1303               	bcf	3,6	;RP1=0, select bank0
  3125     0589  0837               	movf	?___flmul+1,w
  3126     058A  1683               	bsf	3,5	;RP0=1, select bank1
  3127     058B  1303               	bcf	3,6	;RP1=0, select bank1
  3128     058C  00A1               	movwf	(___fltol@f1+1)^(0+128)
  3129     058D  1283               	bcf	3,5	;RP0=0, select bank0
  3130     058E  1303               	bcf	3,6	;RP1=0, select bank0
  3131     058F  0836               	movf	?___flmul,w
  3132     0590  1683               	bsf	3,5	;RP0=1, select bank1
  3133     0591  1303               	bcf	3,6	;RP1=0, select bank1
  3134     0592  00A0               	movwf	___fltol@f1^(0+128)
  3135     0593  120A  158A  2026  120A  118A  	fcall	___fltol
  3136     0598  1683               	bsf	3,5	;RP0=1, select bank1
  3137     0599  1303               	bcf	3,6	;RP1=0, select bank1
  3138     059A  0823               	movf	(?___fltol+3)^(0+128),w
  3139     059B  00D2               	movwf	(sprintf@val+3)^(0+128)
  3140     059C  0822               	movf	(?___fltol+2)^(0+128),w
  3141     059D  00D1               	movwf	(sprintf@val+2)^(0+128)
  3142     059E  0821               	movf	(?___fltol+1)^(0+128),w
  3143     059F  00D0               	movwf	(sprintf@val+1)^(0+128)
  3144     05A0  0820               	movf	?___fltol^(0+128),w
  3145     05A1  00CF               	movwf	sprintf@val^(0+128)
  3146                           
  3147                           ;C:\Program Files\Microchip\xc8\v2.40\pic\sources\c90\common\doprnt.c: 1254:    while(c-
      +                          -) {
  3148     05A2  2EA2               	goto	l4196
  3149     05A3                     l4188:
  3150                           
  3151                           ;C:\Program Files\Microchip\xc8\v2.40\pic\sources\c90\common\doprnt.c: 1255:     tmpval.
      +                          vd = val/dpowers[c];
  3152     05A3  085E               	movf	sprintf@c^(0+128),w
  3153     05A4  00C1               	movwf	??_sprintf^(0+128)
  3154     05A5  3001               	movlw	1
  3155     05A6                     u7045:
  3156     05A6  1003               	clrc
  3157     05A7  0DC1               	rlf	??_sprintf^(0+128),f
  3158     05A8  3EFF               	addlw	-1
  3159     05A9  1D03               	skipz
  3160     05AA  2DA6               	goto	u7045
  3161     05AB  1003               	clrc
  3162     05AC  0D41               	rlf	??_sprintf^(0+128),w
  3163     05AD  3E79               	addlw	low ((_dpowers-__stringbase)| (0+32768))
  3164     05AE  0084               	movwf	4
  3165     05AF  160A  158A  2000  120A  118A  	fcall	stringdir
  3166     05B4  1283               	bcf	3,5	;RP0=0, select bank0
  3167     05B5  1303               	bcf	3,6	;RP1=0, select bank0
  3168     05B6  00A6               	movwf	___lldiv@divisor
  3169     05B7  160A  158A  2000  120A  118A  	fcall	stringdir
  3170     05BC  00A7               	movwf	___lldiv@divisor+1
  3171     05BD  160A  158A  2000  120A  118A  	fcall	stringdir
  3172     05C2  00A8               	movwf	___lldiv@divisor+2
  3173     05C3  160A  158A  2000  120A  118A  	fcall	stringdir
  3174     05C8  00A9               	movwf	___lldiv@divisor+3
  3175     05C9  1683               	bsf	3,5	;RP0=1, select bank1
  3176     05CA  1303               	bcf	3,6	;RP1=0, select bank1
  3177     05CB  0852               	movf	(sprintf@val+3)^(0+128),w
  3178     05CC  1283               	bcf	3,5	;RP0=0, select bank0
  3179     05CD  1303               	bcf	3,6	;RP1=0, select bank0
  3180     05CE  00AD               	movwf	___lldiv@dividend+3
  3181     05CF  1683               	bsf	3,5	;RP0=1, select bank1
  3182     05D0  1303               	bcf	3,6	;RP1=0, select bank1
  3183     05D1  0851               	movf	(sprintf@val+2)^(0+128),w
  3184     05D2  1283               	bcf	3,5	;RP0=0, select bank0
  3185     05D3  1303               	bcf	3,6	;RP1=0, select bank0
  3186     05D4  00AC               	movwf	___lldiv@dividend+2
  3187     05D5  1683               	bsf	3,5	;RP0=1, select bank1
  3188     05D6  1303               	bcf	3,6	;RP1=0, select bank1
  3189     05D7  0850               	movf	(sprintf@val+1)^(0+128),w
  3190     05D8  1283               	bcf	3,5	;RP0=0, select bank0
  3191     05D9  1303               	bcf	3,6	;RP1=0, select bank0
  3192     05DA  00AB               	movwf	___lldiv@dividend+1
  3193     05DB  1683               	bsf	3,5	;RP0=1, select bank1
  3194     05DC  1303               	bcf	3,6	;RP1=0, select bank1
  3195     05DD  084F               	movf	sprintf@val^(0+128),w
  3196     05DE  1283               	bcf	3,5	;RP0=0, select bank0
  3197     05DF  1303               	bcf	3,6	;RP1=0, select bank0
  3198     05E0  00AA               	movwf	___lldiv@dividend
  3199     05E1  160A  158A  251C  120A  118A  	fcall	___lldiv
  3200     05E6  1283               	bcf	3,5	;RP0=0, select bank0
  3201     05E7  1303               	bcf	3,6	;RP1=0, select bank0
  3202     05E8  0829               	movf	?___lldiv+3,w
  3203     05E9  1683               	bsf	3,5	;RP0=1, select bank1
  3204     05EA  1303               	bcf	3,6	;RP1=0, select bank1
  3205     05EB  00D9               	movwf	(sprintf@tmpval+3)^(0+128)
  3206     05EC  1283               	bcf	3,5	;RP0=0, select bank0
  3207     05ED  1303               	bcf	3,6	;RP1=0, select bank0
  3208     05EE  0828               	movf	?___lldiv+2,w
  3209     05EF  1683               	bsf	3,5	;RP0=1, select bank1
  3210     05F0  1303               	bcf	3,6	;RP1=0, select bank1
  3211     05F1  00D8               	movwf	(sprintf@tmpval+2)^(0+128)
  3212     05F2  1283               	bcf	3,5	;RP0=0, select bank0
  3213     05F3  1303               	bcf	3,6	;RP1=0, select bank0
  3214     05F4  0827               	movf	?___lldiv+1,w
  3215     05F5  1683               	bsf	3,5	;RP0=1, select bank1
  3216     05F6  1303               	bcf	3,6	;RP1=0, select bank1
  3217     05F7  00D7               	movwf	(sprintf@tmpval+1)^(0+128)
  3218     05F8  1283               	bcf	3,5	;RP0=0, select bank0
  3219     05F9  1303               	bcf	3,6	;RP1=0, select bank0
  3220     05FA  0826               	movf	?___lldiv,w
  3221     05FB  1683               	bsf	3,5	;RP0=1, select bank1
  3222     05FC  1303               	bcf	3,6	;RP1=0, select bank1
  3223     05FD  00D6               	movwf	sprintf@tmpval^(0+128)
  3224     05FE                     l4190:
  3225                           
  3226                           ;C:\Program Files\Microchip\xc8\v2.40\pic\sources\c90\common\doprnt.c: 1256:     tmpval.
      +                          vd %= 10;
  3227     05FE  3000               	movlw	0
  3228     05FF  1283               	bcf	3,5	;RP0=0, select bank0
  3229     0600  1303               	bcf	3,6	;RP1=0, select bank0
  3230     0601  00A9               	movwf	___llmod@divisor+3
  3231     0602  3000               	movlw	0
  3232     0603  00A8               	movwf	___llmod@divisor+2
  3233     0604  3000               	movlw	0
  3234     0605  00A7               	movwf	___llmod@divisor+1
  3235     0606  300A               	movlw	10
  3236     0607  00A6               	movwf	___llmod@divisor
  3237     0608  1683               	bsf	3,5	;RP0=1, select bank1
  3238     0609  1303               	bcf	3,6	;RP1=0, select bank1
  3239     060A  0859               	movf	(sprintf@tmpval+3)^(0+128),w
  3240     060B  1283               	bcf	3,5	;RP0=0, select bank0
  3241     060C  1303               	bcf	3,6	;RP1=0, select bank0
  3242     060D  00AD               	movwf	___llmod@dividend+3
  3243     060E  1683               	bsf	3,5	;RP0=1, select bank1
  3244     060F  1303               	bcf	3,6	;RP1=0, select bank1
  3245     0610  0858               	movf	(sprintf@tmpval+2)^(0+128),w
  3246     0611  1283               	bcf	3,5	;RP0=0, select bank0
  3247     0612  1303               	bcf	3,6	;RP1=0, select bank0
  3248     0613  00AC               	movwf	___llmod@dividend+2
  3249     0614  1683               	bsf	3,5	;RP0=1, select bank1
  3250     0615  1303               	bcf	3,6	;RP1=0, select bank1
  3251     0616  0857               	movf	(sprintf@tmpval+1)^(0+128),w
  3252     0617  1283               	bcf	3,5	;RP0=0, select bank0
  3253     0618  1303               	bcf	3,6	;RP1=0, select bank0
  3254     0619  00AB               	movwf	___llmod@dividend+1
  3255     061A  1683               	bsf	3,5	;RP0=1, select bank1
  3256     061B  1303               	bcf	3,6	;RP1=0, select bank1
  3257     061C  0856               	movf	sprintf@tmpval^(0+128),w
  3258     061D  1283               	bcf	3,5	;RP0=0, select bank0
  3259     061E  1303               	bcf	3,6	;RP1=0, select bank0
  3260     061F  00AA               	movwf	___llmod@dividend
  3261     0620  160A  158A  239F  120A  118A  	fcall	___llmod
  3262     0625  1283               	bcf	3,5	;RP0=0, select bank0
  3263     0626  1303               	bcf	3,6	;RP1=0, select bank0
  3264     0627  0829               	movf	?___llmod+3,w
  3265     0628  1683               	bsf	3,5	;RP0=1, select bank1
  3266     0629  1303               	bcf	3,6	;RP1=0, select bank1
  3267     062A  00D9               	movwf	(sprintf@tmpval+3)^(0+128)
  3268     062B  1283               	bcf	3,5	;RP0=0, select bank0
  3269     062C  1303               	bcf	3,6	;RP1=0, select bank0
  3270     062D  0828               	movf	?___llmod+2,w
  3271     062E  1683               	bsf	3,5	;RP0=1, select bank1
  3272     062F  1303               	bcf	3,6	;RP1=0, select bank1
  3273     0630  00D8               	movwf	(sprintf@tmpval+2)^(0+128)
  3274     0631  1283               	bcf	3,5	;RP0=0, select bank0
  3275     0632  1303               	bcf	3,6	;RP1=0, select bank0
  3276     0633  0827               	movf	?___llmod+1,w
  3277     0634  1683               	bsf	3,5	;RP0=1, select bank1
  3278     0635  1303               	bcf	3,6	;RP1=0, select bank1
  3279     0636  00D7               	movwf	(sprintf@tmpval+1)^(0+128)
  3280     0637  1283               	bcf	3,5	;RP0=0, select bank0
  3281     0638  1303               	bcf	3,6	;RP1=0, select bank0
  3282     0639  0826               	movf	?___llmod,w
  3283     063A  1683               	bsf	3,5	;RP0=1, select bank1
  3284     063B  1303               	bcf	3,6	;RP1=0, select bank1
  3285     063C  00D6               	movwf	sprintf@tmpval^(0+128)
  3286     063D                     l4192:
  3287                           
  3288                           ;C:\Program Files\Microchip\xc8\v2.40\pic\sources\c90\common\doprnt.c: 1257:     ((*sp++
      +                           = ('0' + tmpval.vd)));
  3289     063D  0855               	movf	sprintf@sp^(0+128),w
  3290     063E  0084               	movwf	4
  3291     063F  0856               	movf	sprintf@tmpval^(0+128),w
  3292     0640  3E30               	addlw	48
  3293     0641  1783               	bsf	3,7	;select IRP bank2
  3294     0642  0080               	movwf	0
  3295     0643  3001               	movlw	1
  3296     0644  00C1               	movwf	??_sprintf^(0+128)
  3297     0645  0841               	movf	??_sprintf^(0+128),w
  3298     0646  07D5               	addwf	sprintf@sp^(0+128),f
  3299     0647                     l4194:
  3300                           
  3301                           ;C:\Program Files\Microchip\xc8\v2.40\pic\sources\c90\common\doprnt.c: 1258:     val %= 
      +                          dpowers[c];
  3302     0647  085E               	movf	sprintf@c^(0+128),w
  3303     0648  00C1               	movwf	??_sprintf^(0+128)
  3304     0649  3001               	movlw	1
  3305     064A                     u7055:
  3306     064A  1003               	clrc
  3307     064B  0DC1               	rlf	??_sprintf^(0+128),f
  3308     064C  3EFF               	addlw	-1
  3309     064D  1D03               	skipz
  3310     064E  2E4A               	goto	u7055
  3311     064F  1003               	clrc
  3312     0650  0D41               	rlf	??_sprintf^(0+128),w
  3313     0651  3E79               	addlw	low ((_dpowers-__stringbase)| (0+32768))
  3314     0652  0084               	movwf	4
  3315     0653  160A  158A  2000  120A  118A  	fcall	stringdir
  3316     0658  1283               	bcf	3,5	;RP0=0, select bank0
  3317     0659  1303               	bcf	3,6	;RP1=0, select bank0
  3318     065A  00A6               	movwf	___llmod@divisor
  3319     065B  160A  158A  2000  120A  118A  	fcall	stringdir
  3320     0660  00A7               	movwf	___llmod@divisor+1
  3321     0661  160A  158A  2000  120A  118A  	fcall	stringdir
  3322     0666  00A8               	movwf	___llmod@divisor+2
  3323     0667  160A  158A  2000  120A  118A  	fcall	stringdir
  3324     066C  00A9               	movwf	___llmod@divisor+3
  3325     066D  1683               	bsf	3,5	;RP0=1, select bank1
  3326     066E  1303               	bcf	3,6	;RP1=0, select bank1
  3327     066F  0852               	movf	(sprintf@val+3)^(0+128),w
  3328     0670  1283               	bcf	3,5	;RP0=0, select bank0
  3329     0671  1303               	bcf	3,6	;RP1=0, select bank0
  3330     0672  00AD               	movwf	___llmod@dividend+3
  3331     0673  1683               	bsf	3,5	;RP0=1, select bank1
  3332     0674  1303               	bcf	3,6	;RP1=0, select bank1
  3333     0675  0851               	movf	(sprintf@val+2)^(0+128),w
  3334     0676  1283               	bcf	3,5	;RP0=0, select bank0
  3335     0677  1303               	bcf	3,6	;RP1=0, select bank0
  3336     0678  00AC               	movwf	___llmod@dividend+2
  3337     0679  1683               	bsf	3,5	;RP0=1, select bank1
  3338     067A  1303               	bcf	3,6	;RP1=0, select bank1
  3339     067B  0850               	movf	(sprintf@val+1)^(0+128),w
  3340     067C  1283               	bcf	3,5	;RP0=0, select bank0
  3341     067D  1303               	bcf	3,6	;RP1=0, select bank0
  3342     067E  00AB               	movwf	___llmod@dividend+1
  3343     067F  1683               	bsf	3,5	;RP0=1, select bank1
  3344     0680  1303               	bcf	3,6	;RP1=0, select bank1
  3345     0681  084F               	movf	sprintf@val^(0+128),w
  3346     0682  1283               	bcf	3,5	;RP0=0, select bank0
  3347     0683  1303               	bcf	3,6	;RP1=0, select bank0
  3348     0684  00AA               	movwf	___llmod@dividend
  3349     0685  160A  158A  239F  120A  118A  	fcall	___llmod
  3350     068A  1283               	bcf	3,5	;RP0=0, select bank0
  3351     068B  1303               	bcf	3,6	;RP1=0, select bank0
  3352     068C  0829               	movf	?___llmod+3,w
  3353     068D  1683               	bsf	3,5	;RP0=1, select bank1
  3354     068E  1303               	bcf	3,6	;RP1=0, select bank1
  3355     068F  00D2               	movwf	(sprintf@val+3)^(0+128)
  3356     0690  1283               	bcf	3,5	;RP0=0, select bank0
  3357     0691  1303               	bcf	3,6	;RP1=0, select bank0
  3358     0692  0828               	movf	?___llmod+2,w
  3359     0693  1683               	bsf	3,5	;RP0=1, select bank1
  3360     0694  1303               	bcf	3,6	;RP1=0, select bank1
  3361     0695  00D1               	movwf	(sprintf@val+2)^(0+128)
  3362     0696  1283               	bcf	3,5	;RP0=0, select bank0
  3363     0697  1303               	bcf	3,6	;RP1=0, select bank0
  3364     0698  0827               	movf	?___llmod+1,w
  3365     0699  1683               	bsf	3,5	;RP0=1, select bank1
  3366     069A  1303               	bcf	3,6	;RP1=0, select bank1
  3367     069B  00D0               	movwf	(sprintf@val+1)^(0+128)
  3368     069C  1283               	bcf	3,5	;RP0=0, select bank0
  3369     069D  1303               	bcf	3,6	;RP1=0, select bank0
  3370     069E  0826               	movf	?___llmod,w
  3371     069F  1683               	bsf	3,5	;RP0=1, select bank1
  3372     06A0  1303               	bcf	3,6	;RP1=0, select bank1
  3373     06A1  00CF               	movwf	sprintf@val^(0+128)
  3374     06A2                     l4196:
  3375                           
  3376                           ;C:\Program Files\Microchip\xc8\v2.40\pic\sources\c90\common\doprnt.c: 1254:    while(c-
      +                          -) {
  3377     06A2  3001               	movlw	1
  3378     06A3  02DE               	subwf	sprintf@c^(0+128),f
  3379     06A4  0A5E               	incf	sprintf@c^(0+128),w
  3380     06A5  1D03               	btfss	3,2
  3381     06A6  2EA8               	goto	u7061
  3382     06A7  2EA9               	goto	u7060
  3383     06A8                     u7061:
  3384     06A8  2DA3               	goto	l4188
  3385     06A9                     u7060:
  3386     06A9  2EB9               	goto	l4204
  3387     06AA                     l4198:
  3388                           
  3389                           ;C:\Program Files\Microchip\xc8\v2.40\pic\sources\c90\common\doprnt.c: 1262:     ((*sp++
      +                           = ('0')));
  3390     06AA  0855               	movf	sprintf@sp^(0+128),w
  3391     06AB  0084               	movwf	4
  3392     06AC  3030               	movlw	48
  3393     06AD  1783               	bsf	3,7	;select IRP bank2
  3394     06AE  0080               	movwf	0
  3395     06AF                     l4200:
  3396     06AF  3001               	movlw	1
  3397     06B0  00C1               	movwf	??_sprintf^(0+128)
  3398     06B1  0841               	movf	??_sprintf^(0+128),w
  3399     06B2  07D5               	addwf	sprintf@sp^(0+128),f
  3400     06B3                     l4202:
  3401                           
  3402                           ;C:\Program Files\Microchip\xc8\v2.40\pic\sources\c90\common\doprnt.c: 1263:     prec--;
  3403     06B3  30FF               	movlw	255
  3404     06B4  07CD               	addwf	sprintf@prec^(0+128),f
  3405     06B5  1803               	skipnc
  3406     06B6  0ACE               	incf	(sprintf@prec+1)^(0+128),f
  3407     06B7  30FF               	movlw	255
  3408     06B8  07CE               	addwf	(sprintf@prec+1)^(0+128),f
  3409     06B9                     l4204:
  3410                           
  3411                           ;C:\Program Files\Microchip\xc8\v2.40\pic\sources\c90\common\doprnt.c: 1261:    while(pr
      +                          ec) {
  3412     06B9  084D               	movf	sprintf@prec^(0+128),w
  3413     06BA  044E               	iorwf	(sprintf@prec+1)^(0+128),w
  3414     06BB  1D03               	btfss	3,2
  3415     06BC  2EBE               	goto	u7071
  3416     06BD  2EBF               	goto	u7070
  3417     06BE                     u7071:
  3418     06BE  2EAA               	goto	l4198
  3419     06BF                     u7070:
  3420     06BF  2ED2               	goto	l4212
  3421     06C0                     l4206:
  3422                           
  3423                           ;C:\Program Files\Microchip\xc8\v2.40\pic\sources\c90\common\doprnt.c: 1448:   {;C:\Prog
      +                          ram Files\Microchip\xc8\v2.40\pic\sources\c90\common\doprnt.c: 1464:    if(flag & 0x03)
  3424     06C0  3003               	movlw	3
  3425     06C1  054B               	andwf	sprintf@flag^(0+128),w
  3426     06C2  00C1               	movwf	??_sprintf^(0+128)
  3427     06C3  3000               	movlw	0
  3428     06C4  054C               	andwf	(sprintf@flag+1)^(0+128),w
  3429     06C5  00C2               	movwf	(??_sprintf+1)^(0+128)
  3430     06C6  0841               	movf	??_sprintf^(0+128),w
  3431     06C7  0442               	iorwf	(??_sprintf^(0+128)+1),w
  3432     06C8  1903               	btfsc	3,2
  3433     06C9  2ECB               	goto	u7081
  3434     06CA  2ECC               	goto	u7080
  3435     06CB                     u7081:
  3436     06CB  2ED2               	goto	l4212
  3437     06CC                     u7080:
  3438     06CC                     l4208:
  3439                           
  3440                           ;C:\Program Files\Microchip\xc8\v2.40\pic\sources\c90\common\doprnt.c: 1465:     ((*sp++
      +                           = ('-')));
  3441     06CC  0855               	movf	sprintf@sp^(0+128),w
  3442     06CD  0084               	movwf	4
  3443     06CE  302D               	movlw	45
  3444     06CF  1783               	bsf	3,7	;select IRP bank2
  3445     06D0  0080               	movwf	0
  3446     06D1  2838               	goto	l4058
  3447     06D2                     l4212:
  3448                           
  3449                           ;C:\Program Files\Microchip\xc8\v2.40\pic\sources\c90\common\doprnt.c: 553:  while((c = 
      +                          *f++)) {
  3450     06D2  3001               	movlw	1
  3451     06D3  07BC               	addwf	sprintf@f^(0+128),f
  3452     06D4  30FF               	movlw	-1
  3453     06D5  073C               	addwf	sprintf@f^(0+128),w
  3454     06D6  0084               	movwf	4
  3455     06D7  160A  158A  2000  120A  118A  	fcall	stringdir
  3456     06DC  00DE               	movwf	sprintf@c^(0+128)
  3457     06DD  085E               	movf	sprintf@c^(0+128),w
  3458     06DE  1D03               	btfss	3,2
  3459     06DF  2EE1               	goto	u7091
  3460     06E0  2EE2               	goto	u7090
  3461     06E1                     u7091:
  3462     06E1  282D               	goto	l4054
  3463     06E2                     u7090:
  3464     06E2                     l4214:
  3465                           
  3466                           ;C:\Program Files\Microchip\xc8\v2.40\pic\sources\c90\common\doprnt.c: 1564:  *sp = 0;
  3467     06E2  0855               	movf	sprintf@sp^(0+128),w
  3468     06E3  0084               	movwf	4
  3469     06E4  1783               	bsf	3,7	;select IRP bank2
  3470     06E5  0180               	clrf	0
  3471     06E6                     l344:
  3472     06E6  0008               	return
  3473     06E7                     __end_of_sprintf:
  3474                           
  3475                           	psect	text2
  3476     0C9D                     __ptext2:	
  3477 ;; *************** function _scale *****************
  3478 ;; Defined at:
  3479 ;;		line 433 in file "C:\Program Files\Microchip\xc8\v2.40\pic\sources\c90\common\doprnt.c"
  3480 ;; Parameters:    Size  Location     Type
  3481 ;;  scl             1    wreg     char 
  3482 ;; Auto vars:     Size  Location     Type
  3483 ;;  scl             1   66[BANK0 ] char 
  3484 ;; Return value:  Size  Location     Type
  3485 ;;                  4   48[BANK0 ] char 
  3486 ;; Registers used:
  3487 ;;		wreg, fsr0l, fsr0h, status,2, status,0, btemp+1, pclath, cstack
  3488 ;; Tracked objects:
  3489 ;;		On entry : 0/0
  3490 ;;		On exit  : 0/0
  3491 ;;		Unchanged: 0/0
  3492 ;; Data sizes:     COMMON   BANK0   BANK1   BANK3   BANK2
  3493 ;;      Params:         0       4       0       0       0
  3494 ;;      Locals:         0       5       0       0       0
  3495 ;;      Temps:          0      10       0       0       0
  3496 ;;      Totals:         0      19       0       0       0
  3497 ;;Total ram usage:       19 bytes
  3498 ;; Hardware stack levels used: 1
  3499 ;; Hardware stack levels required when called: 4
  3500 ;; This function calls:
  3501 ;;		___awdiv
  3502 ;;		___awmod
  3503 ;;		___flmul
  3504 ;; This function is called by:
  3505 ;;		_sprintf
  3506 ;; This function uses a non-reentrant model
  3507 ;;
  3508                           
  3509     0C9D                     _scale:	
  3510                           ;psect for function _scale
  3511                           
  3512                           
  3513                           ;incstack = 0
  3514                           ; Regs used in _scale: [wreg-fsr0h+status,2+status,0+btemp+1+pclath+cstack]
  3515                           ;scale@scl stored from wreg
  3516     0C9D  1283               	bcf	3,5	;RP0=0, select bank0
  3517     0C9E  1303               	bcf	3,6	;RP1=0, select bank0
  3518     0C9F  00E2               	movwf	scale@scl
  3519     0CA0                     l2926:
  3520                           
  3521                           ;C:\Program Files\Microchip\xc8\v2.40\pic\sources\c90\common\doprnt.c: 433: scale(signed
      +                           char scl);C:\Program Files\Microchip\xc8\v2.40\pic\sources\c90\common\doprnt.c: 434: {;
      +                          C:\Program Files\Microchip\xc8\v2.40\pic\sources\c90\common\doprnt.c: 436:  if(scl < 0) 
      +                          {
  3522     0CA0  1FE2               	btfss	scale@scl,7
  3523     0CA1  2CA3               	goto	u4451
  3524     0CA2  2CA4               	goto	u4450
  3525     0CA3                     u4451:
  3526     0CA3  2E53               	goto	l2948
  3527     0CA4                     u4450:
  3528     0CA4                     l2928:
  3529                           
  3530                           ;C:\Program Files\Microchip\xc8\v2.40\pic\sources\c90\common\doprnt.c: 437:   scl = -scl
      +                          ;
  3531     0CA4  09E2               	comf	scale@scl,f
  3532     0CA5  0AE2               	incf	scale@scl,f
  3533     0CA6                     l2930:
  3534                           
  3535                           ;C:\Program Files\Microchip\xc8\v2.40\pic\sources\c90\common\doprnt.c: 438:   if(scl>=11
      +                          0)
  3536     0CA6  0862               	movf	scale@scl,w
  3537     0CA7  3A80               	xorlw	128
  3538     0CA8  3E12               	addlw	-238
  3539     0CA9  1C03               	skipc
  3540     0CAA  2CAC               	goto	u4461
  3541     0CAB  2CAD               	goto	u4460
  3542     0CAC                     u4461:
  3543     0CAC  2D97               	goto	l2938
  3544     0CAD                     u4460:
  3545     0CAD                     l2932:
  3546                           
  3547                           ;C:\Program Files\Microchip\xc8\v2.40\pic\sources\c90\common\doprnt.c: 439:    return _n
      +                          powers_[(unsigned char)(scl/100+18)] * _npowers_[(unsigned char)((scl%100)/10+9)] * _npo
      +                          wers_[(unsigned char)(scl%10)];
  3548     0CAD  300A               	movlw	10
  3549     0CAE  00AD               	movwf	___awdiv@divisor
  3550     0CAF  3000               	movlw	0
  3551     0CB0  00AE               	movwf	___awdiv@divisor+1
  3552     0CB1  0862               	movf	scale@scl,w
  3553     0CB2  00A8               	movwf	___awmod@dividend
  3554     0CB3  01A9               	clrf	___awmod@dividend+1
  3555     0CB4  1BA8               	btfsc	___awmod@dividend,7
  3556     0CB5  03A9               	decf	___awmod@dividend+1,f
  3557     0CB6  3064               	movlw	100
  3558     0CB7  00A6               	movwf	___awmod@divisor
  3559     0CB8  3000               	movlw	0
  3560     0CB9  00A7               	movwf	___awmod@divisor+1
  3561     0CBA  160A  158A  23F5  120A  158A  	fcall	___awmod
  3562     0CBF  1283               	bcf	3,5	;RP0=0, select bank0
  3563     0CC0  1303               	bcf	3,6	;RP1=0, select bank0
  3564     0CC1  0827               	movf	?___awmod+1,w
  3565     0CC2  00B0               	movwf	___awdiv@dividend+1
  3566     0CC3  0826               	movf	?___awmod,w
  3567     0CC4  00AF               	movwf	___awdiv@dividend
  3568     0CC5  160A  158A  2584  120A  158A  	fcall	___awdiv
  3569     0CCA  1283               	bcf	3,5	;RP0=0, select bank0
  3570     0CCB  1303               	bcf	3,6	;RP1=0, select bank0
  3571     0CCC  082D               	movf	?___awdiv,w
  3572     0CCD  00D4               	movwf	??_scale
  3573     0CCE  3001               	movlw	1
  3574     0CCF                     u4475:
  3575     0CCF  1003               	clrc
  3576     0CD0  0DD4               	rlf	??_scale,f
  3577     0CD1  3EFF               	addlw	-1
  3578     0CD2  1D03               	skipz
  3579     0CD3  2CCF               	goto	u4475
  3580     0CD4  1003               	clrc
  3581     0CD5  0D54               	rlf	??_scale,w
  3582     0CD6  3E59               	addlw	low (((__npowers_-__stringbase)| (0+32768)+36))
  3583     0CD7  0084               	movwf	4
  3584     0CD8  160A  158A  2000  120A  158A  	fcall	stringdir
  3585     0CDD  00D5               	movwf	??_scale+1
  3586     0CDE  160A  158A  2000  120A  158A  	fcall	stringdir
  3587     0CE3  00D6               	movwf	??_scale+2
  3588     0CE4  160A  158A  2000  120A  158A  	fcall	stringdir
  3589     0CE9  00D7               	movwf	??_scale+3
  3590     0CEA  160A  158A  2000  120A  158A  	fcall	stringdir
  3591     0CEF  00D8               	movwf	??_scale+4
  3592     0CF0  0858               	movf	??_scale+4,w
  3593     0CF1  00B9               	movwf	___flmul@b+3
  3594     0CF2  0857               	movf	??_scale+3,w
  3595     0CF3  00B8               	movwf	___flmul@b+2
  3596     0CF4  0856               	movf	??_scale+2,w
  3597     0CF5  00B7               	movwf	___flmul@b+1
  3598     0CF6  0855               	movf	??_scale+1,w
  3599     0CF7  00B6               	movwf	___flmul@b
  3600     0CF8  3064               	movlw	100
  3601     0CF9  00AD               	movwf	___awdiv@divisor
  3602     0CFA  3000               	movlw	0
  3603     0CFB  00AE               	movwf	___awdiv@divisor+1
  3604     0CFC  0862               	movf	scale@scl,w
  3605     0CFD  00AF               	movwf	___awdiv@dividend
  3606     0CFE  01B0               	clrf	___awdiv@dividend+1
  3607     0CFF  1BAF               	btfsc	___awdiv@dividend,7
  3608     0D00  03B0               	decf	___awdiv@dividend+1,f
  3609     0D01  160A  158A  2584  120A  158A  	fcall	___awdiv
  3610     0D06  1283               	bcf	3,5	;RP0=0, select bank0
  3611     0D07  1303               	bcf	3,6	;RP1=0, select bank0
  3612     0D08  082D               	movf	?___awdiv,w
  3613     0D09  00D9               	movwf	??_scale+5
  3614     0D0A  3001               	movlw	1
  3615     0D0B                     u4485:
  3616     0D0B  1003               	clrc
  3617     0D0C  0DD9               	rlf	??_scale+5,f
  3618     0D0D  3EFF               	addlw	-1
  3619     0D0E  1D03               	skipz
  3620     0D0F  2D0B               	goto	u4485
  3621     0D10  1003               	clrc
  3622     0D11  0D59               	rlf	??_scale+5,w
  3623     0D12  3E7D               	addlw	low (((__npowers_-__stringbase)| (0+32768)+72))
  3624     0D13  0084               	movwf	4
  3625     0D14  160A  158A  2000  120A  158A  	fcall	stringdir
  3626     0D19  00DA               	movwf	??_scale+6
  3627     0D1A  160A  158A  2000  120A  158A  	fcall	stringdir
  3628     0D1F  00DB               	movwf	??_scale+7
  3629     0D20  160A  158A  2000  120A  158A  	fcall	stringdir
  3630     0D25  00DC               	movwf	??_scale+8
  3631     0D26  160A  158A  2000  120A  158A  	fcall	stringdir
  3632     0D2B  00DD               	movwf	??_scale+9
  3633     0D2C  085D               	movf	??_scale+9,w
  3634     0D2D  00BD               	movwf	___flmul@a+3
  3635     0D2E  085C               	movf	??_scale+8,w
  3636     0D2F  00BC               	movwf	___flmul@a+2
  3637     0D30  085B               	movf	??_scale+7,w
  3638     0D31  00BB               	movwf	___flmul@a+1
  3639     0D32  085A               	movf	??_scale+6,w
  3640     0D33  00BA               	movwf	___flmul@a
  3641     0D34  120A  158A  2158  120A  158A  	fcall	___flmul
  3642     0D39  1283               	bcf	3,5	;RP0=0, select bank0
  3643     0D3A  1303               	bcf	3,6	;RP1=0, select bank0
  3644     0D3B  0839               	movf	?___flmul+3,w
  3645     0D3C  00E1               	movwf	_scale$1078+3
  3646     0D3D  0838               	movf	?___flmul+2,w
  3647     0D3E  00E0               	movwf	_scale$1078+2
  3648     0D3F  0837               	movf	?___flmul+1,w
  3649     0D40  00DF               	movwf	_scale$1078+1
  3650     0D41  0836               	movf	?___flmul,w
  3651     0D42  00DE               	movwf	_scale$1078
  3652                           
  3653                           ;C:\Program Files\Microchip\xc8\v2.40\pic\sources\c90\common\doprnt.c: 439:    return _n
      +                          powers_[(unsigned char)(scl/100+18)] * _npowers_[(unsigned char)((scl%100)/10+9)] * _npo
      +                          wers_[(unsigned char)(scl%10)];
  3654     0D43  300A               	movlw	10
  3655     0D44  00A6               	movwf	___awmod@divisor
  3656     0D45  3000               	movlw	0
  3657     0D46  00A7               	movwf	___awmod@divisor+1
  3658     0D47  0862               	movf	scale@scl,w
  3659     0D48  00A8               	movwf	___awmod@dividend
  3660     0D49  01A9               	clrf	___awmod@dividend+1
  3661     0D4A  1BA8               	btfsc	___awmod@dividend,7
  3662     0D4B  03A9               	decf	___awmod@dividend+1,f
  3663     0D4C  160A  158A  23F5  120A  158A  	fcall	___awmod
  3664     0D51  1283               	bcf	3,5	;RP0=0, select bank0
  3665     0D52  1303               	bcf	3,6	;RP1=0, select bank0
  3666     0D53  0826               	movf	?___awmod,w
  3667     0D54  00D4               	movwf	??_scale
  3668     0D55  3001               	movlw	1
  3669     0D56                     u4495:
  3670     0D56  1003               	clrc
  3671     0D57  0DD4               	rlf	??_scale,f
  3672     0D58  3EFF               	addlw	-1
  3673     0D59  1D03               	skipz
  3674     0D5A  2D56               	goto	u4495
  3675     0D5B  1003               	clrc
  3676     0D5C  0D54               	rlf	??_scale,w
  3677     0D5D  3E35               	addlw	low ((__npowers_-__stringbase)| (0+32768))
  3678     0D5E  0084               	movwf	4
  3679     0D5F  160A  158A  2000  120A  158A  	fcall	stringdir
  3680     0D64  00D5               	movwf	??_scale+1
  3681     0D65  160A  158A  2000  120A  158A  	fcall	stringdir
  3682     0D6A  00D6               	movwf	??_scale+2
  3683     0D6B  160A  158A  2000  120A  158A  	fcall	stringdir
  3684     0D70  00D7               	movwf	??_scale+3
  3685     0D71  160A  158A  2000  120A  158A  	fcall	stringdir
  3686     0D76  00D8               	movwf	??_scale+4
  3687     0D77  0858               	movf	??_scale+4,w
  3688     0D78  00B9               	movwf	___flmul@b+3
  3689     0D79  0857               	movf	??_scale+3,w
  3690     0D7A  00B8               	movwf	___flmul@b+2
  3691     0D7B  0856               	movf	??_scale+2,w
  3692     0D7C  00B7               	movwf	___flmul@b+1
  3693     0D7D  0855               	movf	??_scale+1,w
  3694     0D7E  00B6               	movwf	___flmul@b
  3695     0D7F  0861               	movf	_scale$1078+3,w
  3696     0D80  00BD               	movwf	___flmul@a+3
  3697     0D81  0860               	movf	_scale$1078+2,w
  3698     0D82  00BC               	movwf	___flmul@a+2
  3699     0D83  085F               	movf	_scale$1078+1,w
  3700     0D84  00BB               	movwf	___flmul@a+1
  3701     0D85  085E               	movf	_scale$1078,w
  3702     0D86  00BA               	movwf	___flmul@a
  3703     0D87  120A  158A  2158  120A  158A  	fcall	___flmul
  3704     0D8C  1283               	bcf	3,5	;RP0=0, select bank0
  3705     0D8D  1303               	bcf	3,6	;RP1=0, select bank0
  3706     0D8E  0839               	movf	?___flmul+3,w
  3707     0D8F  00D3               	movwf	?_scale+3
  3708     0D90  0838               	movf	?___flmul+2,w
  3709     0D91  00D2               	movwf	?_scale+2
  3710     0D92  0837               	movf	?___flmul+1,w
  3711     0D93  00D1               	movwf	?_scale+1
  3712     0D94  0836               	movf	?___flmul,w
  3713     0D95  00D0               	movwf	?_scale
  3714     0D96  2FFF               	goto	l288
  3715     0D97                     l2938:
  3716     0D97  0862               	movf	scale@scl,w
  3717     0D98  3A80               	xorlw	128
  3718     0D99  3E75               	addlw	-139
  3719     0D9A  1C03               	skipc
  3720     0D9B  2D9D               	goto	u4501
  3721     0D9C  2D9E               	goto	u4500
  3722     0D9D                     u4501:
  3723     0D9D  2E26               	goto	l2944
  3724     0D9E                     u4500:
  3725     0D9E                     l2940:
  3726                           
  3727                           ;C:\Program Files\Microchip\xc8\v2.40\pic\sources\c90\common\doprnt.c: 441:    return _n
      +                          powers_[(unsigned char)(scl/10+9)] * _npowers_[(unsigned char)(scl%10)];
  3728     0D9E  300A               	movlw	10
  3729     0D9F  00A6               	movwf	___awmod@divisor
  3730     0DA0  3000               	movlw	0
  3731     0DA1  00A7               	movwf	___awmod@divisor+1
  3732     0DA2  0862               	movf	scale@scl,w
  3733     0DA3  00A8               	movwf	___awmod@dividend
  3734     0DA4  01A9               	clrf	___awmod@dividend+1
  3735     0DA5  1BA8               	btfsc	___awmod@dividend,7
  3736     0DA6  03A9               	decf	___awmod@dividend+1,f
  3737     0DA7  160A  158A  23F5  120A  158A  	fcall	___awmod
  3738     0DAC  1283               	bcf	3,5	;RP0=0, select bank0
  3739     0DAD  1303               	bcf	3,6	;RP1=0, select bank0
  3740     0DAE  0826               	movf	?___awmod,w
  3741     0DAF  00D4               	movwf	??_scale
  3742     0DB0  3001               	movlw	1
  3743     0DB1                     u4515:
  3744     0DB1  1003               	clrc
  3745     0DB2  0DD4               	rlf	??_scale,f
  3746     0DB3  3EFF               	addlw	-1
  3747     0DB4  1D03               	skipz
  3748     0DB5  2DB1               	goto	u4515
  3749     0DB6  1003               	clrc
  3750     0DB7  0D54               	rlf	??_scale,w
  3751     0DB8  3E35               	addlw	low ((__npowers_-__stringbase)| (0+32768))
  3752     0DB9  0084               	movwf	4
  3753     0DBA  160A  158A  2000  120A  158A  	fcall	stringdir
  3754     0DBF  00D5               	movwf	??_scale+1
  3755     0DC0  160A  158A  2000  120A  158A  	fcall	stringdir
  3756     0DC5  00D6               	movwf	??_scale+2
  3757     0DC6  160A  158A  2000  120A  158A  	fcall	stringdir
  3758     0DCB  00D7               	movwf	??_scale+3
  3759     0DCC  160A  158A  2000  120A  158A  	fcall	stringdir
  3760     0DD1  00D8               	movwf	??_scale+4
  3761     0DD2  0858               	movf	??_scale+4,w
  3762     0DD3  00B9               	movwf	___flmul@b+3
  3763     0DD4  0857               	movf	??_scale+3,w
  3764     0DD5  00B8               	movwf	___flmul@b+2
  3765     0DD6  0856               	movf	??_scale+2,w
  3766     0DD7  00B7               	movwf	___flmul@b+1
  3767     0DD8  0855               	movf	??_scale+1,w
  3768     0DD9  00B6               	movwf	___flmul@b
  3769     0DDA  300A               	movlw	10
  3770     0DDB  00AD               	movwf	___awdiv@divisor
  3771     0DDC  3000               	movlw	0
  3772     0DDD  00AE               	movwf	___awdiv@divisor+1
  3773     0DDE  0862               	movf	scale@scl,w
  3774     0DDF  00AF               	movwf	___awdiv@dividend
  3775     0DE0  01B0               	clrf	___awdiv@dividend+1
  3776     0DE1  1BAF               	btfsc	___awdiv@dividend,7
  3777     0DE2  03B0               	decf	___awdiv@dividend+1,f
  3778     0DE3  160A  158A  2584  120A  158A  	fcall	___awdiv
  3779     0DE8  1283               	bcf	3,5	;RP0=0, select bank0
  3780     0DE9  1303               	bcf	3,6	;RP1=0, select bank0
  3781     0DEA  082D               	movf	?___awdiv,w
  3782     0DEB  00D9               	movwf	??_scale+5
  3783     0DEC  3001               	movlw	1
  3784     0DED                     u4525:
  3785     0DED  1003               	clrc
  3786     0DEE  0DD9               	rlf	??_scale+5,f
  3787     0DEF  3EFF               	addlw	-1
  3788     0DF0  1D03               	skipz
  3789     0DF1  2DED               	goto	u4525
  3790     0DF2  1003               	clrc
  3791     0DF3  0D59               	rlf	??_scale+5,w
  3792     0DF4  3E59               	addlw	low (((__npowers_-__stringbase)| (0+32768)+36))
  3793     0DF5  0084               	movwf	4
  3794     0DF6  160A  158A  2000  120A  158A  	fcall	stringdir
  3795     0DFB  00DA               	movwf	??_scale+6
  3796     0DFC  160A  158A  2000  120A  158A  	fcall	stringdir
  3797     0E01  00DB               	movwf	??_scale+7
  3798     0E02  160A  158A  2000  120A  158A  	fcall	stringdir
  3799     0E07  00DC               	movwf	??_scale+8
  3800     0E08  160A  158A  2000  120A  158A  	fcall	stringdir
  3801     0E0D  00DD               	movwf	??_scale+9
  3802     0E0E  085D               	movf	??_scale+9,w
  3803     0E0F  00BD               	movwf	___flmul@a+3
  3804     0E10  085C               	movf	??_scale+8,w
  3805     0E11  00BC               	movwf	___flmul@a+2
  3806     0E12  085B               	movf	??_scale+7,w
  3807     0E13  00BB               	movwf	___flmul@a+1
  3808     0E14  085A               	movf	??_scale+6,w
  3809     0E15  00BA               	movwf	___flmul@a
  3810     0E16  120A  158A  2158  120A  158A  	fcall	___flmul
  3811     0E1B  1283               	bcf	3,5	;RP0=0, select bank0
  3812     0E1C  1303               	bcf	3,6	;RP1=0, select bank0
  3813     0E1D  0839               	movf	?___flmul+3,w
  3814     0E1E  00D3               	movwf	?_scale+3
  3815     0E1F  0838               	movf	?___flmul+2,w
  3816     0E20  00D2               	movwf	?_scale+2
  3817     0E21  0837               	movf	?___flmul+1,w
  3818     0E22  00D1               	movwf	?_scale+1
  3819     0E23  0836               	movf	?___flmul,w
  3820     0E24  00D0               	movwf	?_scale
  3821     0E25  2FFF               	goto	l288
  3822     0E26                     l2944:
  3823                           
  3824                           ;C:\Program Files\Microchip\xc8\v2.40\pic\sources\c90\common\doprnt.c: 442:   return _np
      +                          owers_[(unsigned char)scl];
  3825     0E26  0862               	movf	scale@scl,w
  3826     0E27  00D4               	movwf	??_scale
  3827     0E28  3001               	movlw	1
  3828     0E29                     u4535:
  3829     0E29  1003               	clrc
  3830     0E2A  0DD4               	rlf	??_scale,f
  3831     0E2B  3EFF               	addlw	-1
  3832     0E2C  1D03               	skipz
  3833     0E2D  2E29               	goto	u4535
  3834     0E2E  1003               	clrc
  3835     0E2F  0D54               	rlf	??_scale,w
  3836     0E30  3E35               	addlw	low ((__npowers_-__stringbase)| (0+32768))
  3837     0E31  0084               	movwf	4
  3838     0E32  160A  158A  2000  120A  158A  	fcall	stringdir
  3839     0E37  00D5               	movwf	??_scale+1
  3840     0E38  160A  158A  2000  120A  158A  	fcall	stringdir
  3841     0E3D  00D6               	movwf	??_scale+2
  3842     0E3E  160A  158A  2000  120A  158A  	fcall	stringdir
  3843     0E43  00D7               	movwf	??_scale+3
  3844     0E44  160A  158A  2000  120A  158A  	fcall	stringdir
  3845     0E49  00D8               	movwf	??_scale+4
  3846     0E4A  0858               	movf	??_scale+4,w
  3847     0E4B  00D3               	movwf	?_scale+3
  3848     0E4C  0857               	movf	??_scale+3,w
  3849     0E4D  00D2               	movwf	?_scale+2
  3850     0E4E  0856               	movf	??_scale+2,w
  3851     0E4F  00D1               	movwf	?_scale+1
  3852     0E50  0855               	movf	??_scale+1,w
  3853     0E51  00D0               	movwf	?_scale
  3854     0E52  2FFF               	goto	l288
  3855     0E53                     l2948:
  3856                           
  3857                           ;C:\Program Files\Microchip\xc8\v2.40\pic\sources\c90\common\doprnt.c: 444:  if(scl>=110
      +                          )
  3858     0E53  0862               	movf	scale@scl,w
  3859     0E54  3A80               	xorlw	128
  3860     0E55  3E12               	addlw	-238
  3861     0E56  1C03               	skipc
  3862     0E57  2E59               	goto	u4541
  3863     0E58  2E5A               	goto	u4540
  3864     0E59                     u4541:
  3865     0E59  2F44               	goto	l2956
  3866     0E5A                     u4540:
  3867     0E5A                     l2950:
  3868                           
  3869                           ;C:\Program Files\Microchip\xc8\v2.40\pic\sources\c90\common\doprnt.c: 445:   return _po
      +                          wers_[(unsigned char)(scl/100+18)] * _powers_[(unsigned char)((scl%100)/10+9)] * _powers
      +                          _[(unsigned char)(scl%10)];
  3870     0E5A  300A               	movlw	10
  3871     0E5B  00AD               	movwf	___awdiv@divisor
  3872     0E5C  3000               	movlw	0
  3873     0E5D  00AE               	movwf	___awdiv@divisor+1
  3874     0E5E  0862               	movf	scale@scl,w
  3875     0E5F  00A8               	movwf	___awmod@dividend
  3876     0E60  01A9               	clrf	___awmod@dividend+1
  3877     0E61  1BA8               	btfsc	___awmod@dividend,7
  3878     0E62  03A9               	decf	___awmod@dividend+1,f
  3879     0E63  3064               	movlw	100
  3880     0E64  00A6               	movwf	___awmod@divisor
  3881     0E65  3000               	movlw	0
  3882     0E66  00A7               	movwf	___awmod@divisor+1
  3883     0E67  160A  158A  23F5  120A  158A  	fcall	___awmod
  3884     0E6C  1283               	bcf	3,5	;RP0=0, select bank0
  3885     0E6D  1303               	bcf	3,6	;RP1=0, select bank0
  3886     0E6E  0827               	movf	?___awmod+1,w
  3887     0E6F  00B0               	movwf	___awdiv@dividend+1
  3888     0E70  0826               	movf	?___awmod,w
  3889     0E71  00AF               	movwf	___awdiv@dividend
  3890     0E72  160A  158A  2584  120A  158A  	fcall	___awdiv
  3891     0E77  1283               	bcf	3,5	;RP0=0, select bank0
  3892     0E78  1303               	bcf	3,6	;RP1=0, select bank0
  3893     0E79  082D               	movf	?___awdiv,w
  3894     0E7A  00D4               	movwf	??_scale
  3895     0E7B  3001               	movlw	1
  3896     0E7C                     u4555:
  3897     0E7C  1003               	clrc
  3898     0E7D  0DD4               	rlf	??_scale,f
  3899     0E7E  3EFF               	addlw	-1
  3900     0E7F  1D03               	skipz
  3901     0E80  2E7C               	goto	u4555
  3902     0E81  1003               	clrc
  3903     0E82  0D54               	rlf	??_scale,w
  3904     0E83  3E25               	addlw	low (((__powers_-__stringbase)| (0+32768)+36))
  3905     0E84  0084               	movwf	4
  3906     0E85  160A  158A  2000  120A  158A  	fcall	stringdir
  3907     0E8A  00D5               	movwf	??_scale+1
  3908     0E8B  160A  158A  2000  120A  158A  	fcall	stringdir
  3909     0E90  00D6               	movwf	??_scale+2
  3910     0E91  160A  158A  2000  120A  158A  	fcall	stringdir
  3911     0E96  00D7               	movwf	??_scale+3
  3912     0E97  160A  158A  2000  120A  158A  	fcall	stringdir
  3913     0E9C  00D8               	movwf	??_scale+4
  3914     0E9D  0858               	movf	??_scale+4,w
  3915     0E9E  00B9               	movwf	___flmul@b+3
  3916     0E9F  0857               	movf	??_scale+3,w
  3917     0EA0  00B8               	movwf	___flmul@b+2
  3918     0EA1  0856               	movf	??_scale+2,w
  3919     0EA2  00B7               	movwf	___flmul@b+1
  3920     0EA3  0855               	movf	??_scale+1,w
  3921     0EA4  00B6               	movwf	___flmul@b
  3922     0EA5  3064               	movlw	100
  3923     0EA6  00AD               	movwf	___awdiv@divisor
  3924     0EA7  3000               	movlw	0
  3925     0EA8  00AE               	movwf	___awdiv@divisor+1
  3926     0EA9  0862               	movf	scale@scl,w
  3927     0EAA  00AF               	movwf	___awdiv@dividend
  3928     0EAB  01B0               	clrf	___awdiv@dividend+1
  3929     0EAC  1BAF               	btfsc	___awdiv@dividend,7
  3930     0EAD  03B0               	decf	___awdiv@dividend+1,f
  3931     0EAE  160A  158A  2584  120A  158A  	fcall	___awdiv
  3932     0EB3  1283               	bcf	3,5	;RP0=0, select bank0
  3933     0EB4  1303               	bcf	3,6	;RP1=0, select bank0
  3934     0EB5  082D               	movf	?___awdiv,w
  3935     0EB6  00D9               	movwf	??_scale+5
  3936     0EB7  3001               	movlw	1
  3937     0EB8                     u4565:
  3938     0EB8  1003               	clrc
  3939     0EB9  0DD9               	rlf	??_scale+5,f
  3940     0EBA  3EFF               	addlw	-1
  3941     0EBB  1D03               	skipz
  3942     0EBC  2EB8               	goto	u4565
  3943     0EBD  1003               	clrc
  3944     0EBE  0D59               	rlf	??_scale+5,w
  3945     0EBF  3E49               	addlw	low (((__powers_-__stringbase)| (0+32768)+72))
  3946     0EC0  0084               	movwf	4
  3947     0EC1  160A  158A  2000  120A  158A  	fcall	stringdir
  3948     0EC6  00DA               	movwf	??_scale+6
  3949     0EC7  160A  158A  2000  120A  158A  	fcall	stringdir
  3950     0ECC  00DB               	movwf	??_scale+7
  3951     0ECD  160A  158A  2000  120A  158A  	fcall	stringdir
  3952     0ED2  00DC               	movwf	??_scale+8
  3953     0ED3  160A  158A  2000  120A  158A  	fcall	stringdir
  3954     0ED8  00DD               	movwf	??_scale+9
  3955     0ED9  085D               	movf	??_scale+9,w
  3956     0EDA  00BD               	movwf	___flmul@a+3
  3957     0EDB  085C               	movf	??_scale+8,w
  3958     0EDC  00BC               	movwf	___flmul@a+2
  3959     0EDD  085B               	movf	??_scale+7,w
  3960     0EDE  00BB               	movwf	___flmul@a+1
  3961     0EDF  085A               	movf	??_scale+6,w
  3962     0EE0  00BA               	movwf	___flmul@a
  3963     0EE1  120A  158A  2158  120A  158A  	fcall	___flmul
  3964     0EE6  1283               	bcf	3,5	;RP0=0, select bank0
  3965     0EE7  1303               	bcf	3,6	;RP1=0, select bank0
  3966     0EE8  0839               	movf	?___flmul+3,w
  3967     0EE9  00E1               	movwf	_scale$1078+3
  3968     0EEA  0838               	movf	?___flmul+2,w
  3969     0EEB  00E0               	movwf	_scale$1078+2
  3970     0EEC  0837               	movf	?___flmul+1,w
  3971     0EED  00DF               	movwf	_scale$1078+1
  3972     0EEE  0836               	movf	?___flmul,w
  3973     0EEF  00DE               	movwf	_scale$1078
  3974                           
  3975                           ;C:\Program Files\Microchip\xc8\v2.40\pic\sources\c90\common\doprnt.c: 445:   return _po
      +                          wers_[(unsigned char)(scl/100+18)] * _powers_[(unsigned char)((scl%100)/10+9)] * _powers
      +                          _[(unsigned char)(scl%10)];
  3976     0EF0  300A               	movlw	10
  3977     0EF1  00A6               	movwf	___awmod@divisor
  3978     0EF2  3000               	movlw	0
  3979     0EF3  00A7               	movwf	___awmod@divisor+1
  3980     0EF4  0862               	movf	scale@scl,w
  3981     0EF5  00A8               	movwf	___awmod@dividend
  3982     0EF6  01A9               	clrf	___awmod@dividend+1
  3983     0EF7  1BA8               	btfsc	___awmod@dividend,7
  3984     0EF8  03A9               	decf	___awmod@dividend+1,f
  3985     0EF9  160A  158A  23F5  120A  158A  	fcall	___awmod
  3986     0EFE  1283               	bcf	3,5	;RP0=0, select bank0
  3987     0EFF  1303               	bcf	3,6	;RP1=0, select bank0
  3988     0F00  0826               	movf	?___awmod,w
  3989     0F01  00D4               	movwf	??_scale
  3990     0F02  3001               	movlw	1
  3991     0F03                     u4575:
  3992     0F03  1003               	clrc
  3993     0F04  0DD4               	rlf	??_scale,f
  3994     0F05  3EFF               	addlw	-1
  3995     0F06  1D03               	skipz
  3996     0F07  2F03               	goto	u4575
  3997     0F08  1003               	clrc
  3998     0F09  0D54               	rlf	??_scale,w
  3999     0F0A  3E01               	addlw	low ((__powers_-__stringbase)| (0+32768))
  4000     0F0B  0084               	movwf	4
  4001     0F0C  160A  158A  2000  120A  158A  	fcall	stringdir
  4002     0F11  00D5               	movwf	??_scale+1
  4003     0F12  160A  158A  2000  120A  158A  	fcall	stringdir
  4004     0F17  00D6               	movwf	??_scale+2
  4005     0F18  160A  158A  2000  120A  158A  	fcall	stringdir
  4006     0F1D  00D7               	movwf	??_scale+3
  4007     0F1E  160A  158A  2000  120A  158A  	fcall	stringdir
  4008     0F23  00D8               	movwf	??_scale+4
  4009     0F24  0858               	movf	??_scale+4,w
  4010     0F25  00B9               	movwf	___flmul@b+3
  4011     0F26  0857               	movf	??_scale+3,w
  4012     0F27  00B8               	movwf	___flmul@b+2
  4013     0F28  0856               	movf	??_scale+2,w
  4014     0F29  00B7               	movwf	___flmul@b+1
  4015     0F2A  0855               	movf	??_scale+1,w
  4016     0F2B  00B6               	movwf	___flmul@b
  4017     0F2C  0861               	movf	_scale$1078+3,w
  4018     0F2D  00BD               	movwf	___flmul@a+3
  4019     0F2E  0860               	movf	_scale$1078+2,w
  4020     0F2F  00BC               	movwf	___flmul@a+2
  4021     0F30  085F               	movf	_scale$1078+1,w
  4022     0F31  00BB               	movwf	___flmul@a+1
  4023     0F32  085E               	movf	_scale$1078,w
  4024     0F33  00BA               	movwf	___flmul@a
  4025     0F34  120A  158A  2158  120A  158A  	fcall	___flmul
  4026     0F39  1283               	bcf	3,5	;RP0=0, select bank0
  4027     0F3A  1303               	bcf	3,6	;RP1=0, select bank0
  4028     0F3B  0839               	movf	?___flmul+3,w
  4029     0F3C  00D3               	movwf	?_scale+3
  4030     0F3D  0838               	movf	?___flmul+2,w
  4031     0F3E  00D2               	movwf	?_scale+2
  4032     0F3F  0837               	movf	?___flmul+1,w
  4033     0F40  00D1               	movwf	?_scale+1
  4034     0F41  0836               	movf	?___flmul,w
  4035     0F42  00D0               	movwf	?_scale
  4036     0F43  2FFF               	goto	l288
  4037     0F44                     l2956:
  4038     0F44  0862               	movf	scale@scl,w
  4039     0F45  3A80               	xorlw	128
  4040     0F46  3E75               	addlw	-139
  4041     0F47  1C03               	skipc
  4042     0F48  2F4A               	goto	u4581
  4043     0F49  2F4B               	goto	u4580
  4044     0F4A                     u4581:
  4045     0F4A  2FD3               	goto	l2962
  4046     0F4B                     u4580:
  4047     0F4B                     l2958:
  4048                           
  4049                           ;C:\Program Files\Microchip\xc8\v2.40\pic\sources\c90\common\doprnt.c: 447:   return _po
      +                          wers_[(unsigned char)(scl/10+9)] * _powers_[(unsigned char)(scl%10)];
  4050     0F4B  300A               	movlw	10
  4051     0F4C  00A6               	movwf	___awmod@divisor
  4052     0F4D  3000               	movlw	0
  4053     0F4E  00A7               	movwf	___awmod@divisor+1
  4054     0F4F  0862               	movf	scale@scl,w
  4055     0F50  00A8               	movwf	___awmod@dividend
  4056     0F51  01A9               	clrf	___awmod@dividend+1
  4057     0F52  1BA8               	btfsc	___awmod@dividend,7
  4058     0F53  03A9               	decf	___awmod@dividend+1,f
  4059     0F54  160A  158A  23F5  120A  158A  	fcall	___awmod
  4060     0F59  1283               	bcf	3,5	;RP0=0, select bank0
  4061     0F5A  1303               	bcf	3,6	;RP1=0, select bank0
  4062     0F5B  0826               	movf	?___awmod,w
  4063     0F5C  00D4               	movwf	??_scale
  4064     0F5D  3001               	movlw	1
  4065     0F5E                     u4595:
  4066     0F5E  1003               	clrc
  4067     0F5F  0DD4               	rlf	??_scale,f
  4068     0F60  3EFF               	addlw	-1
  4069     0F61  1D03               	skipz
  4070     0F62  2F5E               	goto	u4595
  4071     0F63  1003               	clrc
  4072     0F64  0D54               	rlf	??_scale,w
  4073     0F65  3E01               	addlw	low ((__powers_-__stringbase)| (0+32768))
  4074     0F66  0084               	movwf	4
  4075     0F67  160A  158A  2000  120A  158A  	fcall	stringdir
  4076     0F6C  00D5               	movwf	??_scale+1
  4077     0F6D  160A  158A  2000  120A  158A  	fcall	stringdir
  4078     0F72  00D6               	movwf	??_scale+2
  4079     0F73  160A  158A  2000  120A  158A  	fcall	stringdir
  4080     0F78  00D7               	movwf	??_scale+3
  4081     0F79  160A  158A  2000  120A  158A  	fcall	stringdir
  4082     0F7E  00D8               	movwf	??_scale+4
  4083     0F7F  0858               	movf	??_scale+4,w
  4084     0F80  00B9               	movwf	___flmul@b+3
  4085     0F81  0857               	movf	??_scale+3,w
  4086     0F82  00B8               	movwf	___flmul@b+2
  4087     0F83  0856               	movf	??_scale+2,w
  4088     0F84  00B7               	movwf	___flmul@b+1
  4089     0F85  0855               	movf	??_scale+1,w
  4090     0F86  00B6               	movwf	___flmul@b
  4091     0F87  300A               	movlw	10
  4092     0F88  00AD               	movwf	___awdiv@divisor
  4093     0F89  3000               	movlw	0
  4094     0F8A  00AE               	movwf	___awdiv@divisor+1
  4095     0F8B  0862               	movf	scale@scl,w
  4096     0F8C  00AF               	movwf	___awdiv@dividend
  4097     0F8D  01B0               	clrf	___awdiv@dividend+1
  4098     0F8E  1BAF               	btfsc	___awdiv@dividend,7
  4099     0F8F  03B0               	decf	___awdiv@dividend+1,f
  4100     0F90  160A  158A  2584  120A  158A  	fcall	___awdiv
  4101     0F95  1283               	bcf	3,5	;RP0=0, select bank0
  4102     0F96  1303               	bcf	3,6	;RP1=0, select bank0
  4103     0F97  082D               	movf	?___awdiv,w
  4104     0F98  00D9               	movwf	??_scale+5
  4105     0F99  3001               	movlw	1
  4106     0F9A                     u4605:
  4107     0F9A  1003               	clrc
  4108     0F9B  0DD9               	rlf	??_scale+5,f
  4109     0F9C  3EFF               	addlw	-1
  4110     0F9D  1D03               	skipz
  4111     0F9E  2F9A               	goto	u4605
  4112     0F9F  1003               	clrc
  4113     0FA0  0D59               	rlf	??_scale+5,w
  4114     0FA1  3E25               	addlw	low (((__powers_-__stringbase)| (0+32768)+36))
  4115     0FA2  0084               	movwf	4
  4116     0FA3  160A  158A  2000  120A  158A  	fcall	stringdir
  4117     0FA8  00DA               	movwf	??_scale+6
  4118     0FA9  160A  158A  2000  120A  158A  	fcall	stringdir
  4119     0FAE  00DB               	movwf	??_scale+7
  4120     0FAF  160A  158A  2000  120A  158A  	fcall	stringdir
  4121     0FB4  00DC               	movwf	??_scale+8
  4122     0FB5  160A  158A  2000  120A  158A  	fcall	stringdir
  4123     0FBA  00DD               	movwf	??_scale+9
  4124     0FBB  085D               	movf	??_scale+9,w
  4125     0FBC  00BD               	movwf	___flmul@a+3
  4126     0FBD  085C               	movf	??_scale+8,w
  4127     0FBE  00BC               	movwf	___flmul@a+2
  4128     0FBF  085B               	movf	??_scale+7,w
  4129     0FC0  00BB               	movwf	___flmul@a+1
  4130     0FC1  085A               	movf	??_scale+6,w
  4131     0FC2  00BA               	movwf	___flmul@a
  4132     0FC3  120A  158A  2158  120A  158A  	fcall	___flmul
  4133     0FC8  1283               	bcf	3,5	;RP0=0, select bank0
  4134     0FC9  1303               	bcf	3,6	;RP1=0, select bank0
  4135     0FCA  0839               	movf	?___flmul+3,w
  4136     0FCB  00D3               	movwf	?_scale+3
  4137     0FCC  0838               	movf	?___flmul+2,w
  4138     0FCD  00D2               	movwf	?_scale+2
  4139     0FCE  0837               	movf	?___flmul+1,w
  4140     0FCF  00D1               	movwf	?_scale+1
  4141     0FD0  0836               	movf	?___flmul,w
  4142     0FD1  00D0               	movwf	?_scale
  4143     0FD2  2FFF               	goto	l288
  4144     0FD3                     l2962:
  4145                           
  4146                           ;C:\Program Files\Microchip\xc8\v2.40\pic\sources\c90\common\doprnt.c: 448:  return _pow
      +                          ers_[(unsigned char)scl];
  4147     0FD3  0862               	movf	scale@scl,w
  4148     0FD4  00D4               	movwf	??_scale
  4149     0FD5  3001               	movlw	1
  4150     0FD6                     u4615:
  4151     0FD6  1003               	clrc
  4152     0FD7  0DD4               	rlf	??_scale,f
  4153     0FD8  3EFF               	addlw	-1
  4154     0FD9  1D03               	skipz
  4155     0FDA  2FD6               	goto	u4615
  4156     0FDB  1003               	clrc
  4157     0FDC  0D54               	rlf	??_scale,w
  4158     0FDD  3E01               	addlw	low ((__powers_-__stringbase)| (0+32768))
  4159     0FDE  0084               	movwf	4
  4160     0FDF  160A  158A  2000  120A  158A  	fcall	stringdir
  4161     0FE4  00D5               	movwf	??_scale+1
  4162     0FE5  160A  158A  2000  120A  158A  	fcall	stringdir
  4163     0FEA  00D6               	movwf	??_scale+2
  4164     0FEB  160A  158A  2000  120A  158A  	fcall	stringdir
  4165     0FF0  00D7               	movwf	??_scale+3
  4166     0FF1  160A  158A  2000  120A  158A  	fcall	stringdir
  4167     0FF6  00D8               	movwf	??_scale+4
  4168     0FF7  0858               	movf	??_scale+4,w
  4169     0FF8  00D3               	movwf	?_scale+3
  4170     0FF9  0857               	movf	??_scale+3,w
  4171     0FFA  00D2               	movwf	?_scale+2
  4172     0FFB  0856               	movf	??_scale+2,w
  4173     0FFC  00D1               	movwf	?_scale+1
  4174     0FFD  0855               	movf	??_scale+1,w
  4175     0FFE  00D0               	movwf	?_scale
  4176     0FFF                     l288:
  4177     0FFF  0008               	return
  4178     1000                     __end_of_scale:
  4179                           
  4180                           	psect	text3
  4181     1BF5                     __ptext3:	
  4182 ;; *************** function ___awmod *****************
  4183 ;; Defined at:
  4184 ;;		line 5 in file "C:\Program Files\Microchip\xc8\v2.40\pic\sources\c90\common\awmod.c"
  4185 ;; Parameters:    Size  Location     Type
  4186 ;;  divisor         2    6[BANK0 ] int 
  4187 ;;  dividend        2    8[BANK0 ] int 
  4188 ;; Auto vars:     Size  Location     Type
  4189 ;;  sign            1   12[BANK0 ] unsigned char 
  4190 ;;  counter         1   11[BANK0 ] unsigned char 
  4191 ;; Return value:  Size  Location     Type
  4192 ;;                  2    6[BANK0 ] int 
  4193 ;; Registers used:
  4194 ;;		wreg, status,2, status,0
  4195 ;; Tracked objects:
  4196 ;;		On entry : 0/0
  4197 ;;		On exit  : 0/0
  4198 ;;		Unchanged: 0/0
  4199 ;; Data sizes:     COMMON   BANK0   BANK1   BANK3   BANK2
  4200 ;;      Params:         0       4       0       0       0
  4201 ;;      Locals:         0       2       0       0       0
  4202 ;;      Temps:          0       1       0       0       0
  4203 ;;      Totals:         0       7       0       0       0
  4204 ;;Total ram usage:        7 bytes
  4205 ;; Hardware stack levels used: 1
  4206 ;; Hardware stack levels required when called: 2
  4207 ;; This function calls:
  4208 ;;		Nothing
  4209 ;; This function is called by:
  4210 ;;		_scale
  4211 ;; This function uses a non-reentrant model
  4212 ;;
  4213                           
  4214     1BF5                     ___awmod:	
  4215                           ;psect for function ___awmod
  4216                           
  4217     1BF5                     l2476:	
  4218                           ;incstack = 0
  4219                           ; Regs used in ___awmod: [wreg+status,2+status,0]
  4220                           
  4221     1BF5  1283               	bcf	3,5	;RP0=0, select bank0
  4222     1BF6  1303               	bcf	3,6	;RP1=0, select bank0
  4223     1BF7  01AC               	clrf	___awmod@sign
  4224     1BF8                     l2478:
  4225     1BF8  1FA9               	btfss	___awmod@dividend+1,7
  4226     1BF9  2BFB               	goto	u3321
  4227     1BFA  2BFC               	goto	u3320
  4228     1BFB                     u3321:
  4229     1BFB  2C03               	goto	l2484
  4230     1BFC                     u3320:
  4231     1BFC                     l2480:
  4232     1BFC  09A8               	comf	___awmod@dividend,f
  4233     1BFD  09A9               	comf	___awmod@dividend+1,f
  4234     1BFE  0AA8               	incf	___awmod@dividend,f
  4235     1BFF  1903               	skipnz
  4236     1C00  0AA9               	incf	___awmod@dividend+1,f
  4237     1C01                     l2482:
  4238     1C01  01AC               	clrf	___awmod@sign
  4239     1C02  0AAC               	incf	___awmod@sign,f
  4240     1C03                     l2484:
  4241     1C03  1FA7               	btfss	___awmod@divisor+1,7
  4242     1C04  2C06               	goto	u3331
  4243     1C05  2C07               	goto	u3330
  4244     1C06                     u3331:
  4245     1C06  2C0C               	goto	l2488
  4246     1C07                     u3330:
  4247     1C07                     l2486:
  4248     1C07  09A6               	comf	___awmod@divisor,f
  4249     1C08  09A7               	comf	___awmod@divisor+1,f
  4250     1C09  0AA6               	incf	___awmod@divisor,f
  4251     1C0A  1903               	skipnz
  4252     1C0B  0AA7               	incf	___awmod@divisor+1,f
  4253     1C0C                     l2488:
  4254     1C0C  0826               	movf	___awmod@divisor,w
  4255     1C0D  0427               	iorwf	___awmod@divisor+1,w
  4256     1C0E  1903               	btfsc	3,2
  4257     1C0F  2C11               	goto	u3341
  4258     1C10  2C12               	goto	u3340
  4259     1C11                     u3341:
  4260     1C11  2C41               	goto	l2506
  4261     1C12                     u3340:
  4262     1C12                     l2490:
  4263     1C12  01AB               	clrf	___awmod@counter
  4264     1C13  0AAB               	incf	___awmod@counter,f
  4265     1C14  2C20               	goto	l2496
  4266     1C15                     l2492:
  4267     1C15  3001               	movlw	1
  4268     1C16                     u3355:
  4269     1C16  1003               	clrc
  4270     1C17  0DA6               	rlf	___awmod@divisor,f
  4271     1C18  0DA7               	rlf	___awmod@divisor+1,f
  4272     1C19  3EFF               	addlw	-1
  4273     1C1A  1D03               	skipz
  4274     1C1B  2C16               	goto	u3355
  4275     1C1C                     l2494:
  4276     1C1C  3001               	movlw	1
  4277     1C1D  00AA               	movwf	??___awmod
  4278     1C1E  082A               	movf	??___awmod,w
  4279     1C1F  07AB               	addwf	___awmod@counter,f
  4280     1C20                     l2496:
  4281     1C20  1FA7               	btfss	___awmod@divisor+1,7
  4282     1C21  2C23               	goto	u3361
  4283     1C22  2C24               	goto	u3360
  4284     1C23                     u3361:
  4285     1C23  2C15               	goto	l2492
  4286     1C24                     u3360:
  4287     1C24                     l2498:
  4288     1C24  0827               	movf	___awmod@divisor+1,w
  4289     1C25  0229               	subwf	___awmod@dividend+1,w
  4290     1C26  1D03               	skipz
  4291     1C27  2C2A               	goto	u3375
  4292     1C28  0826               	movf	___awmod@divisor,w
  4293     1C29  0228               	subwf	___awmod@dividend,w
  4294     1C2A                     u3375:
  4295     1C2A  1C03               	skipc
  4296     1C2B  2C2D               	goto	u3371
  4297     1C2C  2C2E               	goto	u3370
  4298     1C2D                     u3371:
  4299     1C2D  2C34               	goto	l2502
  4300     1C2E                     u3370:
  4301     1C2E                     l2500:
  4302     1C2E  0826               	movf	___awmod@divisor,w
  4303     1C2F  02A8               	subwf	___awmod@dividend,f
  4304     1C30  0827               	movf	___awmod@divisor+1,w
  4305     1C31  1C03               	skipc
  4306     1C32  03A9               	decf	___awmod@dividend+1,f
  4307     1C33  02A9               	subwf	___awmod@dividend+1,f
  4308     1C34                     l2502:
  4309     1C34  3001               	movlw	1
  4310     1C35                     u3385:
  4311     1C35  1003               	clrc
  4312     1C36  0CA7               	rrf	___awmod@divisor+1,f
  4313     1C37  0CA6               	rrf	___awmod@divisor,f
  4314     1C38  3EFF               	addlw	-1
  4315     1C39  1D03               	skipz
  4316     1C3A  2C35               	goto	u3385
  4317     1C3B                     l2504:
  4318     1C3B  3001               	movlw	1
  4319     1C3C  02AB               	subwf	___awmod@counter,f
  4320     1C3D  1D03               	btfss	3,2
  4321     1C3E  2C40               	goto	u3391
  4322     1C3F  2C41               	goto	u3390
  4323     1C40                     u3391:
  4324     1C40  2C24               	goto	l2498
  4325     1C41                     u3390:
  4326     1C41                     l2506:
  4327     1C41  082C               	movf	___awmod@sign,w
  4328     1C42  1903               	btfsc	3,2
  4329     1C43  2C45               	goto	u3401
  4330     1C44  2C46               	goto	u3400
  4331     1C45                     u3401:
  4332     1C45  2C4B               	goto	l2510
  4333     1C46                     u3400:
  4334     1C46                     l2508:
  4335     1C46  09A8               	comf	___awmod@dividend,f
  4336     1C47  09A9               	comf	___awmod@dividend+1,f
  4337     1C48  0AA8               	incf	___awmod@dividend,f
  4338     1C49  1903               	skipnz
  4339     1C4A  0AA9               	incf	___awmod@dividend+1,f
  4340     1C4B                     l2510:
  4341     1C4B  0829               	movf	___awmod@dividend+1,w
  4342     1C4C  00A7               	movwf	?___awmod+1
  4343     1C4D  0828               	movf	___awmod@dividend,w
  4344     1C4E  00A6               	movwf	?___awmod
  4345     1C4F                     l514:
  4346     1C4F  0008               	return
  4347     1C50                     __end_of___awmod:
  4348                           
  4349                           	psect	text4
  4350     1D84                     __ptext4:	
  4351 ;; *************** function ___awdiv *****************
  4352 ;; Defined at:
  4353 ;;		line 5 in file "C:\Program Files\Microchip\xc8\v2.40\pic\sources\c90\common\awdiv.c"
  4354 ;; Parameters:    Size  Location     Type
  4355 ;;  divisor         2   13[BANK0 ] int 
  4356 ;;  dividend        2   15[BANK0 ] int 
  4357 ;; Auto vars:     Size  Location     Type
  4358 ;;  quotient        2   20[BANK0 ] int 
  4359 ;;  sign            1   19[BANK0 ] unsigned char 
  4360 ;;  counter         1   18[BANK0 ] unsigned char 
  4361 ;; Return value:  Size  Location     Type
  4362 ;;                  2   13[BANK0 ] int 
  4363 ;; Registers used:
  4364 ;;		wreg, status,2, status,0
  4365 ;; Tracked objects:
  4366 ;;		On entry : 0/0
  4367 ;;		On exit  : 0/0
  4368 ;;		Unchanged: 0/0
  4369 ;; Data sizes:     COMMON   BANK0   BANK1   BANK3   BANK2
  4370 ;;      Params:         0       4       0       0       0
  4371 ;;      Locals:         0       4       0       0       0
  4372 ;;      Temps:          0       1       0       0       0
  4373 ;;      Totals:         0       9       0       0       0
  4374 ;;Total ram usage:        9 bytes
  4375 ;; Hardware stack levels used: 1
  4376 ;; Hardware stack levels required when called: 2
  4377 ;; This function calls:
  4378 ;;		Nothing
  4379 ;; This function is called by:
  4380 ;;		_scale
  4381 ;;		_sprintf
  4382 ;; This function uses a non-reentrant model
  4383 ;;
  4384                           
  4385     1D84                     ___awdiv:	
  4386                           ;psect for function ___awdiv
  4387                           
  4388     1D84                     l2432:	
  4389                           ;incstack = 0
  4390                           ; Regs used in ___awdiv: [wreg+status,2+status,0]
  4391                           
  4392     1D84  1283               	bcf	3,5	;RP0=0, select bank0
  4393     1D85  1303               	bcf	3,6	;RP1=0, select bank0
  4394     1D86  01B3               	clrf	___awdiv@sign
  4395     1D87                     l2434:
  4396     1D87  1FAE               	btfss	___awdiv@divisor+1,7
  4397     1D88  2D8A               	goto	u3221
  4398     1D89  2D8B               	goto	u3220
  4399     1D8A                     u3221:
  4400     1D8A  2D92               	goto	l2440
  4401     1D8B                     u3220:
  4402     1D8B                     l2436:
  4403     1D8B  09AD               	comf	___awdiv@divisor,f
  4404     1D8C  09AE               	comf	___awdiv@divisor+1,f
  4405     1D8D  0AAD               	incf	___awdiv@divisor,f
  4406     1D8E  1903               	skipnz
  4407     1D8F  0AAE               	incf	___awdiv@divisor+1,f
  4408     1D90                     l2438:
  4409     1D90  01B3               	clrf	___awdiv@sign
  4410     1D91  0AB3               	incf	___awdiv@sign,f
  4411     1D92                     l2440:
  4412     1D92  1FB0               	btfss	___awdiv@dividend+1,7
  4413     1D93  2D95               	goto	u3231
  4414     1D94  2D96               	goto	u3230
  4415     1D95                     u3231:
  4416     1D95  2D9F               	goto	l2446
  4417     1D96                     u3230:
  4418     1D96                     l2442:
  4419     1D96  09AF               	comf	___awdiv@dividend,f
  4420     1D97  09B0               	comf	___awdiv@dividend+1,f
  4421     1D98  0AAF               	incf	___awdiv@dividend,f
  4422     1D99  1903               	skipnz
  4423     1D9A  0AB0               	incf	___awdiv@dividend+1,f
  4424     1D9B                     l2444:
  4425     1D9B  3001               	movlw	1
  4426     1D9C  00B1               	movwf	??___awdiv
  4427     1D9D  0831               	movf	??___awdiv,w
  4428     1D9E  06B3               	xorwf	___awdiv@sign,f
  4429     1D9F                     l2446:
  4430     1D9F  01B4               	clrf	___awdiv@quotient
  4431     1DA0  01B5               	clrf	___awdiv@quotient+1
  4432     1DA1                     l2448:
  4433     1DA1  082D               	movf	___awdiv@divisor,w
  4434     1DA2  042E               	iorwf	___awdiv@divisor+1,w
  4435     1DA3  1903               	btfsc	3,2
  4436     1DA4  2DA6               	goto	u3241
  4437     1DA5  2DA7               	goto	u3240
  4438     1DA6                     u3241:
  4439     1DA6  2DDE               	goto	l2468
  4440     1DA7                     u3240:
  4441     1DA7                     l2450:
  4442     1DA7  01B2               	clrf	___awdiv@counter
  4443     1DA8  0AB2               	incf	___awdiv@counter,f
  4444     1DA9  2DB5               	goto	l2456
  4445     1DAA                     l2452:
  4446     1DAA  3001               	movlw	1
  4447     1DAB                     u3255:
  4448     1DAB  1003               	clrc
  4449     1DAC  0DAD               	rlf	___awdiv@divisor,f
  4450     1DAD  0DAE               	rlf	___awdiv@divisor+1,f
  4451     1DAE  3EFF               	addlw	-1
  4452     1DAF  1D03               	skipz
  4453     1DB0  2DAB               	goto	u3255
  4454     1DB1                     l2454:
  4455     1DB1  3001               	movlw	1
  4456     1DB2  00B1               	movwf	??___awdiv
  4457     1DB3  0831               	movf	??___awdiv,w
  4458     1DB4  07B2               	addwf	___awdiv@counter,f
  4459     1DB5                     l2456:
  4460     1DB5  1FAE               	btfss	___awdiv@divisor+1,7
  4461     1DB6  2DB8               	goto	u3261
  4462     1DB7  2DB9               	goto	u3260
  4463     1DB8                     u3261:
  4464     1DB8  2DAA               	goto	l2452
  4465     1DB9                     u3260:
  4466     1DB9                     l2458:
  4467     1DB9  3001               	movlw	1
  4468     1DBA                     u3275:
  4469     1DBA  1003               	clrc
  4470     1DBB  0DB4               	rlf	___awdiv@quotient,f
  4471     1DBC  0DB5               	rlf	___awdiv@quotient+1,f
  4472     1DBD  3EFF               	addlw	-1
  4473     1DBE  1D03               	skipz
  4474     1DBF  2DBA               	goto	u3275
  4475     1DC0  082E               	movf	___awdiv@divisor+1,w
  4476     1DC1  0230               	subwf	___awdiv@dividend+1,w
  4477     1DC2  1D03               	skipz
  4478     1DC3  2DC6               	goto	u3285
  4479     1DC4  082D               	movf	___awdiv@divisor,w
  4480     1DC5  022F               	subwf	___awdiv@dividend,w
  4481     1DC6                     u3285:
  4482     1DC6  1C03               	skipc
  4483     1DC7  2DC9               	goto	u3281
  4484     1DC8  2DCA               	goto	u3280
  4485     1DC9                     u3281:
  4486     1DC9  2DD1               	goto	l2464
  4487     1DCA                     u3280:
  4488     1DCA                     l2460:
  4489     1DCA  082D               	movf	___awdiv@divisor,w
  4490     1DCB  02AF               	subwf	___awdiv@dividend,f
  4491     1DCC  082E               	movf	___awdiv@divisor+1,w
  4492     1DCD  1C03               	skipc
  4493     1DCE  03B0               	decf	___awdiv@dividend+1,f
  4494     1DCF  02B0               	subwf	___awdiv@dividend+1,f
  4495     1DD0                     l2462:
  4496     1DD0  1434               	bsf	___awdiv@quotient,0
  4497     1DD1                     l2464:
  4498     1DD1  3001               	movlw	1
  4499     1DD2                     u3295:
  4500     1DD2  1003               	clrc
  4501     1DD3  0CAE               	rrf	___awdiv@divisor+1,f
  4502     1DD4  0CAD               	rrf	___awdiv@divisor,f
  4503     1DD5  3EFF               	addlw	-1
  4504     1DD6  1D03               	skipz
  4505     1DD7  2DD2               	goto	u3295
  4506     1DD8                     l2466:
  4507     1DD8  3001               	movlw	1
  4508     1DD9  02B2               	subwf	___awdiv@counter,f
  4509     1DDA  1D03               	btfss	3,2
  4510     1DDB  2DDD               	goto	u3301
  4511     1DDC  2DDE               	goto	u3300
  4512     1DDD                     u3301:
  4513     1DDD  2DB9               	goto	l2458
  4514     1DDE                     u3300:
  4515     1DDE                     l2468:
  4516     1DDE  0833               	movf	___awdiv@sign,w
  4517     1DDF  1903               	btfsc	3,2
  4518     1DE0  2DE2               	goto	u3311
  4519     1DE1  2DE3               	goto	u3310
  4520     1DE2                     u3311:
  4521     1DE2  2DE8               	goto	l2472
  4522     1DE3                     u3310:
  4523     1DE3                     l2470:
  4524     1DE3  09B4               	comf	___awdiv@quotient,f
  4525     1DE4  09B5               	comf	___awdiv@quotient+1,f
  4526     1DE5  0AB4               	incf	___awdiv@quotient,f
  4527     1DE6  1903               	skipnz
  4528     1DE7  0AB5               	incf	___awdiv@quotient+1,f
  4529     1DE8                     l2472:
  4530     1DE8  0835               	movf	___awdiv@quotient+1,w
  4531     1DE9  00AE               	movwf	?___awdiv+1
  4532     1DEA  0834               	movf	___awdiv@quotient,w
  4533     1DEB  00AD               	movwf	?___awdiv
  4534     1DEC                     l501:
  4535     1DEC  0008               	return
  4536     1DED                     __end_of___awdiv:
  4537                           
  4538                           	psect	text5
  4539     1109                     __ptext5:	
  4540 ;; *************** function _fround *****************
  4541 ;; Defined at:
  4542 ;;		line 417 in file "C:\Program Files\Microchip\xc8\v2.40\pic\sources\c90\common\doprnt.c"
  4543 ;; Parameters:    Size  Location     Type
  4544 ;;  prec            1    wreg     unsigned char 
  4545 ;; Auto vars:     Size  Location     Type
  4546 ;;  prec            1   67[BANK0 ] unsigned char 
  4547 ;; Return value:  Size  Location     Type
  4548 ;;                  4   48[BANK0 ] unsigned char 
  4549 ;; Registers used:
  4550 ;;		wreg, fsr0l, fsr0h, status,2, status,0, btemp+1, pclath, cstack
  4551 ;; Tracked objects:
  4552 ;;		On entry : 0/0
  4553 ;;		On exit  : 0/0
  4554 ;;		Unchanged: 0/0
  4555 ;; Data sizes:     COMMON   BANK0   BANK1   BANK3   BANK2
  4556 ;;      Params:         0       4       0       0       0
  4557 ;;      Locals:         0       9       0       0       0
  4558 ;;      Temps:          0       7       0       0       0
  4559 ;;      Totals:         0      20       0       0       0
  4560 ;;Total ram usage:       20 bytes
  4561 ;; Hardware stack levels used: 1
  4562 ;; Hardware stack levels required when called: 4
  4563 ;; This function calls:
  4564 ;;		___flmul
  4565 ;;		___lwdiv
  4566 ;;		___lwmod
  4567 ;; This function is called by:
  4568 ;;		_sprintf
  4569 ;; This function uses a non-reentrant model
  4570 ;;
  4571                           
  4572     1109                     _fround:	
  4573                           ;psect for function _fround
  4574                           
  4575                           
  4576                           ;incstack = 0
  4577                           ; Regs used in _fround: [wreg-fsr0h+status,2+status,0+btemp+1+pclath+cstack]
  4578                           ;fround@prec stored from wreg
  4579     1109  1283               	bcf	3,5	;RP0=0, select bank0
  4580     110A  1303               	bcf	3,6	;RP1=0, select bank0
  4581     110B  00E3               	movwf	fround@prec
  4582     110C                     l2908:
  4583                           
  4584                           ;C:\Program Files\Microchip\xc8\v2.40\pic\sources\c90\common\doprnt.c: 417: fround(unsig
      +                          ned char prec);C:\Program Files\Microchip\xc8\v2.40\pic\sources\c90\common\doprnt.c: 418
      +                          : {;C:\Program Files\Microchip\xc8\v2.40\pic\sources\c90\common\doprnt.c: 421:  if(prec>
      +                          =110)
  4585     110C  306E               	movlw	110
  4586     110D  0263               	subwf	fround@prec,w
  4587     110E  1C03               	skipc
  4588     110F  2911               	goto	u4371
  4589     1110  2912               	goto	u4370
  4590     1111                     u4371:
  4591     1111  2A21               	goto	l2916
  4592     1112                     u4370:
  4593     1112                     l2910:
  4594                           
  4595                           ;C:\Program Files\Microchip\xc8\v2.40\pic\sources\c90\common\doprnt.c: 422:   return 0.5
      +                           * _npowers_[prec/100U+18U] * _npowers_[(prec%100U)/10U+9U] * _npowers_[prec%10U];
  4596     1112  303F               	movlw	63
  4597     1113  00B9               	movwf	___flmul@b+3
  4598     1114  3000               	movlw	0
  4599     1115  00B8               	movwf	___flmul@b+2
  4600     1116  3000               	movlw	0
  4601     1117  00B7               	movwf	___flmul@b+1
  4602     1118  3000               	movlw	0
  4603     1119  00B6               	movwf	___flmul@b
  4604     111A  3064               	movlw	100
  4605     111B  00AC               	movwf	___lwdiv@divisor
  4606     111C  3000               	movlw	0
  4607     111D  00AD               	movwf	___lwdiv@divisor+1
  4608     111E  0863               	movf	fround@prec,w
  4609     111F  00D4               	movwf	??_fround
  4610     1120  01D5               	clrf	??_fround+1
  4611     1121  0854               	movf	??_fround,w
  4612     1122  00AE               	movwf	___lwdiv@dividend
  4613     1123  0855               	movf	??_fround+1,w
  4614     1124  00AF               	movwf	___lwdiv@dividend+1
  4615     1125  160A  158A  2359  160A  118A  	fcall	___lwdiv
  4616     112A  1283               	bcf	3,5	;RP0=0, select bank0
  4617     112B  1303               	bcf	3,6	;RP1=0, select bank0
  4618     112C  082C               	movf	?___lwdiv,w
  4619     112D  00D6               	movwf	??_fround+2
  4620     112E  3001               	movlw	1
  4621     112F                     u4385:
  4622     112F  1003               	clrc
  4623     1130  0DD6               	rlf	??_fround+2,f
  4624     1131  3EFF               	addlw	-1
  4625     1132  1D03               	skipz
  4626     1133  292F               	goto	u4385
  4627     1134  1003               	clrc
  4628     1135  0D56               	rlf	??_fround+2,w
  4629     1136  3E7D               	addlw	low (((__npowers_-__stringbase)| (0+32768)+72))
  4630     1137  0084               	movwf	4
  4631     1138  160A  158A  2000  160A  118A  	fcall	stringdir
  4632     113D  00D7               	movwf	??_fround+3
  4633     113E  160A  158A  2000  160A  118A  	fcall	stringdir
  4634     1143  00D8               	movwf	??_fround+4
  4635     1144  160A  158A  2000  160A  118A  	fcall	stringdir
  4636     1149  00D9               	movwf	??_fround+5
  4637     114A  160A  158A  2000  160A  118A  	fcall	stringdir
  4638     114F  00DA               	movwf	??_fround+6
  4639     1150  085A               	movf	??_fround+6,w
  4640     1151  00BD               	movwf	___flmul@a+3
  4641     1152  0859               	movf	??_fround+5,w
  4642     1153  00BC               	movwf	___flmul@a+2
  4643     1154  0858               	movf	??_fround+4,w
  4644     1155  00BB               	movwf	___flmul@a+1
  4645     1156  0857               	movf	??_fround+3,w
  4646     1157  00BA               	movwf	___flmul@a
  4647     1158  120A  158A  2158  160A  118A  	fcall	___flmul
  4648     115D  1283               	bcf	3,5	;RP0=0, select bank0
  4649     115E  1303               	bcf	3,6	;RP1=0, select bank0
  4650     115F  0839               	movf	?___flmul+3,w
  4651     1160  00E2               	movwf	_fround$1076+3
  4652     1161  0838               	movf	?___flmul+2,w
  4653     1162  00E1               	movwf	_fround$1076+2
  4654     1163  0837               	movf	?___flmul+1,w
  4655     1164  00E0               	movwf	_fround$1076+1
  4656     1165  0836               	movf	?___flmul,w
  4657     1166  00DF               	movwf	_fround$1076
  4658                           
  4659                           ;C:\Program Files\Microchip\xc8\v2.40\pic\sources\c90\common\doprnt.c: 422:   return 0.5
      +                           * _npowers_[prec/100U+18U] * _npowers_[(prec%100U)/10U+9U] * _npowers_[prec%10U];
  4660     1167  300A               	movlw	10
  4661     1168  00AC               	movwf	___lwdiv@divisor
  4662     1169  3000               	movlw	0
  4663     116A  00AD               	movwf	___lwdiv@divisor+1
  4664     116B  0863               	movf	fround@prec,w
  4665     116C  00D4               	movwf	??_fround
  4666     116D  01D5               	clrf	??_fround+1
  4667     116E  0854               	movf	??_fround,w
  4668     116F  00A8               	movwf	___lwmod@dividend
  4669     1170  0855               	movf	??_fround+1,w
  4670     1171  00A9               	movwf	___lwmod@dividend+1
  4671     1172  3064               	movlw	100
  4672     1173  00A6               	movwf	___lwmod@divisor
  4673     1174  3000               	movlw	0
  4674     1175  00A7               	movwf	___lwmod@divisor+1
  4675     1176  120A  118A  27BB  160A  118A  	fcall	___lwmod
  4676     117B  1283               	bcf	3,5	;RP0=0, select bank0
  4677     117C  1303               	bcf	3,6	;RP1=0, select bank0
  4678     117D  0827               	movf	?___lwmod+1,w
  4679     117E  00AF               	movwf	___lwdiv@dividend+1
  4680     117F  0826               	movf	?___lwmod,w
  4681     1180  00AE               	movwf	___lwdiv@dividend
  4682     1181  160A  158A  2359  160A  118A  	fcall	___lwdiv
  4683     1186  1283               	bcf	3,5	;RP0=0, select bank0
  4684     1187  1303               	bcf	3,6	;RP1=0, select bank0
  4685     1188  082C               	movf	?___lwdiv,w
  4686     1189  00D6               	movwf	??_fround+2
  4687     118A  3001               	movlw	1
  4688     118B                     u4395:
  4689     118B  1003               	clrc
  4690     118C  0DD6               	rlf	??_fround+2,f
  4691     118D  3EFF               	addlw	-1
  4692     118E  1D03               	skipz
  4693     118F  298B               	goto	u4395
  4694     1190  1003               	clrc
  4695     1191  0D56               	rlf	??_fround+2,w
  4696     1192  3E59               	addlw	low (((__npowers_-__stringbase)| (0+32768)+36))
  4697     1193  0084               	movwf	4
  4698     1194  160A  158A  2000  160A  118A  	fcall	stringdir
  4699     1199  00D7               	movwf	??_fround+3
  4700     119A  160A  158A  2000  160A  118A  	fcall	stringdir
  4701     119F  00D8               	movwf	??_fround+4
  4702     11A0  160A  158A  2000  160A  118A  	fcall	stringdir
  4703     11A5  00D9               	movwf	??_fround+5
  4704     11A6  160A  158A  2000  160A  118A  	fcall	stringdir
  4705     11AB  00DA               	movwf	??_fround+6
  4706     11AC  085A               	movf	??_fround+6,w
  4707     11AD  00B9               	movwf	___flmul@b+3
  4708     11AE  0859               	movf	??_fround+5,w
  4709     11AF  00B8               	movwf	___flmul@b+2
  4710     11B0  0858               	movf	??_fround+4,w
  4711     11B1  00B7               	movwf	___flmul@b+1
  4712     11B2  0857               	movf	??_fround+3,w
  4713     11B3  00B6               	movwf	___flmul@b
  4714     11B4  0862               	movf	_fround$1076+3,w
  4715     11B5  00BD               	movwf	___flmul@a+3
  4716     11B6  0861               	movf	_fround$1076+2,w
  4717     11B7  00BC               	movwf	___flmul@a+2
  4718     11B8  0860               	movf	_fround$1076+1,w
  4719     11B9  00BB               	movwf	___flmul@a+1
  4720     11BA  085F               	movf	_fround$1076,w
  4721     11BB  00BA               	movwf	___flmul@a
  4722     11BC  120A  158A  2158  160A  118A  	fcall	___flmul
  4723     11C1  1283               	bcf	3,5	;RP0=0, select bank0
  4724     11C2  1303               	bcf	3,6	;RP1=0, select bank0
  4725     11C3  0839               	movf	?___flmul+3,w
  4726     11C4  00DE               	movwf	_fround$1077+3
  4727     11C5  0838               	movf	?___flmul+2,w
  4728     11C6  00DD               	movwf	_fround$1077+2
  4729     11C7  0837               	movf	?___flmul+1,w
  4730     11C8  00DC               	movwf	_fround$1077+1
  4731     11C9  0836               	movf	?___flmul,w
  4732     11CA  00DB               	movwf	_fround$1077
  4733                           
  4734                           ;C:\Program Files\Microchip\xc8\v2.40\pic\sources\c90\common\doprnt.c: 422:   return 0.5
      +                           * _npowers_[prec/100U+18U] * _npowers_[(prec%100U)/10U+9U] * _npowers_[prec%10U];
  4735     11CB  300A               	movlw	10
  4736     11CC  00A6               	movwf	___lwmod@divisor
  4737     11CD  3000               	movlw	0
  4738     11CE  00A7               	movwf	___lwmod@divisor+1
  4739     11CF  0863               	movf	fround@prec,w
  4740     11D0  00D4               	movwf	??_fround
  4741     11D1  01D5               	clrf	??_fround+1
  4742     11D2  0854               	movf	??_fround,w
  4743     11D3  00A8               	movwf	___lwmod@dividend
  4744     11D4  0855               	movf	??_fround+1,w
  4745     11D5  00A9               	movwf	___lwmod@dividend+1
  4746     11D6  120A  118A  27BB  160A  118A  	fcall	___lwmod
  4747     11DB  1283               	bcf	3,5	;RP0=0, select bank0
  4748     11DC  1303               	bcf	3,6	;RP1=0, select bank0
  4749     11DD  0826               	movf	?___lwmod,w
  4750     11DE  00D6               	movwf	??_fround+2
  4751     11DF  3001               	movlw	1
  4752     11E0                     u4405:
  4753     11E0  1003               	clrc
  4754     11E1  0DD6               	rlf	??_fround+2,f
  4755     11E2  3EFF               	addlw	-1
  4756     11E3  1D03               	skipz
  4757     11E4  29E0               	goto	u4405
  4758     11E5  1003               	clrc
  4759     11E6  0D56               	rlf	??_fround+2,w
  4760     11E7  3E35               	addlw	low ((__npowers_-__stringbase)| (0+32768))
  4761     11E8  0084               	movwf	4
  4762     11E9  160A  158A  2000  160A  118A  	fcall	stringdir
  4763     11EE  00D7               	movwf	??_fround+3
  4764     11EF  160A  158A  2000  160A  118A  	fcall	stringdir
  4765     11F4  00D8               	movwf	??_fround+4
  4766     11F5  160A  158A  2000  160A  118A  	fcall	stringdir
  4767     11FA  00D9               	movwf	??_fround+5
  4768     11FB  160A  158A  2000  160A  118A  	fcall	stringdir
  4769     1200  00DA               	movwf	??_fround+6
  4770     1201  085A               	movf	??_fround+6,w
  4771     1202  00B9               	movwf	___flmul@b+3
  4772     1203  0859               	movf	??_fround+5,w
  4773     1204  00B8               	movwf	___flmul@b+2
  4774     1205  0858               	movf	??_fround+4,w
  4775     1206  00B7               	movwf	___flmul@b+1
  4776     1207  0857               	movf	??_fround+3,w
  4777     1208  00B6               	movwf	___flmul@b
  4778     1209  085E               	movf	_fround$1077+3,w
  4779     120A  00BD               	movwf	___flmul@a+3
  4780     120B  085D               	movf	_fround$1077+2,w
  4781     120C  00BC               	movwf	___flmul@a+2
  4782     120D  085C               	movf	_fround$1077+1,w
  4783     120E  00BB               	movwf	___flmul@a+1
  4784     120F  085B               	movf	_fround$1077,w
  4785     1210  00BA               	movwf	___flmul@a
  4786     1211  120A  158A  2158  160A  118A  	fcall	___flmul
  4787     1216  1283               	bcf	3,5	;RP0=0, select bank0
  4788     1217  1303               	bcf	3,6	;RP1=0, select bank0
  4789     1218  0839               	movf	?___flmul+3,w
  4790     1219  00D3               	movwf	?_fround+3
  4791     121A  0838               	movf	?___flmul+2,w
  4792     121B  00D2               	movwf	?_fround+2
  4793     121C  0837               	movf	?___flmul+1,w
  4794     121D  00D1               	movwf	?_fround+1
  4795     121E  0836               	movf	?___flmul,w
  4796     121F  00D0               	movwf	?_fround
  4797     1220  2B15               	goto	l281
  4798     1221                     l2916:
  4799     1221  300B               	movlw	11
  4800     1222  0263               	subwf	fround@prec,w
  4801     1223  1C03               	skipc
  4802     1224  2A26               	goto	u4411
  4803     1225  2A27               	goto	u4410
  4804     1226                     u4411:
  4805     1226  2AD2               	goto	l2922
  4806     1227                     u4410:
  4807     1227                     l2918:
  4808                           
  4809                           ;C:\Program Files\Microchip\xc8\v2.40\pic\sources\c90\common\doprnt.c: 424:   return 0.5
      +                           * _npowers_[prec/10U+9U] * _npowers_[prec%10U];
  4810     1227  303F               	movlw	63
  4811     1228  00B9               	movwf	___flmul@b+3
  4812     1229  3000               	movlw	0
  4813     122A  00B8               	movwf	___flmul@b+2
  4814     122B  3000               	movlw	0
  4815     122C  00B7               	movwf	___flmul@b+1
  4816     122D  3000               	movlw	0
  4817     122E  00B6               	movwf	___flmul@b
  4818     122F  300A               	movlw	10
  4819     1230  00AC               	movwf	___lwdiv@divisor
  4820     1231  3000               	movlw	0
  4821     1232  00AD               	movwf	___lwdiv@divisor+1
  4822     1233  0863               	movf	fround@prec,w
  4823     1234  00D4               	movwf	??_fround
  4824     1235  01D5               	clrf	??_fround+1
  4825     1236  0854               	movf	??_fround,w
  4826     1237  00AE               	movwf	___lwdiv@dividend
  4827     1238  0855               	movf	??_fround+1,w
  4828     1239  00AF               	movwf	___lwdiv@dividend+1
  4829     123A  160A  158A  2359  160A  118A  	fcall	___lwdiv
  4830     123F  1283               	bcf	3,5	;RP0=0, select bank0
  4831     1240  1303               	bcf	3,6	;RP1=0, select bank0
  4832     1241  082C               	movf	?___lwdiv,w
  4833     1242  00D6               	movwf	??_fround+2
  4834     1243  3001               	movlw	1
  4835     1244                     u4425:
  4836     1244  1003               	clrc
  4837     1245  0DD6               	rlf	??_fround+2,f
  4838     1246  3EFF               	addlw	-1
  4839     1247  1D03               	skipz
  4840     1248  2A44               	goto	u4425
  4841     1249  1003               	clrc
  4842     124A  0D56               	rlf	??_fround+2,w
  4843     124B  3E59               	addlw	low (((__npowers_-__stringbase)| (0+32768)+36))
  4844     124C  0084               	movwf	4
  4845     124D  160A  158A  2000  160A  118A  	fcall	stringdir
  4846     1252  00D7               	movwf	??_fround+3
  4847     1253  160A  158A  2000  160A  118A  	fcall	stringdir
  4848     1258  00D8               	movwf	??_fround+4
  4849     1259  160A  158A  2000  160A  118A  	fcall	stringdir
  4850     125E  00D9               	movwf	??_fround+5
  4851     125F  160A  158A  2000  160A  118A  	fcall	stringdir
  4852     1264  00DA               	movwf	??_fround+6
  4853     1265  085A               	movf	??_fround+6,w
  4854     1266  00BD               	movwf	___flmul@a+3
  4855     1267  0859               	movf	??_fround+5,w
  4856     1268  00BC               	movwf	___flmul@a+2
  4857     1269  0858               	movf	??_fround+4,w
  4858     126A  00BB               	movwf	___flmul@a+1
  4859     126B  0857               	movf	??_fround+3,w
  4860     126C  00BA               	movwf	___flmul@a
  4861     126D  120A  158A  2158  160A  118A  	fcall	___flmul
  4862     1272  1283               	bcf	3,5	;RP0=0, select bank0
  4863     1273  1303               	bcf	3,6	;RP1=0, select bank0
  4864     1274  0839               	movf	?___flmul+3,w
  4865     1275  00E2               	movwf	_fround$1076+3
  4866     1276  0838               	movf	?___flmul+2,w
  4867     1277  00E1               	movwf	_fround$1076+2
  4868     1278  0837               	movf	?___flmul+1,w
  4869     1279  00E0               	movwf	_fround$1076+1
  4870     127A  0836               	movf	?___flmul,w
  4871     127B  00DF               	movwf	_fround$1076
  4872                           
  4873                           ;C:\Program Files\Microchip\xc8\v2.40\pic\sources\c90\common\doprnt.c: 424:   return 0.5
      +                           * _npowers_[prec/10U+9U] * _npowers_[prec%10U];
  4874     127C  300A               	movlw	10
  4875     127D  00A6               	movwf	___lwmod@divisor
  4876     127E  3000               	movlw	0
  4877     127F  00A7               	movwf	___lwmod@divisor+1
  4878     1280  0863               	movf	fround@prec,w
  4879     1281  00D4               	movwf	??_fround
  4880     1282  01D5               	clrf	??_fround+1
  4881     1283  0854               	movf	??_fround,w
  4882     1284  00A8               	movwf	___lwmod@dividend
  4883     1285  0855               	movf	??_fround+1,w
  4884     1286  00A9               	movwf	___lwmod@dividend+1
  4885     1287  120A  118A  27BB  160A  118A  	fcall	___lwmod
  4886     128C  1283               	bcf	3,5	;RP0=0, select bank0
  4887     128D  1303               	bcf	3,6	;RP1=0, select bank0
  4888     128E  0826               	movf	?___lwmod,w
  4889     128F  00D6               	movwf	??_fround+2
  4890     1290  3001               	movlw	1
  4891     1291                     u4435:
  4892     1291  1003               	clrc
  4893     1292  0DD6               	rlf	??_fround+2,f
  4894     1293  3EFF               	addlw	-1
  4895     1294  1D03               	skipz
  4896     1295  2A91               	goto	u4435
  4897     1296  1003               	clrc
  4898     1297  0D56               	rlf	??_fround+2,w
  4899     1298  3E35               	addlw	low ((__npowers_-__stringbase)| (0+32768))
  4900     1299  0084               	movwf	4
  4901     129A  160A  158A  2000  160A  118A  	fcall	stringdir
  4902     129F  00D7               	movwf	??_fround+3
  4903     12A0  160A  158A  2000  160A  118A  	fcall	stringdir
  4904     12A5  00D8               	movwf	??_fround+4
  4905     12A6  160A  158A  2000  160A  118A  	fcall	stringdir
  4906     12AB  00D9               	movwf	??_fround+5
  4907     12AC  160A  158A  2000  160A  118A  	fcall	stringdir
  4908     12B1  00DA               	movwf	??_fround+6
  4909     12B2  085A               	movf	??_fround+6,w
  4910     12B3  00B9               	movwf	___flmul@b+3
  4911     12B4  0859               	movf	??_fround+5,w
  4912     12B5  00B8               	movwf	___flmul@b+2
  4913     12B6  0858               	movf	??_fround+4,w
  4914     12B7  00B7               	movwf	___flmul@b+1
  4915     12B8  0857               	movf	??_fround+3,w
  4916     12B9  00B6               	movwf	___flmul@b
  4917     12BA  0862               	movf	_fround$1076+3,w
  4918     12BB  00BD               	movwf	___flmul@a+3
  4919     12BC  0861               	movf	_fround$1076+2,w
  4920     12BD  00BC               	movwf	___flmul@a+2
  4921     12BE  0860               	movf	_fround$1076+1,w
  4922     12BF  00BB               	movwf	___flmul@a+1
  4923     12C0  085F               	movf	_fround$1076,w
  4924     12C1  00BA               	movwf	___flmul@a
  4925     12C2  120A  158A  2158  160A  118A  	fcall	___flmul
  4926     12C7  1283               	bcf	3,5	;RP0=0, select bank0
  4927     12C8  1303               	bcf	3,6	;RP1=0, select bank0
  4928     12C9  0839               	movf	?___flmul+3,w
  4929     12CA  00D3               	movwf	?_fround+3
  4930     12CB  0838               	movf	?___flmul+2,w
  4931     12CC  00D2               	movwf	?_fround+2
  4932     12CD  0837               	movf	?___flmul+1,w
  4933     12CE  00D1               	movwf	?_fround+1
  4934     12CF  0836               	movf	?___flmul,w
  4935     12D0  00D0               	movwf	?_fround
  4936     12D1  2B15               	goto	l281
  4937     12D2                     l2922:
  4938                           
  4939                           ;C:\Program Files\Microchip\xc8\v2.40\pic\sources\c90\common\doprnt.c: 425:  return 0.5 
      +                          * _npowers_[prec];
  4940     12D2  303F               	movlw	63
  4941     12D3  00B9               	movwf	___flmul@b+3
  4942     12D4  3000               	movlw	0
  4943     12D5  00B8               	movwf	___flmul@b+2
  4944     12D6  3000               	movlw	0
  4945     12D7  00B7               	movwf	___flmul@b+1
  4946     12D8  3000               	movlw	0
  4947     12D9  00B6               	movwf	___flmul@b
  4948     12DA  0863               	movf	fround@prec,w
  4949     12DB  00D4               	movwf	??_fround
  4950     12DC  3001               	movlw	1
  4951     12DD                     u4445:
  4952     12DD  1003               	clrc
  4953     12DE  0DD4               	rlf	??_fround,f
  4954     12DF  3EFF               	addlw	-1
  4955     12E0  1D03               	skipz
  4956     12E1  2ADD               	goto	u4445
  4957     12E2  1003               	clrc
  4958     12E3  0D54               	rlf	??_fround,w
  4959     12E4  3E35               	addlw	low ((__npowers_-__stringbase)| (0+32768))
  4960     12E5  0084               	movwf	4
  4961     12E6  160A  158A  2000  160A  118A  	fcall	stringdir
  4962     12EB  00D5               	movwf	??_fround+1
  4963     12EC  160A  158A  2000  160A  118A  	fcall	stringdir
  4964     12F1  00D6               	movwf	??_fround+2
  4965     12F2  160A  158A  2000  160A  118A  	fcall	stringdir
  4966     12F7  00D7               	movwf	??_fround+3
  4967     12F8  160A  158A  2000  160A  118A  	fcall	stringdir
  4968     12FD  00D8               	movwf	??_fround+4
  4969     12FE  0858               	movf	??_fround+4,w
  4970     12FF  00BD               	movwf	___flmul@a+3
  4971     1300  0857               	movf	??_fround+3,w
  4972     1301  00BC               	movwf	___flmul@a+2
  4973     1302  0856               	movf	??_fround+2,w
  4974     1303  00BB               	movwf	___flmul@a+1
  4975     1304  0855               	movf	??_fround+1,w
  4976     1305  00BA               	movwf	___flmul@a
  4977     1306  120A  158A  2158  160A  118A  	fcall	___flmul
  4978     130B  1283               	bcf	3,5	;RP0=0, select bank0
  4979     130C  1303               	bcf	3,6	;RP1=0, select bank0
  4980     130D  0839               	movf	?___flmul+3,w
  4981     130E  00D3               	movwf	?_fround+3
  4982     130F  0838               	movf	?___flmul+2,w
  4983     1310  00D2               	movwf	?_fround+2
  4984     1311  0837               	movf	?___flmul+1,w
  4985     1312  00D1               	movwf	?_fround+1
  4986     1313  0836               	movf	?___flmul,w
  4987     1314  00D0               	movwf	?_fround
  4988     1315                     l281:
  4989     1315  0008               	return
  4990     1316                     __end_of_fround:
  4991                           
  4992                           	psect	text6
  4993     07BB                     __ptext6:	
  4994 ;; *************** function ___lwmod *****************
  4995 ;; Defined at:
  4996 ;;		line 5 in file "C:\Program Files\Microchip\xc8\v2.40\pic\sources\c90\common\lwmod.c"
  4997 ;; Parameters:    Size  Location     Type
  4998 ;;  divisor         2    6[BANK0 ] unsigned int 
  4999 ;;  dividend        2    8[BANK0 ] unsigned int 
  5000 ;; Auto vars:     Size  Location     Type
  5001 ;;  counter         1   11[BANK0 ] unsigned char 
  5002 ;; Return value:  Size  Location     Type
  5003 ;;                  2    6[BANK0 ] unsigned int 
  5004 ;; Registers used:
  5005 ;;		wreg, status,2, status,0
  5006 ;; Tracked objects:
  5007 ;;		On entry : 0/0
  5008 ;;		On exit  : 0/0
  5009 ;;		Unchanged: 0/0
  5010 ;; Data sizes:     COMMON   BANK0   BANK1   BANK3   BANK2
  5011 ;;      Params:         0       4       0       0       0
  5012 ;;      Locals:         0       1       0       0       0
  5013 ;;      Temps:          0       1       0       0       0
  5014 ;;      Totals:         0       6       0       0       0
  5015 ;;Total ram usage:        6 bytes
  5016 ;; Hardware stack levels used: 1
  5017 ;; Hardware stack levels required when called: 2
  5018 ;; This function calls:
  5019 ;;		Nothing
  5020 ;; This function is called by:
  5021 ;;		_fround
  5022 ;; This function uses a non-reentrant model
  5023 ;;
  5024                           
  5025     07BB                     ___lwmod:	
  5026                           ;psect for function ___lwmod
  5027                           
  5028     07BB                     l2540:	
  5029                           ;incstack = 0
  5030                           ; Regs used in ___lwmod: [wreg+status,2+status,0]
  5031                           
  5032     07BB  1283               	bcf	3,5	;RP0=0, select bank0
  5033     07BC  1303               	bcf	3,6	;RP1=0, select bank0
  5034     07BD  0826               	movf	___lwmod@divisor,w
  5035     07BE  0427               	iorwf	___lwmod@divisor+1,w
  5036     07BF  1903               	btfsc	3,2
  5037     07C0  2FC2               	goto	u3481
  5038     07C1  2FC3               	goto	u3480
  5039     07C2                     u3481:
  5040     07C2  2FF2               	goto	l2558
  5041     07C3                     u3480:
  5042     07C3                     l2542:
  5043     07C3  01AB               	clrf	___lwmod@counter
  5044     07C4  0AAB               	incf	___lwmod@counter,f
  5045     07C5  2FD1               	goto	l2548
  5046     07C6                     l2544:
  5047     07C6  3001               	movlw	1
  5048     07C7                     u3495:
  5049     07C7  1003               	clrc
  5050     07C8  0DA6               	rlf	___lwmod@divisor,f
  5051     07C9  0DA7               	rlf	___lwmod@divisor+1,f
  5052     07CA  3EFF               	addlw	-1
  5053     07CB  1D03               	skipz
  5054     07CC  2FC7               	goto	u3495
  5055     07CD                     l2546:
  5056     07CD  3001               	movlw	1
  5057     07CE  00AA               	movwf	??___lwmod
  5058     07CF  082A               	movf	??___lwmod,w
  5059     07D0  07AB               	addwf	___lwmod@counter,f
  5060     07D1                     l2548:
  5061     07D1  1FA7               	btfss	___lwmod@divisor+1,7
  5062     07D2  2FD4               	goto	u3501
  5063     07D3  2FD5               	goto	u3500
  5064     07D4                     u3501:
  5065     07D4  2FC6               	goto	l2544
  5066     07D5                     u3500:
  5067     07D5                     l2550:
  5068     07D5  0827               	movf	___lwmod@divisor+1,w
  5069     07D6  0229               	subwf	___lwmod@dividend+1,w
  5070     07D7  1D03               	skipz
  5071     07D8  2FDB               	goto	u3515
  5072     07D9  0826               	movf	___lwmod@divisor,w
  5073     07DA  0228               	subwf	___lwmod@dividend,w
  5074     07DB                     u3515:
  5075     07DB  1C03               	skipc
  5076     07DC  2FDE               	goto	u3511
  5077     07DD  2FDF               	goto	u3510
  5078     07DE                     u3511:
  5079     07DE  2FE5               	goto	l2554
  5080     07DF                     u3510:
  5081     07DF                     l2552:
  5082     07DF  0826               	movf	___lwmod@divisor,w
  5083     07E0  02A8               	subwf	___lwmod@dividend,f
  5084     07E1  0827               	movf	___lwmod@divisor+1,w
  5085     07E2  1C03               	skipc
  5086     07E3  03A9               	decf	___lwmod@dividend+1,f
  5087     07E4  02A9               	subwf	___lwmod@dividend+1,f
  5088     07E5                     l2554:
  5089     07E5  3001               	movlw	1
  5090     07E6                     u3525:
  5091     07E6  1003               	clrc
  5092     07E7  0CA7               	rrf	___lwmod@divisor+1,f
  5093     07E8  0CA6               	rrf	___lwmod@divisor,f
  5094     07E9  3EFF               	addlw	-1
  5095     07EA  1D03               	skipz
  5096     07EB  2FE6               	goto	u3525
  5097     07EC                     l2556:
  5098     07EC  3001               	movlw	1
  5099     07ED  02AB               	subwf	___lwmod@counter,f
  5100     07EE  1D03               	btfss	3,2
  5101     07EF  2FF1               	goto	u3531
  5102     07F0  2FF2               	goto	u3530
  5103     07F1                     u3531:
  5104     07F1  2FD5               	goto	l2550
  5105     07F2                     u3530:
  5106     07F2                     l2558:
  5107     07F2  0829               	movf	___lwmod@dividend+1,w
  5108     07F3  00A7               	movwf	?___lwmod+1
  5109     07F4  0828               	movf	___lwmod@dividend,w
  5110     07F5  00A6               	movwf	?___lwmod
  5111     07F6                     l664:
  5112     07F6  0008               	return
  5113     07F7                     __end_of___lwmod:
  5114                           
  5115                           	psect	text7
  5116     1B59                     __ptext7:	
  5117 ;; *************** function ___lwdiv *****************
  5118 ;; Defined at:
  5119 ;;		line 5 in file "C:\Program Files\Microchip\xc8\v2.40\pic\sources\c90\common\lwdiv.c"
  5120 ;; Parameters:    Size  Location     Type
  5121 ;;  divisor         2   12[BANK0 ] unsigned int 
  5122 ;;  dividend        2   14[BANK0 ] unsigned int 
  5123 ;; Auto vars:     Size  Location     Type
  5124 ;;  quotient        2   17[BANK0 ] unsigned int 
  5125 ;;  counter         1   19[BANK0 ] unsigned char 
  5126 ;; Return value:  Size  Location     Type
  5127 ;;                  2   12[BANK0 ] unsigned int 
  5128 ;; Registers used:
  5129 ;;		wreg, status,2, status,0
  5130 ;; Tracked objects:
  5131 ;;		On entry : 0/0
  5132 ;;		On exit  : 0/0
  5133 ;;		Unchanged: 0/0
  5134 ;; Data sizes:     COMMON   BANK0   BANK1   BANK3   BANK2
  5135 ;;      Params:         0       4       0       0       0
  5136 ;;      Locals:         0       3       0       0       0
  5137 ;;      Temps:          0       1       0       0       0
  5138 ;;      Totals:         0       8       0       0       0
  5139 ;;Total ram usage:        8 bytes
  5140 ;; Hardware stack levels used: 1
  5141 ;; Hardware stack levels required when called: 2
  5142 ;; This function calls:
  5143 ;;		Nothing
  5144 ;; This function is called by:
  5145 ;;		_fround
  5146 ;; This function uses a non-reentrant model
  5147 ;;
  5148                           
  5149     1B59                     ___lwdiv:	
  5150                           ;psect for function ___lwdiv
  5151                           
  5152     1B59                     l2514:	
  5153                           ;incstack = 0
  5154                           ; Regs used in ___lwdiv: [wreg+status,2+status,0]
  5155                           
  5156     1B59  1283               	bcf	3,5	;RP0=0, select bank0
  5157     1B5A  1303               	bcf	3,6	;RP1=0, select bank0
  5158     1B5B  01B1               	clrf	___lwdiv@quotient
  5159     1B5C  01B2               	clrf	___lwdiv@quotient+1
  5160     1B5D                     l2516:
  5161     1B5D  082C               	movf	___lwdiv@divisor,w
  5162     1B5E  042D               	iorwf	___lwdiv@divisor+1,w
  5163     1B5F  1903               	btfsc	3,2
  5164     1B60  2B62               	goto	u3411
  5165     1B61  2B63               	goto	u3410
  5166     1B62                     u3411:
  5167     1B62  2B9A               	goto	l2536
  5168     1B63                     u3410:
  5169     1B63                     l2518:
  5170     1B63  01B3               	clrf	___lwdiv@counter
  5171     1B64  0AB3               	incf	___lwdiv@counter,f
  5172     1B65  2B71               	goto	l2524
  5173     1B66                     l2520:
  5174     1B66  3001               	movlw	1
  5175     1B67                     u3425:
  5176     1B67  1003               	clrc
  5177     1B68  0DAC               	rlf	___lwdiv@divisor,f
  5178     1B69  0DAD               	rlf	___lwdiv@divisor+1,f
  5179     1B6A  3EFF               	addlw	-1
  5180     1B6B  1D03               	skipz
  5181     1B6C  2B67               	goto	u3425
  5182     1B6D                     l2522:
  5183     1B6D  3001               	movlw	1
  5184     1B6E  00B0               	movwf	??___lwdiv
  5185     1B6F  0830               	movf	??___lwdiv,w
  5186     1B70  07B3               	addwf	___lwdiv@counter,f
  5187     1B71                     l2524:
  5188     1B71  1FAD               	btfss	___lwdiv@divisor+1,7
  5189     1B72  2B74               	goto	u3431
  5190     1B73  2B75               	goto	u3430
  5191     1B74                     u3431:
  5192     1B74  2B66               	goto	l2520
  5193     1B75                     u3430:
  5194     1B75                     l2526:
  5195     1B75  3001               	movlw	1
  5196     1B76                     u3445:
  5197     1B76  1003               	clrc
  5198     1B77  0DB1               	rlf	___lwdiv@quotient,f
  5199     1B78  0DB2               	rlf	___lwdiv@quotient+1,f
  5200     1B79  3EFF               	addlw	-1
  5201     1B7A  1D03               	skipz
  5202     1B7B  2B76               	goto	u3445
  5203     1B7C  082D               	movf	___lwdiv@divisor+1,w
  5204     1B7D  022F               	subwf	___lwdiv@dividend+1,w
  5205     1B7E  1D03               	skipz
  5206     1B7F  2B82               	goto	u3455
  5207     1B80  082C               	movf	___lwdiv@divisor,w
  5208     1B81  022E               	subwf	___lwdiv@dividend,w
  5209     1B82                     u3455:
  5210     1B82  1C03               	skipc
  5211     1B83  2B85               	goto	u3451
  5212     1B84  2B86               	goto	u3450
  5213     1B85                     u3451:
  5214     1B85  2B8D               	goto	l2532
  5215     1B86                     u3450:
  5216     1B86                     l2528:
  5217     1B86  082C               	movf	___lwdiv@divisor,w
  5218     1B87  02AE               	subwf	___lwdiv@dividend,f
  5219     1B88  082D               	movf	___lwdiv@divisor+1,w
  5220     1B89  1C03               	skipc
  5221     1B8A  03AF               	decf	___lwdiv@dividend+1,f
  5222     1B8B  02AF               	subwf	___lwdiv@dividend+1,f
  5223     1B8C                     l2530:
  5224     1B8C  1431               	bsf	___lwdiv@quotient,0
  5225     1B8D                     l2532:
  5226     1B8D  3001               	movlw	1
  5227     1B8E                     u3465:
  5228     1B8E  1003               	clrc
  5229     1B8F  0CAD               	rrf	___lwdiv@divisor+1,f
  5230     1B90  0CAC               	rrf	___lwdiv@divisor,f
  5231     1B91  3EFF               	addlw	-1
  5232     1B92  1D03               	skipz
  5233     1B93  2B8E               	goto	u3465
  5234     1B94                     l2534:
  5235     1B94  3001               	movlw	1
  5236     1B95  02B3               	subwf	___lwdiv@counter,f
  5237     1B96  1D03               	btfss	3,2
  5238     1B97  2B99               	goto	u3471
  5239     1B98  2B9A               	goto	u3470
  5240     1B99                     u3471:
  5241     1B99  2B75               	goto	l2526
  5242     1B9A                     u3470:
  5243     1B9A                     l2536:
  5244     1B9A  0832               	movf	___lwdiv@quotient+1,w
  5245     1B9B  00AD               	movwf	?___lwdiv+1
  5246     1B9C  0831               	movf	___lwdiv@quotient,w
  5247     1B9D  00AC               	movwf	?___lwdiv
  5248     1B9E                     l654:
  5249     1B9E  0008               	return
  5250     1B9F                     __end_of___lwdiv:
  5251                           
  5252                           	psect	text8
  5253     0958                     __ptext8:	
  5254 ;; *************** function ___flmul *****************
  5255 ;; Defined at:
  5256 ;;		line 8 in file "C:\Program Files\Microchip\xc8\v2.40\pic\sources\c90\common\sprcmul.c"
  5257 ;; Parameters:    Size  Location     Type
  5258 ;;  b               4   22[BANK0 ] unsigned int 
  5259 ;;  a               4   26[BANK0 ] unsigned int 
  5260 ;; Auto vars:     Size  Location     Type
  5261 ;;  prod            4   42[BANK0 ] struct .
  5262 ;;  grs             4   36[BANK0 ] unsigned long 
  5263 ;;  temp            2   46[BANK0 ] struct .
  5264 ;;  bexp            1   41[BANK0 ] unsigned char 
  5265 ;;  aexp            1   40[BANK0 ] unsigned char 
  5266 ;;  sign            1   35[BANK0 ] unsigned char 
  5267 ;; Return value:  Size  Location     Type
  5268 ;;                  4   22[BANK0 ] unsigned char 
  5269 ;; Registers used:
  5270 ;;		wreg, status,2, status,0, btemp+1, pclath, cstack
  5271 ;; Tracked objects:
  5272 ;;		On entry : 0/0
  5273 ;;		On exit  : 0/0
  5274 ;;		Unchanged: 0/0
  5275 ;; Data sizes:     COMMON   BANK0   BANK1   BANK3   BANK2
  5276 ;;      Params:         0       8       0       0       0
  5277 ;;      Locals:         0      13       0       0       0
  5278 ;;      Temps:          0       5       0       0       0
  5279 ;;      Totals:         0      26       0       0       0
  5280 ;;Total ram usage:       26 bytes
  5281 ;; Hardware stack levels used: 1
  5282 ;; Hardware stack levels required when called: 3
  5283 ;; This function calls:
  5284 ;;		__Umul8_16
  5285 ;; This function is called by:
  5286 ;;		_main
  5287 ;;		_fround
  5288 ;;		_scale
  5289 ;;		_sprintf
  5290 ;; This function uses a non-reentrant model
  5291 ;;
  5292                           
  5293     0958                     ___flmul:	
  5294                           ;psect for function ___flmul
  5295                           
  5296     0958                     l2756:	
  5297                           ;incstack = 0
  5298                           ; Regs used in ___flmul: [wreg+status,2+status,0+btemp+1+pclath+cstack]
  5299                           
  5300     0958  1283               	bcf	3,5	;RP0=0, select bank0
  5301     0959  1303               	bcf	3,6	;RP1=0, select bank0
  5302     095A  0839               	movf	___flmul@b+3,w
  5303     095B  3980               	andlw	128
  5304     095C  00C3               	movwf	___flmul@sign
  5305     095D                     l2758:
  5306     095D  0839               	movf	___flmul@b+3,w
  5307     095E  00BE               	movwf	??___flmul
  5308     095F  073E               	addwf	??___flmul,w
  5309     0960  00C9               	movwf	___flmul@bexp
  5310     0961                     l2760:
  5311     0961  1FB8               	btfss	___flmul@b+2,7
  5312     0962  2964               	goto	u4001
  5313     0963  2965               	goto	u4000
  5314     0964                     u4001:
  5315     0964  2966               	goto	l2764
  5316     0965                     u4000:
  5317     0965                     l2762:
  5318     0965  1449               	bsf	___flmul@bexp,0
  5319     0966                     l2764:
  5320     0966  0849               	movf	___flmul@bexp,w
  5321     0967  1903               	btfsc	3,2
  5322     0968  296A               	goto	u4011
  5323     0969  296B               	goto	u4010
  5324     096A                     u4011:
  5325     096A  297A               	goto	l2772
  5326     096B                     u4010:
  5327     096B                     l2766:
  5328     096B  0A49               	incf	___flmul@bexp,w
  5329     096C  1D03               	btfss	3,2
  5330     096D  296F               	goto	u4021
  5331     096E  2970               	goto	u4020
  5332     096F                     u4021:
  5333     096F  2978               	goto	l2770
  5334     0970                     u4020:
  5335     0970                     l2768:
  5336     0970  3000               	movlw	0
  5337     0971  00B9               	movwf	___flmul@b+3
  5338     0972  3000               	movlw	0
  5339     0973  00B8               	movwf	___flmul@b+2
  5340     0974  3000               	movlw	0
  5341     0975  00B7               	movwf	___flmul@b+1
  5342     0976  3000               	movlw	0
  5343     0977  00B6               	movwf	___flmul@b
  5344     0978                     l2770:
  5345     0978  17B8               	bsf	___flmul@b+2,7
  5346     0979  2982               	goto	l2774
  5347     097A                     l2772:
  5348     097A  3000               	movlw	0
  5349     097B  00B9               	movwf	___flmul@b+3
  5350     097C  3000               	movlw	0
  5351     097D  00B8               	movwf	___flmul@b+2
  5352     097E  3000               	movlw	0
  5353     097F  00B7               	movwf	___flmul@b+1
  5354     0980  3000               	movlw	0
  5355     0981  00B6               	movwf	___flmul@b
  5356     0982                     l2774:
  5357     0982  083D               	movf	___flmul@a+3,w
  5358     0983  3980               	andlw	128
  5359     0984  00BE               	movwf	??___flmul
  5360     0985  083E               	movf	??___flmul,w
  5361     0986  06C3               	xorwf	___flmul@sign,f
  5362     0987                     l2776:
  5363     0987  083D               	movf	___flmul@a+3,w
  5364     0988  00BE               	movwf	??___flmul
  5365     0989  073E               	addwf	??___flmul,w
  5366     098A  00C8               	movwf	___flmul@aexp
  5367     098B                     l2778:
  5368     098B  1FBC               	btfss	___flmul@a+2,7
  5369     098C  298E               	goto	u4031
  5370     098D  298F               	goto	u4030
  5371     098E                     u4031:
  5372     098E  2990               	goto	l2782
  5373     098F                     u4030:
  5374     098F                     l2780:
  5375     098F  1448               	bsf	___flmul@aexp,0
  5376     0990                     l2782:
  5377     0990  0848               	movf	___flmul@aexp,w
  5378     0991  1903               	btfsc	3,2
  5379     0992  2994               	goto	u4041
  5380     0993  2995               	goto	u4040
  5381     0994                     u4041:
  5382     0994  29A4               	goto	l2790
  5383     0995                     u4040:
  5384     0995                     l2784:
  5385     0995  0A48               	incf	___flmul@aexp,w
  5386     0996  1D03               	btfss	3,2
  5387     0997  2999               	goto	u4051
  5388     0998  299A               	goto	u4050
  5389     0999                     u4051:
  5390     0999  29A2               	goto	l2788
  5391     099A                     u4050:
  5392     099A                     l2786:
  5393     099A  3000               	movlw	0
  5394     099B  00BD               	movwf	___flmul@a+3
  5395     099C  3000               	movlw	0
  5396     099D  00BC               	movwf	___flmul@a+2
  5397     099E  3000               	movlw	0
  5398     099F  00BB               	movwf	___flmul@a+1
  5399     09A0  3000               	movlw	0
  5400     09A1  00BA               	movwf	___flmul@a
  5401     09A2                     l2788:
  5402     09A2  17BC               	bsf	___flmul@a+2,7
  5403     09A3  29AC               	goto	l2792
  5404     09A4                     l2790:
  5405     09A4  3000               	movlw	0
  5406     09A5  00BD               	movwf	___flmul@a+3
  5407     09A6  3000               	movlw	0
  5408     09A7  00BC               	movwf	___flmul@a+2
  5409     09A8  3000               	movlw	0
  5410     09A9  00BB               	movwf	___flmul@a+1
  5411     09AA  3000               	movlw	0
  5412     09AB  00BA               	movwf	___flmul@a
  5413     09AC                     l2792:
  5414     09AC  0848               	movf	___flmul@aexp,w
  5415     09AD  1903               	btfsc	3,2
  5416     09AE  29B0               	goto	u4061
  5417     09AF  29B1               	goto	u4060
  5418     09B0                     u4061:
  5419     09B0  29B6               	goto	l2796
  5420     09B1                     u4060:
  5421     09B1                     l2794:
  5422     09B1  0849               	movf	___flmul@bexp,w
  5423     09B2  1D03               	btfss	3,2
  5424     09B3  29B5               	goto	u4071
  5425     09B4  29B6               	goto	u4070
  5426     09B5                     u4071:
  5427     09B5  29BF               	goto	l2800
  5428     09B6                     u4070:
  5429     09B6                     l2796:
  5430     09B6  3000               	movlw	0
  5431     09B7  00B9               	movwf	?___flmul+3
  5432     09B8  3000               	movlw	0
  5433     09B9  00B8               	movwf	?___flmul+2
  5434     09BA  3000               	movlw	0
  5435     09BB  00B7               	movwf	?___flmul+1
  5436     09BC  3000               	movlw	0
  5437     09BD  00B6               	movwf	?___flmul
  5438     09BE  2C9C               	goto	l771
  5439     09BF                     l2800:
  5440     09BF  0836               	movf	___flmul@b,w
  5441     09C0  00A6               	movwf	__Umul8_16@multiplicand
  5442     09C1  083C               	movf	___flmul@a+2,w
  5443     09C2  160A  158A  22F7  120A  158A  	fcall	__Umul8_16
  5444     09C7  1283               	bcf	3,5	;RP0=0, select bank0
  5445     09C8  1303               	bcf	3,6	;RP1=0, select bank0
  5446     09C9  0827               	movf	?__Umul8_16+1,w
  5447     09CA  00CF               	movwf	___flmul@temp+1
  5448     09CB  0826               	movf	?__Umul8_16,w
  5449     09CC  00CE               	movwf	___flmul@temp
  5450     09CD                     l2802:
  5451     09CD  084E               	movf	___flmul@temp,w
  5452     09CE  00BE               	movwf	??___flmul
  5453     09CF  01BF               	clrf	??___flmul+1
  5454     09D0  01C0               	clrf	??___flmul+2
  5455     09D1  01C1               	clrf	??___flmul+3
  5456     09D2  0841               	movf	??___flmul+3,w
  5457     09D3  00C7               	movwf	___flmul@grs+3
  5458     09D4  0840               	movf	??___flmul+2,w
  5459     09D5  00C6               	movwf	___flmul@grs+2
  5460     09D6  083F               	movf	??___flmul+1,w
  5461     09D7  00C5               	movwf	___flmul@grs+1
  5462     09D8  083E               	movf	??___flmul,w
  5463     09D9  00C4               	movwf	___flmul@grs
  5464     09DA                     l2804:
  5465     09DA  084F               	movf	___flmul@temp+1,w
  5466     09DB  00BE               	movwf	??___flmul
  5467     09DC  01BF               	clrf	??___flmul+1
  5468     09DD  01C0               	clrf	??___flmul+2
  5469     09DE  01C1               	clrf	??___flmul+3
  5470     09DF  0841               	movf	??___flmul+3,w
  5471     09E0  00CD               	movwf	___flmul@prod+3
  5472     09E1  0840               	movf	??___flmul+2,w
  5473     09E2  00CC               	movwf	___flmul@prod+2
  5474     09E3  083F               	movf	??___flmul+1,w
  5475     09E4  00CB               	movwf	___flmul@prod+1
  5476     09E5  083E               	movf	??___flmul,w
  5477     09E6  00CA               	movwf	___flmul@prod
  5478     09E7  0837               	movf	___flmul@b+1,w
  5479     09E8  00A6               	movwf	__Umul8_16@multiplicand
  5480     09E9  083B               	movf	___flmul@a+1,w
  5481     09EA  160A  158A  22F7  120A  158A  	fcall	__Umul8_16
  5482     09EF  1283               	bcf	3,5	;RP0=0, select bank0
  5483     09F0  1303               	bcf	3,6	;RP1=0, select bank0
  5484     09F1  0827               	movf	?__Umul8_16+1,w
  5485     09F2  00CF               	movwf	___flmul@temp+1
  5486     09F3  0826               	movf	?__Umul8_16,w
  5487     09F4  00CE               	movwf	___flmul@temp
  5488     09F5                     l2806:
  5489     09F5  084E               	movf	___flmul@temp,w
  5490     09F6  00BE               	movwf	??___flmul
  5491     09F7  01BF               	clrf	??___flmul+1
  5492     09F8  01C0               	clrf	??___flmul+2
  5493     09F9  01C1               	clrf	??___flmul+3
  5494     09FA  083E               	movf	??___flmul,w
  5495     09FB  07C4               	addwf	___flmul@grs,f
  5496     09FC  083F               	movf	??___flmul+1,w
  5497     09FD  1103               	clrz
  5498     09FE  1803               	skipnc
  5499     09FF  3E01               	addlw	1
  5500     0A00  1903               	skipnz
  5501     0A01  2A03               	goto	u4081
  5502     0A02  07C5               	addwf	___flmul@grs+1,f
  5503     0A03                     u4081:
  5504     0A03  0840               	movf	??___flmul+2,w
  5505     0A04  1103               	clrz
  5506     0A05  1803               	skipnc
  5507     0A06  3E01               	addlw	1
  5508     0A07  1903               	skipnz
  5509     0A08  2A0A               	goto	u4082
  5510     0A09  07C6               	addwf	___flmul@grs+2,f
  5511     0A0A                     u4082:
  5512     0A0A  0841               	movf	??___flmul+3,w
  5513     0A0B  1103               	clrz
  5514     0A0C  1803               	skipnc
  5515     0A0D  3E01               	addlw	1
  5516     0A0E  1903               	skipnz
  5517     0A0F  2A11               	goto	u4083
  5518     0A10  07C7               	addwf	___flmul@grs+3,f
  5519     0A11                     u4083:
  5520     0A11                     l2808:
  5521     0A11  084F               	movf	___flmul@temp+1,w
  5522     0A12  00BE               	movwf	??___flmul
  5523     0A13  01BF               	clrf	??___flmul+1
  5524     0A14  01C0               	clrf	??___flmul+2
  5525     0A15  01C1               	clrf	??___flmul+3
  5526     0A16  083E               	movf	??___flmul,w
  5527     0A17  07CA               	addwf	___flmul@prod,f
  5528     0A18  083F               	movf	??___flmul+1,w
  5529     0A19  1103               	clrz
  5530     0A1A  1803               	skipnc
  5531     0A1B  3E01               	addlw	1
  5532     0A1C  1903               	skipnz
  5533     0A1D  2A1F               	goto	u4091
  5534     0A1E  07CB               	addwf	___flmul@prod+1,f
  5535     0A1F                     u4091:
  5536     0A1F  0840               	movf	??___flmul+2,w
  5537     0A20  1103               	clrz
  5538     0A21  1803               	skipnc
  5539     0A22  3E01               	addlw	1
  5540     0A23  1903               	skipnz
  5541     0A24  2A26               	goto	u4092
  5542     0A25  07CC               	addwf	___flmul@prod+2,f
  5543     0A26                     u4092:
  5544     0A26  0841               	movf	??___flmul+3,w
  5545     0A27  1103               	clrz
  5546     0A28  1803               	skipnc
  5547     0A29  3E01               	addlw	1
  5548     0A2A  1903               	skipnz
  5549     0A2B  2A2D               	goto	u4093
  5550     0A2C  07CD               	addwf	___flmul@prod+3,f
  5551     0A2D                     u4093:
  5552     0A2D  0838               	movf	___flmul@b+2,w
  5553     0A2E  00A6               	movwf	__Umul8_16@multiplicand
  5554     0A2F  083A               	movf	___flmul@a,w
  5555     0A30  160A  158A  22F7  120A  158A  	fcall	__Umul8_16
  5556     0A35  1283               	bcf	3,5	;RP0=0, select bank0
  5557     0A36  1303               	bcf	3,6	;RP1=0, select bank0
  5558     0A37  0827               	movf	?__Umul8_16+1,w
  5559     0A38  00CF               	movwf	___flmul@temp+1
  5560     0A39  0826               	movf	?__Umul8_16,w
  5561     0A3A  00CE               	movwf	___flmul@temp
  5562     0A3B                     l2810:
  5563     0A3B  084E               	movf	___flmul@temp,w
  5564     0A3C  00BE               	movwf	??___flmul
  5565     0A3D  01BF               	clrf	??___flmul+1
  5566     0A3E  01C0               	clrf	??___flmul+2
  5567     0A3F  01C1               	clrf	??___flmul+3
  5568     0A40  083E               	movf	??___flmul,w
  5569     0A41  07C4               	addwf	___flmul@grs,f
  5570     0A42  083F               	movf	??___flmul+1,w
  5571     0A43  1103               	clrz
  5572     0A44  1803               	skipnc
  5573     0A45  3E01               	addlw	1
  5574     0A46  1903               	skipnz
  5575     0A47  2A49               	goto	u4101
  5576     0A48  07C5               	addwf	___flmul@grs+1,f
  5577     0A49                     u4101:
  5578     0A49  0840               	movf	??___flmul+2,w
  5579     0A4A  1103               	clrz
  5580     0A4B  1803               	skipnc
  5581     0A4C  3E01               	addlw	1
  5582     0A4D  1903               	skipnz
  5583     0A4E  2A50               	goto	u4102
  5584     0A4F  07C6               	addwf	___flmul@grs+2,f
  5585     0A50                     u4102:
  5586     0A50  0841               	movf	??___flmul+3,w
  5587     0A51  1103               	clrz
  5588     0A52  1803               	skipnc
  5589     0A53  3E01               	addlw	1
  5590     0A54  1903               	skipnz
  5591     0A55  2A57               	goto	u4103
  5592     0A56  07C7               	addwf	___flmul@grs+3,f
  5593     0A57                     u4103:
  5594     0A57                     l2812:
  5595     0A57  084F               	movf	___flmul@temp+1,w
  5596     0A58  00BE               	movwf	??___flmul
  5597     0A59  01BF               	clrf	??___flmul+1
  5598     0A5A  01C0               	clrf	??___flmul+2
  5599     0A5B  01C1               	clrf	??___flmul+3
  5600     0A5C  083E               	movf	??___flmul,w
  5601     0A5D  07CA               	addwf	___flmul@prod,f
  5602     0A5E  083F               	movf	??___flmul+1,w
  5603     0A5F  1103               	clrz
  5604     0A60  1803               	skipnc
  5605     0A61  3E01               	addlw	1
  5606     0A62  1903               	skipnz
  5607     0A63  2A65               	goto	u4111
  5608     0A64  07CB               	addwf	___flmul@prod+1,f
  5609     0A65                     u4111:
  5610     0A65  0840               	movf	??___flmul+2,w
  5611     0A66  1103               	clrz
  5612     0A67  1803               	skipnc
  5613     0A68  3E01               	addlw	1
  5614     0A69  1903               	skipnz
  5615     0A6A  2A6C               	goto	u4112
  5616     0A6B  07CC               	addwf	___flmul@prod+2,f
  5617     0A6C                     u4112:
  5618     0A6C  0841               	movf	??___flmul+3,w
  5619     0A6D  1103               	clrz
  5620     0A6E  1803               	skipnc
  5621     0A6F  3E01               	addlw	1
  5622     0A70  1903               	skipnz
  5623     0A71  2A73               	goto	u4113
  5624     0A72  07CD               	addwf	___flmul@prod+3,f
  5625     0A73                     u4113:
  5626     0A73                     l2814:
  5627     0A73  3008               	movlw	8
  5628     0A74  00BE               	movwf	??___flmul
  5629     0A75                     u4125:
  5630     0A75  1003               	clrc
  5631     0A76  0DC4               	rlf	___flmul@grs,f
  5632     0A77  0DC5               	rlf	___flmul@grs+1,f
  5633     0A78  0DC6               	rlf	___flmul@grs+2,f
  5634     0A79  0DC7               	rlf	___flmul@grs+3,f
  5635     0A7A  0BBE               	decfsz	??___flmul,f
  5636     0A7B  2A75               	goto	u4125
  5637     0A7C                     l2816:
  5638     0A7C  0837               	movf	___flmul@b+1,w
  5639     0A7D  00A6               	movwf	__Umul8_16@multiplicand
  5640     0A7E  083A               	movf	___flmul@a,w
  5641     0A7F  160A  158A  22F7  120A  158A  	fcall	__Umul8_16
  5642     0A84  1283               	bcf	3,5	;RP0=0, select bank0
  5643     0A85  1303               	bcf	3,6	;RP1=0, select bank0
  5644     0A86  0827               	movf	?__Umul8_16+1,w
  5645     0A87  00CF               	movwf	___flmul@temp+1
  5646     0A88  0826               	movf	?__Umul8_16,w
  5647     0A89  00CE               	movwf	___flmul@temp
  5648     0A8A                     l2818:
  5649     0A8A  084E               	movf	___flmul@temp,w
  5650     0A8B  00BE               	movwf	??___flmul
  5651     0A8C  084F               	movf	___flmul@temp+1,w
  5652     0A8D  00BF               	movwf	??___flmul+1
  5653     0A8E  01C0               	clrf	??___flmul+2
  5654     0A8F  01C1               	clrf	??___flmul+3
  5655     0A90  083E               	movf	??___flmul,w
  5656     0A91  07C4               	addwf	___flmul@grs,f
  5657     0A92  083F               	movf	??___flmul+1,w
  5658     0A93  1103               	clrz
  5659     0A94  1803               	skipnc
  5660     0A95  3E01               	addlw	1
  5661     0A96  1903               	skipnz
  5662     0A97  2A99               	goto	u4131
  5663     0A98  07C5               	addwf	___flmul@grs+1,f
  5664     0A99                     u4131:
  5665     0A99  0840               	movf	??___flmul+2,w
  5666     0A9A  1103               	clrz
  5667     0A9B  1803               	skipnc
  5668     0A9C  3E01               	addlw	1
  5669     0A9D  1903               	skipnz
  5670     0A9E  2AA0               	goto	u4132
  5671     0A9F  07C6               	addwf	___flmul@grs+2,f
  5672     0AA0                     u4132:
  5673     0AA0  0841               	movf	??___flmul+3,w
  5674     0AA1  1103               	clrz
  5675     0AA2  1803               	skipnc
  5676     0AA3  3E01               	addlw	1
  5677     0AA4  1903               	skipnz
  5678     0AA5  2AA7               	goto	u4133
  5679     0AA6  07C7               	addwf	___flmul@grs+3,f
  5680     0AA7                     u4133:
  5681     0AA7                     l2820:
  5682     0AA7  0836               	movf	___flmul@b,w
  5683     0AA8  00A6               	movwf	__Umul8_16@multiplicand
  5684     0AA9  083B               	movf	___flmul@a+1,w
  5685     0AAA  160A  158A  22F7  120A  158A  	fcall	__Umul8_16
  5686     0AAF  1283               	bcf	3,5	;RP0=0, select bank0
  5687     0AB0  1303               	bcf	3,6	;RP1=0, select bank0
  5688     0AB1  0827               	movf	?__Umul8_16+1,w
  5689     0AB2  00CF               	movwf	___flmul@temp+1
  5690     0AB3  0826               	movf	?__Umul8_16,w
  5691     0AB4  00CE               	movwf	___flmul@temp
  5692     0AB5                     l2822:
  5693     0AB5  084E               	movf	___flmul@temp,w
  5694     0AB6  00BE               	movwf	??___flmul
  5695     0AB7  084F               	movf	___flmul@temp+1,w
  5696     0AB8  00BF               	movwf	??___flmul+1
  5697     0AB9  01C0               	clrf	??___flmul+2
  5698     0ABA  01C1               	clrf	??___flmul+3
  5699     0ABB  083E               	movf	??___flmul,w
  5700     0ABC  07C4               	addwf	___flmul@grs,f
  5701     0ABD  083F               	movf	??___flmul+1,w
  5702     0ABE  1103               	clrz
  5703     0ABF  1803               	skipnc
  5704     0AC0  3E01               	addlw	1
  5705     0AC1  1903               	skipnz
  5706     0AC2  2AC4               	goto	u4141
  5707     0AC3  07C5               	addwf	___flmul@grs+1,f
  5708     0AC4                     u4141:
  5709     0AC4  0840               	movf	??___flmul+2,w
  5710     0AC5  1103               	clrz
  5711     0AC6  1803               	skipnc
  5712     0AC7  3E01               	addlw	1
  5713     0AC8  1903               	skipnz
  5714     0AC9  2ACB               	goto	u4142
  5715     0ACA  07C6               	addwf	___flmul@grs+2,f
  5716     0ACB                     u4142:
  5717     0ACB  0841               	movf	??___flmul+3,w
  5718     0ACC  1103               	clrz
  5719     0ACD  1803               	skipnc
  5720     0ACE  3E01               	addlw	1
  5721     0ACF  1903               	skipnz
  5722     0AD0  2AD2               	goto	u4143
  5723     0AD1  07C7               	addwf	___flmul@grs+3,f
  5724     0AD2                     u4143:
  5725     0AD2                     l2824:
  5726     0AD2  3008               	movlw	8
  5727     0AD3  00BE               	movwf	??___flmul
  5728     0AD4                     u4155:
  5729     0AD4  1003               	clrc
  5730     0AD5  0DC4               	rlf	___flmul@grs,f
  5731     0AD6  0DC5               	rlf	___flmul@grs+1,f
  5732     0AD7  0DC6               	rlf	___flmul@grs+2,f
  5733     0AD8  0DC7               	rlf	___flmul@grs+3,f
  5734     0AD9  0BBE               	decfsz	??___flmul,f
  5735     0ADA  2AD4               	goto	u4155
  5736     0ADB  0836               	movf	___flmul@b,w
  5737     0ADC  00A6               	movwf	__Umul8_16@multiplicand
  5738     0ADD  083A               	movf	___flmul@a,w
  5739     0ADE  160A  158A  22F7  120A  158A  	fcall	__Umul8_16
  5740     0AE3  1283               	bcf	3,5	;RP0=0, select bank0
  5741     0AE4  1303               	bcf	3,6	;RP1=0, select bank0
  5742     0AE5  0827               	movf	?__Umul8_16+1,w
  5743     0AE6  00CF               	movwf	___flmul@temp+1
  5744     0AE7  0826               	movf	?__Umul8_16,w
  5745     0AE8  00CE               	movwf	___flmul@temp
  5746     0AE9                     l2826:
  5747     0AE9  084E               	movf	___flmul@temp,w
  5748     0AEA  00BE               	movwf	??___flmul
  5749     0AEB  084F               	movf	___flmul@temp+1,w
  5750     0AEC  00BF               	movwf	??___flmul+1
  5751     0AED  01C0               	clrf	??___flmul+2
  5752     0AEE  01C1               	clrf	??___flmul+3
  5753     0AEF  083E               	movf	??___flmul,w
  5754     0AF0  07C4               	addwf	___flmul@grs,f
  5755     0AF1  083F               	movf	??___flmul+1,w
  5756     0AF2  1103               	clrz
  5757     0AF3  1803               	skipnc
  5758     0AF4  3E01               	addlw	1
  5759     0AF5  1903               	skipnz
  5760     0AF6  2AF8               	goto	u4161
  5761     0AF7  07C5               	addwf	___flmul@grs+1,f
  5762     0AF8                     u4161:
  5763     0AF8  0840               	movf	??___flmul+2,w
  5764     0AF9  1103               	clrz
  5765     0AFA  1803               	skipnc
  5766     0AFB  3E01               	addlw	1
  5767     0AFC  1903               	skipnz
  5768     0AFD  2AFF               	goto	u4162
  5769     0AFE  07C6               	addwf	___flmul@grs+2,f
  5770     0AFF                     u4162:
  5771     0AFF  0841               	movf	??___flmul+3,w
  5772     0B00  1103               	clrz
  5773     0B01  1803               	skipnc
  5774     0B02  3E01               	addlw	1
  5775     0B03  1903               	skipnz
  5776     0B04  2B06               	goto	u4163
  5777     0B05  07C7               	addwf	___flmul@grs+3,f
  5778     0B06                     u4163:
  5779     0B06                     l2828:
  5780     0B06  0837               	movf	___flmul@b+1,w
  5781     0B07  00A6               	movwf	__Umul8_16@multiplicand
  5782     0B08  083C               	movf	___flmul@a+2,w
  5783     0B09  160A  158A  22F7  120A  158A  	fcall	__Umul8_16
  5784     0B0E  1283               	bcf	3,5	;RP0=0, select bank0
  5785     0B0F  1303               	bcf	3,6	;RP1=0, select bank0
  5786     0B10  0827               	movf	?__Umul8_16+1,w
  5787     0B11  00CF               	movwf	___flmul@temp+1
  5788     0B12  0826               	movf	?__Umul8_16,w
  5789     0B13  00CE               	movwf	___flmul@temp
  5790     0B14  084E               	movf	___flmul@temp,w
  5791     0B15  00BE               	movwf	??___flmul
  5792     0B16  084F               	movf	___flmul@temp+1,w
  5793     0B17  00BF               	movwf	??___flmul+1
  5794     0B18  01C0               	clrf	??___flmul+2
  5795     0B19  01C1               	clrf	??___flmul+3
  5796     0B1A  083E               	movf	??___flmul,w
  5797     0B1B  07CA               	addwf	___flmul@prod,f
  5798     0B1C  083F               	movf	??___flmul+1,w
  5799     0B1D  1103               	clrz
  5800     0B1E  1803               	skipnc
  5801     0B1F  3E01               	addlw	1
  5802     0B20  1903               	skipnz
  5803     0B21  2B23               	goto	u4171
  5804     0B22  07CB               	addwf	___flmul@prod+1,f
  5805     0B23                     u4171:
  5806     0B23  0840               	movf	??___flmul+2,w
  5807     0B24  1103               	clrz
  5808     0B25  1803               	skipnc
  5809     0B26  3E01               	addlw	1
  5810     0B27  1903               	skipnz
  5811     0B28  2B2A               	goto	u4172
  5812     0B29  07CC               	addwf	___flmul@prod+2,f
  5813     0B2A                     u4172:
  5814     0B2A  0841               	movf	??___flmul+3,w
  5815     0B2B  1103               	clrz
  5816     0B2C  1803               	skipnc
  5817     0B2D  3E01               	addlw	1
  5818     0B2E  1903               	skipnz
  5819     0B2F  2B31               	goto	u4173
  5820     0B30  07CD               	addwf	___flmul@prod+3,f
  5821     0B31                     u4173:
  5822     0B31                     l2830:
  5823     0B31  0838               	movf	___flmul@b+2,w
  5824     0B32  00A6               	movwf	__Umul8_16@multiplicand
  5825     0B33  083B               	movf	___flmul@a+1,w
  5826     0B34  160A  158A  22F7  120A  158A  	fcall	__Umul8_16
  5827     0B39  1283               	bcf	3,5	;RP0=0, select bank0
  5828     0B3A  1303               	bcf	3,6	;RP1=0, select bank0
  5829     0B3B  0827               	movf	?__Umul8_16+1,w
  5830     0B3C  00CF               	movwf	___flmul@temp+1
  5831     0B3D  0826               	movf	?__Umul8_16,w
  5832     0B3E  00CE               	movwf	___flmul@temp
  5833     0B3F                     l2832:
  5834     0B3F  084E               	movf	___flmul@temp,w
  5835     0B40  00BE               	movwf	??___flmul
  5836     0B41  084F               	movf	___flmul@temp+1,w
  5837     0B42  00BF               	movwf	??___flmul+1
  5838     0B43  01C0               	clrf	??___flmul+2
  5839     0B44  01C1               	clrf	??___flmul+3
  5840     0B45  083E               	movf	??___flmul,w
  5841     0B46  07CA               	addwf	___flmul@prod,f
  5842     0B47  083F               	movf	??___flmul+1,w
  5843     0B48  1103               	clrz
  5844     0B49  1803               	skipnc
  5845     0B4A  3E01               	addlw	1
  5846     0B4B  1903               	skipnz
  5847     0B4C  2B4E               	goto	u4181
  5848     0B4D  07CB               	addwf	___flmul@prod+1,f
  5849     0B4E                     u4181:
  5850     0B4E  0840               	movf	??___flmul+2,w
  5851     0B4F  1103               	clrz
  5852     0B50  1803               	skipnc
  5853     0B51  3E01               	addlw	1
  5854     0B52  1903               	skipnz
  5855     0B53  2B55               	goto	u4182
  5856     0B54  07CC               	addwf	___flmul@prod+2,f
  5857     0B55                     u4182:
  5858     0B55  0841               	movf	??___flmul+3,w
  5859     0B56  1103               	clrz
  5860     0B57  1803               	skipnc
  5861     0B58  3E01               	addlw	1
  5862     0B59  1903               	skipnz
  5863     0B5A  2B5C               	goto	u4183
  5864     0B5B  07CD               	addwf	___flmul@prod+3,f
  5865     0B5C                     u4183:
  5866     0B5C  0838               	movf	___flmul@b+2,w
  5867     0B5D  00A6               	movwf	__Umul8_16@multiplicand
  5868     0B5E  083C               	movf	___flmul@a+2,w
  5869     0B5F  160A  158A  22F7  120A  158A  	fcall	__Umul8_16
  5870     0B64  1283               	bcf	3,5	;RP0=0, select bank0
  5871     0B65  1303               	bcf	3,6	;RP1=0, select bank0
  5872     0B66  0827               	movf	?__Umul8_16+1,w
  5873     0B67  00CF               	movwf	___flmul@temp+1
  5874     0B68  0826               	movf	?__Umul8_16,w
  5875     0B69  00CE               	movwf	___flmul@temp
  5876     0B6A                     l2834:
  5877     0B6A  084E               	movf	___flmul@temp,w
  5878     0B6B  00BE               	movwf	??___flmul
  5879     0B6C  084F               	movf	___flmul@temp+1,w
  5880     0B6D  00BF               	movwf	??___flmul+1
  5881     0B6E  01C0               	clrf	??___flmul+2
  5882     0B6F  01C1               	clrf	??___flmul+3
  5883     0B70  3008               	movlw	8
  5884     0B71                     u4195:
  5885     0B71  1003               	clrc
  5886     0B72  0DBE               	rlf	??___flmul,f
  5887     0B73  0DBF               	rlf	??___flmul+1,f
  5888     0B74  0DC0               	rlf	??___flmul+2,f
  5889     0B75  0DC1               	rlf	??___flmul+3,f
  5890     0B76                     u4190:
  5891     0B76  3EFF               	addlw	-1
  5892     0B77  1D03               	skipz
  5893     0B78  2B71               	goto	u4195
  5894     0B79  083E               	movf	??___flmul,w
  5895     0B7A  07CA               	addwf	___flmul@prod,f
  5896     0B7B  083F               	movf	??___flmul+1,w
  5897     0B7C  1103               	clrz
  5898     0B7D  1803               	skipnc
  5899     0B7E  3E01               	addlw	1
  5900     0B7F  1903               	skipnz
  5901     0B80  2B82               	goto	u4201
  5902     0B81  07CB               	addwf	___flmul@prod+1,f
  5903     0B82                     u4201:
  5904     0B82  0840               	movf	??___flmul+2,w
  5905     0B83  1103               	clrz
  5906     0B84  1803               	skipnc
  5907     0B85  3E01               	addlw	1
  5908     0B86  1903               	skipnz
  5909     0B87  2B89               	goto	u4202
  5910     0B88  07CC               	addwf	___flmul@prod+2,f
  5911     0B89                     u4202:
  5912     0B89  0841               	movf	??___flmul+3,w
  5913     0B8A  1103               	clrz
  5914     0B8B  1803               	skipnc
  5915     0B8C  3E01               	addlw	1
  5916     0B8D  1903               	skipnz
  5917     0B8E  2B90               	goto	u4203
  5918     0B8F  07CD               	addwf	___flmul@prod+3,f
  5919     0B90                     u4203:
  5920     0B90                     l2836:
  5921     0B90  0844               	movf	___flmul@grs,w
  5922     0B91  00BE               	movwf	??___flmul
  5923     0B92  0845               	movf	___flmul@grs+1,w
  5924     0B93  00BF               	movwf	??___flmul+1
  5925     0B94  0846               	movf	___flmul@grs+2,w
  5926     0B95  00C0               	movwf	??___flmul+2
  5927     0B96  0847               	movf	___flmul@grs+3,w
  5928     0B97  00C1               	movwf	??___flmul+3
  5929     0B98  3018               	movlw	24
  5930     0B99                     u4215:
  5931     0B99  1003               	clrc
  5932     0B9A  0CC1               	rrf	??___flmul+3,f
  5933     0B9B  0CC0               	rrf	??___flmul+2,f
  5934     0B9C  0CBF               	rrf	??___flmul+1,f
  5935     0B9D  0CBE               	rrf	??___flmul,f
  5936     0B9E                     u4210:
  5937     0B9E  3EFF               	addlw	-1
  5938     0B9F  1D03               	skipz
  5939     0BA0  2B99               	goto	u4215
  5940     0BA1  083E               	movf	??___flmul,w
  5941     0BA2  07CA               	addwf	___flmul@prod,f
  5942     0BA3  083F               	movf	??___flmul+1,w
  5943     0BA4  1103               	clrz
  5944     0BA5  1803               	skipnc
  5945     0BA6  3E01               	addlw	1
  5946     0BA7  1903               	skipnz
  5947     0BA8  2BAA               	goto	u4221
  5948     0BA9  07CB               	addwf	___flmul@prod+1,f
  5949     0BAA                     u4221:
  5950     0BAA  0840               	movf	??___flmul+2,w
  5951     0BAB  1103               	clrz
  5952     0BAC  1803               	skipnc
  5953     0BAD  3E01               	addlw	1
  5954     0BAE  1903               	skipnz
  5955     0BAF  2BB1               	goto	u4222
  5956     0BB0  07CC               	addwf	___flmul@prod+2,f
  5957     0BB1                     u4222:
  5958     0BB1  0841               	movf	??___flmul+3,w
  5959     0BB2  1103               	clrz
  5960     0BB3  1803               	skipnc
  5961     0BB4  3E01               	addlw	1
  5962     0BB5  1903               	skipnz
  5963     0BB6  2BB8               	goto	u4223
  5964     0BB7  07CD               	addwf	___flmul@prod+3,f
  5965     0BB8                     u4223:
  5966     0BB8                     l2838:
  5967     0BB8  3008               	movlw	8
  5968     0BB9  00BE               	movwf	??___flmul
  5969     0BBA                     u4235:
  5970     0BBA  1003               	clrc
  5971     0BBB  0DC4               	rlf	___flmul@grs,f
  5972     0BBC  0DC5               	rlf	___flmul@grs+1,f
  5973     0BBD  0DC6               	rlf	___flmul@grs+2,f
  5974     0BBE  0DC7               	rlf	___flmul@grs+3,f
  5975     0BBF  0BBE               	decfsz	??___flmul,f
  5976     0BC0  2BBA               	goto	u4235
  5977     0BC1                     l2840:
  5978     0BC1  0849               	movf	___flmul@bexp,w
  5979     0BC2  0748               	addwf	___flmul@aexp,w
  5980     0BC3  00BE               	movwf	??___flmul
  5981     0BC4  01BF               	clrf	??___flmul+1
  5982     0BC5  0DBF               	rlf	??___flmul+1,f
  5983     0BC6  083E               	movf	??___flmul,w
  5984     0BC7  3E82               	addlw	130
  5985     0BC8  00CE               	movwf	___flmul@temp
  5986     0BC9  083F               	movf	??___flmul+1,w
  5987     0BCA  1803               	skipnc
  5988     0BCB  3E01               	addlw	1
  5989     0BCC  3EFF               	addlw	255
  5990     0BCD  00CF               	movwf	___flmul@temp+1
  5991     0BCE  2BEC               	goto	l2852
  5992     0BCF                     l2842:
  5993     0BCF  3001               	movlw	1
  5994     0BD0  00BE               	movwf	??___flmul
  5995     0BD1                     u4245:
  5996     0BD1  1003               	clrc
  5997     0BD2  0DCA               	rlf	___flmul@prod,f
  5998     0BD3  0DCB               	rlf	___flmul@prod+1,f
  5999     0BD4  0DCC               	rlf	___flmul@prod+2,f
  6000     0BD5  0DCD               	rlf	___flmul@prod+3,f
  6001     0BD6  0BBE               	decfsz	??___flmul,f
  6002     0BD7  2BD1               	goto	u4245
  6003     0BD8                     l2844:
  6004     0BD8  1FC7               	btfss	___flmul@grs+3,7
  6005     0BD9  2BDB               	goto	u4251
  6006     0BDA  2BDC               	goto	u4250
  6007     0BDB                     u4251:
  6008     0BDB  2BDD               	goto	l2848
  6009     0BDC                     u4250:
  6010     0BDC                     l2846:
  6011     0BDC  144A               	bsf	___flmul@prod,0
  6012     0BDD                     l2848:
  6013     0BDD  3001               	movlw	1
  6014     0BDE  00BE               	movwf	??___flmul
  6015     0BDF                     u4265:
  6016     0BDF  1003               	clrc
  6017     0BE0  0DC4               	rlf	___flmul@grs,f
  6018     0BE1  0DC5               	rlf	___flmul@grs+1,f
  6019     0BE2  0DC6               	rlf	___flmul@grs+2,f
  6020     0BE3  0DC7               	rlf	___flmul@grs+3,f
  6021     0BE4  0BBE               	decfsz	??___flmul,f
  6022     0BE5  2BDF               	goto	u4265
  6023     0BE6                     l2850:
  6024     0BE6  30FF               	movlw	255
  6025     0BE7  07CE               	addwf	___flmul@temp,f
  6026     0BE8  1803               	skipnc
  6027     0BE9  0ACF               	incf	___flmul@temp+1,f
  6028     0BEA  30FF               	movlw	255
  6029     0BEB  07CF               	addwf	___flmul@temp+1,f
  6030     0BEC                     l2852:
  6031     0BEC  1FCC               	btfss	___flmul@prod+2,7
  6032     0BED  2BEF               	goto	u4271
  6033     0BEE  2BF0               	goto	u4270
  6034     0BEF                     u4271:
  6035     0BEF  2BCF               	goto	l2842
  6036     0BF0                     u4270:
  6037     0BF0                     l2854:
  6038     0BF0  01C8               	clrf	___flmul@aexp
  6039     0BF1                     l2856:
  6040     0BF1  1FC7               	btfss	___flmul@grs+3,7
  6041     0BF2  2BF4               	goto	u4281
  6042     0BF3  2BF5               	goto	u4280
  6043     0BF4                     u4281:
  6044     0BF4  2C11               	goto	l2864
  6045     0BF5                     u4280:
  6046     0BF5                     l2858:
  6047     0BF5  30FF               	movlw	255
  6048     0BF6  0544               	andwf	___flmul@grs,w
  6049     0BF7  00BE               	movwf	??___flmul
  6050     0BF8  30FF               	movlw	255
  6051     0BF9  0545               	andwf	___flmul@grs+1,w
  6052     0BFA  00BF               	movwf	??___flmul+1
  6053     0BFB  30FF               	movlw	255
  6054     0BFC  0546               	andwf	___flmul@grs+2,w
  6055     0BFD  00C0               	movwf	??___flmul+2
  6056     0BFE  307F               	movlw	127
  6057     0BFF  0547               	andwf	___flmul@grs+3,w
  6058     0C00  00C1               	movwf	??___flmul+3
  6059     0C01  0841               	movf	??___flmul+3,w
  6060     0C02  0440               	iorwf	??___flmul+2,w
  6061     0C03  043F               	iorwf	??___flmul+1,w
  6062     0C04  043E               	iorwf	??___flmul,w
  6063     0C05  1903               	skipnz
  6064     0C06  2C08               	goto	u4291
  6065     0C07  2C09               	goto	u4290
  6066     0C08                     u4291:
  6067     0C08  2C0C               	goto	l777
  6068     0C09                     u4290:
  6069     0C09                     l2860:
  6070     0C09  01C8               	clrf	___flmul@aexp
  6071     0C0A  0AC8               	incf	___flmul@aexp,f
  6072     0C0B  2C11               	goto	l2864
  6073     0C0C                     l777:
  6074     0C0C  1C4A               	btfss	___flmul@prod,0
  6075     0C0D  2C0F               	goto	u4301
  6076     0C0E  2C10               	goto	u4300
  6077     0C0F                     u4301:
  6078     0C0F  2C11               	goto	l2864
  6079     0C10                     u4300:
  6080     0C10  2C09               	goto	l2860
  6081     0C11                     l2864:
  6082     0C11  0848               	movf	___flmul@aexp,w
  6083     0C12  1903               	btfsc	3,2
  6084     0C13  2C15               	goto	u4311
  6085     0C14  2C16               	goto	u4310
  6086     0C15                     u4311:
  6087     0C15  2C47               	goto	l2874
  6088     0C16                     u4310:
  6089     0C16                     l2866:
  6090     0C16  3001               	movlw	1
  6091     0C17  07CA               	addwf	___flmul@prod,f
  6092     0C18  3000               	movlw	0
  6093     0C19  1803               	skipnc
  6094     0C1A  3001               	movlw	1
  6095     0C1B  07CB               	addwf	___flmul@prod+1,f
  6096     0C1C  3000               	movlw	0
  6097     0C1D  1803               	skipnc
  6098     0C1E  3001               	movlw	1
  6099     0C1F  07CC               	addwf	___flmul@prod+2,f
  6100     0C20  3000               	movlw	0
  6101     0C21  1803               	skipnc
  6102     0C22  3001               	movlw	1
  6103     0C23  07CD               	addwf	___flmul@prod+3,f
  6104     0C24                     l2868:
  6105     0C24  1C4D               	btfss	___flmul@prod+3,0
  6106     0C25  2C27               	goto	u4321
  6107     0C26  2C28               	goto	u4320
  6108     0C27                     u4321:
  6109     0C27  2C47               	goto	l2874
  6110     0C28                     u4320:
  6111     0C28                     l2870:
  6112     0C28  084A               	movf	___flmul@prod,w
  6113     0C29  00BE               	movwf	??___flmul
  6114     0C2A  084B               	movf	___flmul@prod+1,w
  6115     0C2B  00BF               	movwf	??___flmul+1
  6116     0C2C  084C               	movf	___flmul@prod+2,w
  6117     0C2D  00C0               	movwf	??___flmul+2
  6118     0C2E  084D               	movf	___flmul@prod+3,w
  6119     0C2F  00C1               	movwf	??___flmul+3
  6120     0C30  3001               	movlw	1
  6121     0C31  00C2               	movwf	??___flmul+4
  6122     0C32                     u4335:
  6123     0C32  0D41               	rlf	??___flmul+3,w
  6124     0C33  0CC1               	rrf	??___flmul+3,f
  6125     0C34  0CC0               	rrf	??___flmul+2,f
  6126     0C35  0CBF               	rrf	??___flmul+1,f
  6127     0C36  0CBE               	rrf	??___flmul,f
  6128     0C37                     u4330:
  6129     0C37  0BC2               	decfsz	??___flmul+4,f
  6130     0C38  2C32               	goto	u4335
  6131     0C39  0841               	movf	??___flmul+3,w
  6132     0C3A  00CD               	movwf	___flmul@prod+3
  6133     0C3B  0840               	movf	??___flmul+2,w
  6134     0C3C  00CC               	movwf	___flmul@prod+2
  6135     0C3D  083F               	movf	??___flmul+1,w
  6136     0C3E  00CB               	movwf	___flmul@prod+1
  6137     0C3F  083E               	movf	??___flmul,w
  6138     0C40  00CA               	movwf	___flmul@prod
  6139     0C41                     l2872:
  6140     0C41  3001               	movlw	1
  6141     0C42  07CE               	addwf	___flmul@temp,f
  6142     0C43  1803               	skipnc
  6143     0C44  0ACF               	incf	___flmul@temp+1,f
  6144     0C45  3000               	movlw	0
  6145     0C46  07CF               	addwf	___flmul@temp+1,f
  6146     0C47                     l2874:
  6147     0C47  084F               	movf	___flmul@temp+1,w
  6148     0C48  3A80               	xorlw	128
  6149     0C49  00FF               	movwf	btemp+1
  6150     0C4A  3080               	movlw	128
  6151     0C4B  027F               	subwf	btemp+1,w
  6152     0C4C  1D03               	skipz
  6153     0C4D  2C50               	goto	u4345
  6154     0C4E  30FF               	movlw	255
  6155     0C4F  024E               	subwf	___flmul@temp,w
  6156     0C50                     u4345:
  6157     0C50  1C03               	skipc
  6158     0C51  2C53               	goto	u4341
  6159     0C52  2C54               	goto	u4340
  6160     0C53                     u4341:
  6161     0C53  2C5F               	goto	l2878
  6162     0C54                     u4340:
  6163     0C54                     l2876:
  6164     0C54  307F               	movlw	127
  6165     0C55  1283               	bcf	3,5	;RP0=0, select bank0
  6166     0C56  1303               	bcf	3,6	;RP1=0, select bank0
  6167     0C57  00CD               	movwf	___flmul@prod+3
  6168     0C58  3080               	movlw	128
  6169     0C59  00CC               	movwf	___flmul@prod+2
  6170     0C5A  3000               	movlw	0
  6171     0C5B  00CB               	movwf	___flmul@prod+1
  6172     0C5C  3000               	movlw	0
  6173     0C5D  00CA               	movwf	___flmul@prod
  6174     0C5E  2C90               	goto	l783
  6175     0C5F                     l2878:
  6176     0C5F  1283               	bcf	3,5	;RP0=0, select bank0
  6177     0C60  1303               	bcf	3,6	;RP1=0, select bank0
  6178     0C61  084F               	movf	___flmul@temp+1,w
  6179     0C62  3A80               	xorlw	128
  6180     0C63  00FF               	movwf	btemp+1
  6181     0C64  3080               	movlw	128
  6182     0C65  027F               	subwf	btemp+1,w
  6183     0C66  1D03               	skipz
  6184     0C67  2C6A               	goto	u4355
  6185     0C68  3001               	movlw	1
  6186     0C69  024E               	subwf	___flmul@temp,w
  6187     0C6A                     u4355:
  6188     0C6A  1803               	skipnc
  6189     0C6B  2C6D               	goto	u4351
  6190     0C6C  2C6E               	goto	u4350
  6191     0C6D                     u4351:
  6192     0C6D  2C7A               	goto	l2884
  6193     0C6E                     u4350:
  6194     0C6E                     l2880:
  6195     0C6E  3000               	movlw	0
  6196     0C6F  1283               	bcf	3,5	;RP0=0, select bank0
  6197     0C70  1303               	bcf	3,6	;RP1=0, select bank0
  6198     0C71  00CD               	movwf	___flmul@prod+3
  6199     0C72  3000               	movlw	0
  6200     0C73  00CC               	movwf	___flmul@prod+2
  6201     0C74  3000               	movlw	0
  6202     0C75  00CB               	movwf	___flmul@prod+1
  6203     0C76  3000               	movlw	0
  6204     0C77  00CA               	movwf	___flmul@prod
  6205     0C78                     l2882:
  6206     0C78  01C3               	clrf	___flmul@sign
  6207     0C79  2C90               	goto	l783
  6208     0C7A                     l2884:
  6209     0C7A  1283               	bcf	3,5	;RP0=0, select bank0
  6210     0C7B  1303               	bcf	3,6	;RP1=0, select bank0
  6211     0C7C  084E               	movf	___flmul@temp,w
  6212     0C7D  00C9               	movwf	___flmul@bexp
  6213     0C7E  30FF               	movlw	255
  6214     0C7F  05CA               	andwf	___flmul@prod,f
  6215     0C80  30FF               	movlw	255
  6216     0C81  05CB               	andwf	___flmul@prod+1,f
  6217     0C82  307F               	movlw	127
  6218     0C83  05CC               	andwf	___flmul@prod+2,f
  6219     0C84  3000               	movlw	0
  6220     0C85  05CD               	andwf	___flmul@prod+3,f
  6221     0C86                     l2886:
  6222     0C86  1C49               	btfss	___flmul@bexp,0
  6223     0C87  2C89               	goto	u4361
  6224     0C88  2C8A               	goto	u4360
  6225     0C89                     u4361:
  6226     0C89  2C8B               	goto	l2890
  6227     0C8A                     u4360:
  6228     0C8A                     l2888:
  6229     0C8A  17CC               	bsf	___flmul@prod+2,7
  6230     0C8B                     l2890:
  6231     0C8B  0849               	movf	___flmul@bexp,w
  6232     0C8C  00BE               	movwf	??___flmul
  6233     0C8D  1003               	clrc
  6234     0C8E  0C3E               	rrf	??___flmul,w
  6235     0C8F  00CD               	movwf	___flmul@prod+3
  6236     0C90                     l783:
  6237     0C90  0843               	movf	___flmul@sign,w
  6238     0C91  00BE               	movwf	??___flmul
  6239     0C92  083E               	movf	??___flmul,w
  6240     0C93  04CD               	iorwf	___flmul@prod+3,f
  6241     0C94                     l2892:
  6242     0C94  084D               	movf	___flmul@prod+3,w
  6243     0C95  00B9               	movwf	?___flmul+3
  6244     0C96  084C               	movf	___flmul@prod+2,w
  6245     0C97  00B8               	movwf	?___flmul+2
  6246     0C98  084B               	movf	___flmul@prod+1,w
  6247     0C99  00B7               	movwf	?___flmul+1
  6248     0C9A  084A               	movf	___flmul@prod,w
  6249     0C9B  00B6               	movwf	?___flmul
  6250     0C9C                     l771:
  6251     0C9C  0008               	return
  6252     0C9D                     __end_of___flmul:
  6253                           
  6254                           	psect	text9
  6255     1AF7                     __ptext9:	
  6256 ;; *************** function __Umul8_16 *****************
  6257 ;; Defined at:
  6258 ;;		line 4 in file "C:\Program Files\Microchip\xc8\v2.40\pic\sources\c90\common\Umul8_16.c"
  6259 ;; Parameters:    Size  Location     Type
  6260 ;;  multiplier      1    wreg     unsigned char 
  6261 ;;  multiplicand    1    6[BANK0 ] unsigned char 
  6262 ;; Auto vars:     Size  Location     Type
  6263 ;;  multiplier      1   14[BANK0 ] unsigned char 
  6264 ;;  word_mpld       2   12[BANK0 ] unsigned int 
  6265 ;;  product         2   10[BANK0 ] unsigned int 
  6266 ;; Return value:  Size  Location     Type
  6267 ;;                  2    6[BANK0 ] unsigned int 
  6268 ;; Registers used:
  6269 ;;		wreg, status,2, status,0
  6270 ;; Tracked objects:
  6271 ;;		On entry : 0/0
  6272 ;;		On exit  : 0/0
  6273 ;;		Unchanged: 0/0
  6274 ;; Data sizes:     COMMON   BANK0   BANK1   BANK3   BANK2
  6275 ;;      Params:         0       2       0       0       0
  6276 ;;      Locals:         0       5       0       0       0
  6277 ;;      Temps:          0       2       0       0       0
  6278 ;;      Totals:         0       9       0       0       0
  6279 ;;Total ram usage:        9 bytes
  6280 ;; Hardware stack levels used: 1
  6281 ;; Hardware stack levels required when called: 2
  6282 ;; This function calls:
  6283 ;;		Nothing
  6284 ;; This function is called by:
  6285 ;;		___flmul
  6286 ;; This function uses a non-reentrant model
  6287 ;;
  6288                           
  6289     1AF7                     __Umul8_16:	
  6290                           ;psect for function __Umul8_16
  6291                           
  6292                           
  6293                           ;incstack = 0
  6294                           ; Regs used in __Umul8_16: [wreg+status,2+status,0]
  6295                           ;__Umul8_16@multiplier stored from wreg
  6296     1AF7  1283               	bcf	3,5	;RP0=0, select bank0
  6297     1AF8  1303               	bcf	3,6	;RP1=0, select bank0
  6298     1AF9  00AE               	movwf	__Umul8_16@multiplier
  6299     1AFA                     l2412:
  6300     1AFA  01AA               	clrf	__Umul8_16@product
  6301     1AFB  01AB               	clrf	__Umul8_16@product+1
  6302     1AFC                     l2414:
  6303     1AFC  0826               	movf	__Umul8_16@multiplicand,w
  6304     1AFD  00A8               	movwf	??__Umul8_16
  6305     1AFE  01A9               	clrf	??__Umul8_16+1
  6306     1AFF  0828               	movf	??__Umul8_16,w
  6307     1B00  00AC               	movwf	__Umul8_16@word_mpld
  6308     1B01  0829               	movf	??__Umul8_16+1,w
  6309     1B02  00AD               	movwf	__Umul8_16@word_mpld+1
  6310     1B03                     l2416:
  6311     1B03  1C2E               	btfss	__Umul8_16@multiplier,0
  6312     1B04  2B06               	goto	u3191
  6313     1B05  2B07               	goto	u3190
  6314     1B06                     u3191:
  6315     1B06  2B0D               	goto	l790
  6316     1B07                     u3190:
  6317     1B07                     l2418:
  6318     1B07  082C               	movf	__Umul8_16@word_mpld,w
  6319     1B08  07AA               	addwf	__Umul8_16@product,f
  6320     1B09  1803               	skipnc
  6321     1B0A  0AAB               	incf	__Umul8_16@product+1,f
  6322     1B0B  082D               	movf	__Umul8_16@word_mpld+1,w
  6323     1B0C  07AB               	addwf	__Umul8_16@product+1,f
  6324     1B0D                     l790:
  6325     1B0D  3001               	movlw	1
  6326     1B0E                     u3205:
  6327     1B0E  1003               	clrc
  6328     1B0F  0DAC               	rlf	__Umul8_16@word_mpld,f
  6329     1B10  0DAD               	rlf	__Umul8_16@word_mpld+1,f
  6330     1B11  3EFF               	addlw	-1
  6331     1B12  1D03               	skipz
  6332     1B13  2B0E               	goto	u3205
  6333     1B14  1003               	clrc
  6334     1B15  0CAE               	rrf	__Umul8_16@multiplier,f
  6335     1B16                     l2420:
  6336     1B16  082E               	movf	__Umul8_16@multiplier,w
  6337     1B17  1D03               	btfss	3,2
  6338     1B18  2B1A               	goto	u3211
  6339     1B19  2B1B               	goto	u3210
  6340     1B1A                     u3211:
  6341     1B1A  2B03               	goto	l2416
  6342     1B1B                     u3210:
  6343     1B1B                     l2422:
  6344     1B1B  082B               	movf	__Umul8_16@product+1,w
  6345     1B1C  00A7               	movwf	?__Umul8_16+1
  6346     1B1D  082A               	movf	__Umul8_16@product,w
  6347     1B1E  00A6               	movwf	?__Umul8_16
  6348     1B1F                     l792:
  6349     1B1F  0008               	return
  6350     1B20                     __end_of__Umul8_16:
  6351                           
  6352                           	psect	text10
  6353     1E91                     __ptext10:	
  6354 ;; *************** function __tdiv_to_l_ *****************
  6355 ;; Defined at:
  6356 ;;		line 60 in file "C:\Program Files\Microchip\xc8\v2.40\pic\sources\c90\common\ftdivl.c"
  6357 ;; Parameters:    Size  Location     Type
  6358 ;;  f1              4    6[BANK0 ] float 
  6359 ;;  f2              4   10[BANK0 ] float 
  6360 ;; Auto vars:     Size  Location     Type
  6361 ;;  quot            4   17[BANK0 ] unsigned long 
  6362 ;;  exp1            1   22[BANK0 ] unsigned char 
  6363 ;;  cntr            1   21[BANK0 ] unsigned char 
  6364 ;; Return value:  Size  Location     Type
  6365 ;;                  4    6[BANK0 ] unsigned long 
  6366 ;; Registers used:
  6367 ;;		wreg, status,2, status,0
  6368 ;; Tracked objects:
  6369 ;;		On entry : 0/0
  6370 ;;		On exit  : 0/0
  6371 ;;		Unchanged: 0/0
  6372 ;; Data sizes:     COMMON   BANK0   BANK1   BANK3   BANK2
  6373 ;;      Params:         0       8       0       0       0
  6374 ;;      Locals:         0       6       0       0       0
  6375 ;;      Temps:          0       3       0       0       0
  6376 ;;      Totals:         0      17       0       0       0
  6377 ;;Total ram usage:       17 bytes
  6378 ;; Hardware stack levels used: 1
  6379 ;; Hardware stack levels required when called: 2
  6380 ;; This function calls:
  6381 ;;		Nothing
  6382 ;; This function is called by:
  6383 ;;		_sprintf
  6384 ;; This function uses a non-reentrant model
  6385 ;;
  6386                           
  6387     1E91                     __tdiv_to_l_:	
  6388                           ;psect for function __tdiv_to_l_
  6389                           
  6390     1E91                     l2966:	
  6391                           ;incstack = 0
  6392                           ; Regs used in __tdiv_to_l_: [wreg+status,2+status,0]
  6393                           
  6394     1E91  1283               	bcf	3,5	;RP0=0, select bank0
  6395     1E92  1303               	bcf	3,6	;RP1=0, select bank0
  6396     1E93  0826               	movf	__tdiv_to_l_@f1,w
  6397     1E94  00AE               	movwf	??__tdiv_to_l_
  6398     1E95  0827               	movf	__tdiv_to_l_@f1+1,w
  6399     1E96  00AF               	movwf	??__tdiv_to_l_+1
  6400     1E97  0828               	movf	__tdiv_to_l_@f1+2,w
  6401     1E98  00B0               	movwf	??__tdiv_to_l_+2
  6402     1E99  1003               	clrc
  6403     1E9A  0D2F               	rlf	??__tdiv_to_l_+1,w
  6404     1E9B  0D30               	rlf	??__tdiv_to_l_+2,w
  6405     1E9C  00B6               	movwf	__tdiv_to_l_@exp1
  6406     1E9D  0836               	movf	__tdiv_to_l_@exp1,w
  6407     1E9E  1D03               	btfss	3,2
  6408     1E9F  2EA1               	goto	u4621
  6409     1EA0  2EA2               	goto	u4620
  6410     1EA1                     u4621:
  6411     1EA1  2EAB               	goto	l2972
  6412     1EA2                     u4620:
  6413     1EA2                     l2968:
  6414     1EA2  3000               	movlw	0
  6415     1EA3  00A9               	movwf	?__tdiv_to_l_+3
  6416     1EA4  3000               	movlw	0
  6417     1EA5  00A8               	movwf	?__tdiv_to_l_+2
  6418     1EA6  3000               	movlw	0
  6419     1EA7  00A7               	movwf	?__tdiv_to_l_+1
  6420     1EA8  3000               	movlw	0
  6421     1EA9  00A6               	movwf	?__tdiv_to_l_
  6422     1EAA  2F47               	goto	l565
  6423     1EAB                     l2972:
  6424     1EAB  082A               	movf	__tdiv_to_l_@f2,w
  6425     1EAC  00AE               	movwf	??__tdiv_to_l_
  6426     1EAD  082B               	movf	__tdiv_to_l_@f2+1,w
  6427     1EAE  00AF               	movwf	??__tdiv_to_l_+1
  6428     1EAF  082C               	movf	__tdiv_to_l_@f2+2,w
  6429     1EB0  00B0               	movwf	??__tdiv_to_l_+2
  6430     1EB1  1003               	clrc
  6431     1EB2  0D2F               	rlf	??__tdiv_to_l_+1,w
  6432     1EB3  0D30               	rlf	??__tdiv_to_l_+2,w
  6433     1EB4  00B5               	movwf	__tdiv_to_l_@cntr
  6434     1EB5  0835               	movf	__tdiv_to_l_@cntr,w
  6435     1EB6  1D03               	btfss	3,2
  6436     1EB7  2EB9               	goto	u4631
  6437     1EB8  2EBA               	goto	u4630
  6438     1EB9                     u4631:
  6439     1EB9  2EBB               	goto	l566
  6440     1EBA                     u4630:
  6441     1EBA  2EA2               	goto	l2968
  6442     1EBB                     l566:
  6443     1EBB  17A7               	bsf	__tdiv_to_l_@f1+1,7
  6444     1EBC                     l2978:
  6445     1EBC  30FF               	movlw	255
  6446     1EBD  05A6               	andwf	__tdiv_to_l_@f1,f
  6447     1EBE  30FF               	movlw	255
  6448     1EBF  05A7               	andwf	__tdiv_to_l_@f1+1,f
  6449     1EC0  3000               	movlw	0
  6450     1EC1  05A8               	andwf	__tdiv_to_l_@f1+2,f
  6451     1EC2                     l2980:
  6452     1EC2  17AB               	bsf	__tdiv_to_l_@f2+1,7
  6453     1EC3  30FF               	movlw	255
  6454     1EC4  05AA               	andwf	__tdiv_to_l_@f2,f
  6455     1EC5  30FF               	movlw	255
  6456     1EC6  05AB               	andwf	__tdiv_to_l_@f2+1,f
  6457     1EC7  3000               	movlw	0
  6458     1EC8  05AC               	andwf	__tdiv_to_l_@f2+2,f
  6459     1EC9  3000               	movlw	0
  6460     1ECA  00B4               	movwf	__tdiv_to_l_@quot+3
  6461     1ECB  3000               	movlw	0
  6462     1ECC  00B3               	movwf	__tdiv_to_l_@quot+2
  6463     1ECD  3000               	movlw	0
  6464     1ECE  00B2               	movwf	__tdiv_to_l_@quot+1
  6465     1ECF  3000               	movlw	0
  6466     1ED0  00B1               	movwf	__tdiv_to_l_@quot
  6467     1ED1                     l2982:
  6468     1ED1  307F               	movlw	127
  6469     1ED2  02B6               	subwf	__tdiv_to_l_@exp1,f
  6470     1ED3                     l2984:
  6471     1ED3  3098               	movlw	152
  6472     1ED4  0735               	addwf	__tdiv_to_l_@cntr,w
  6473     1ED5  00AE               	movwf	??__tdiv_to_l_
  6474     1ED6  082E               	movf	??__tdiv_to_l_,w
  6475     1ED7  02B6               	subwf	__tdiv_to_l_@exp1,f
  6476     1ED8  3018               	movlw	24
  6477     1ED9  00B5               	movwf	__tdiv_to_l_@cntr
  6478     1EDA                     l2986:
  6479     1EDA  3001               	movlw	1
  6480     1EDB  00AE               	movwf	??__tdiv_to_l_
  6481     1EDC                     u4645:
  6482     1EDC  1003               	clrc
  6483     1EDD  0DB1               	rlf	__tdiv_to_l_@quot,f
  6484     1EDE  0DB2               	rlf	__tdiv_to_l_@quot+1,f
  6485     1EDF  0DB3               	rlf	__tdiv_to_l_@quot+2,f
  6486     1EE0  0DB4               	rlf	__tdiv_to_l_@quot+3,f
  6487     1EE1  0BAE               	decfsz	??__tdiv_to_l_,f
  6488     1EE2  2EDC               	goto	u4645
  6489     1EE3                     l2988:
  6490     1EE3  082C               	movf	__tdiv_to_l_@f2+2,w
  6491     1EE4  0228               	subwf	__tdiv_to_l_@f1+2,w
  6492     1EE5  1D03               	skipz
  6493     1EE6  2EED               	goto	u4655
  6494     1EE7  082B               	movf	__tdiv_to_l_@f2+1,w
  6495     1EE8  0227               	subwf	__tdiv_to_l_@f1+1,w
  6496     1EE9  1D03               	skipz
  6497     1EEA  2EED               	goto	u4655
  6498     1EEB  082A               	movf	__tdiv_to_l_@f2,w
  6499     1EEC  0226               	subwf	__tdiv_to_l_@f1,w
  6500     1EED                     u4655:
  6501     1EED  1C03               	skipc
  6502     1EEE  2EF0               	goto	u4651
  6503     1EEF  2EF1               	goto	u4650
  6504     1EF0                     u4651:
  6505     1EF0  2EFC               	goto	l2994
  6506     1EF1                     u4650:
  6507     1EF1                     l2990:
  6508     1EF1  082A               	movf	__tdiv_to_l_@f2,w
  6509     1EF2  02A6               	subwf	__tdiv_to_l_@f1,f
  6510     1EF3  082B               	movf	__tdiv_to_l_@f2+1,w
  6511     1EF4  1C03               	skipc
  6512     1EF5  0F2B               	incfsz	__tdiv_to_l_@f2+1,w
  6513     1EF6  02A7               	subwf	__tdiv_to_l_@f1+1,f
  6514     1EF7  082C               	movf	__tdiv_to_l_@f2+2,w
  6515     1EF8  1C03               	skipc
  6516     1EF9  0A2C               	incf	__tdiv_to_l_@f2+2,w
  6517     1EFA  02A8               	subwf	__tdiv_to_l_@f1+2,f
  6518     1EFB                     l2992:
  6519     1EFB  1431               	bsf	__tdiv_to_l_@quot,0
  6520     1EFC                     l2994:
  6521     1EFC  3001               	movlw	1
  6522     1EFD                     u4665:
  6523     1EFD  1003               	clrc
  6524     1EFE  0DA6               	rlf	__tdiv_to_l_@f1,f
  6525     1EFF  0DA7               	rlf	__tdiv_to_l_@f1+1,f
  6526     1F00  0DA8               	rlf	__tdiv_to_l_@f1+2,f
  6527     1F01  3EFF               	addlw	-1
  6528     1F02  1D03               	skipz
  6529     1F03  2EFD               	goto	u4665
  6530     1F04                     l2996:
  6531     1F04  3001               	movlw	1
  6532     1F05  02B5               	subwf	__tdiv_to_l_@cntr,f
  6533     1F06  1D03               	btfss	3,2
  6534     1F07  2F09               	goto	u4671
  6535     1F08  2F0A               	goto	u4670
  6536     1F09                     u4671:
  6537     1F09  2EDA               	goto	l2986
  6538     1F0A                     u4670:
  6539     1F0A                     l569:
  6540     1F0A  1FB6               	btfss	__tdiv_to_l_@exp1,7
  6541     1F0B  2F0D               	goto	u4681
  6542     1F0C  2F0E               	goto	u4680
  6543     1F0D                     u4681:
  6544     1F0D  2F28               	goto	l3006
  6545     1F0E                     u4680:
  6546     1F0E                     l2998:
  6547     1F0E  0836               	movf	__tdiv_to_l_@exp1,w
  6548     1F0F  3A80               	xorlw	128
  6549     1F10  3E97               	addlw	151
  6550     1F11  1803               	skipnc
  6551     1F12  2F14               	goto	u4691
  6552     1F13  2F15               	goto	u4690
  6553     1F14                     u4691:
  6554     1F14  2F16               	goto	l3004
  6555     1F15                     u4690:
  6556     1F15  2EA2               	goto	l2968
  6557     1F16                     l3004:
  6558     1F16  3001               	movlw	1
  6559     1F17                     u4705:
  6560     1F17  1003               	clrc
  6561     1F18  0CB4               	rrf	__tdiv_to_l_@quot+3,f
  6562     1F19  0CB3               	rrf	__tdiv_to_l_@quot+2,f
  6563     1F1A  0CB2               	rrf	__tdiv_to_l_@quot+1,f
  6564     1F1B  0CB1               	rrf	__tdiv_to_l_@quot,f
  6565     1F1C  3EFF               	addlw	-1
  6566     1F1D  1D03               	skipz
  6567     1F1E  2F17               	goto	u4705
  6568     1F1F  3001               	movlw	1
  6569     1F20  00AE               	movwf	??__tdiv_to_l_
  6570     1F21  082E               	movf	??__tdiv_to_l_,w
  6571     1F22  07B6               	addwf	__tdiv_to_l_@exp1,f
  6572     1F23  1D03               	btfss	3,2
  6573     1F24  2F26               	goto	u4711
  6574     1F25  2F27               	goto	u4710
  6575     1F26                     u4711:
  6576     1F26  2F16               	goto	l3004
  6577     1F27                     u4710:
  6578     1F27  2F3F               	goto	l3014
  6579     1F28                     l3006:
  6580     1F28  3018               	movlw	24
  6581     1F29  0236               	subwf	__tdiv_to_l_@exp1,w
  6582     1F2A  1C03               	skipc
  6583     1F2B  2F2D               	goto	u4721
  6584     1F2C  2F2E               	goto	u4720
  6585     1F2D                     u4721:
  6586     1F2D  2F3A               	goto	l576
  6587     1F2E                     u4720:
  6588     1F2E  2EA2               	goto	l2968
  6589     1F2F                     l3012:
  6590     1F2F  3001               	movlw	1
  6591     1F30  00AE               	movwf	??__tdiv_to_l_
  6592     1F31                     u4735:
  6593     1F31  1003               	clrc
  6594     1F32  0DB1               	rlf	__tdiv_to_l_@quot,f
  6595     1F33  0DB2               	rlf	__tdiv_to_l_@quot+1,f
  6596     1F34  0DB3               	rlf	__tdiv_to_l_@quot+2,f
  6597     1F35  0DB4               	rlf	__tdiv_to_l_@quot+3,f
  6598     1F36  0BAE               	decfsz	??__tdiv_to_l_,f
  6599     1F37  2F31               	goto	u4735
  6600     1F38  3001               	movlw	1
  6601     1F39  02B6               	subwf	__tdiv_to_l_@exp1,f
  6602     1F3A                     l576:
  6603     1F3A  0836               	movf	__tdiv_to_l_@exp1,w
  6604     1F3B  1D03               	btfss	3,2
  6605     1F3C  2F3E               	goto	u4741
  6606     1F3D  2F3F               	goto	u4740
  6607     1F3E                     u4741:
  6608     1F3E  2F2F               	goto	l3012
  6609     1F3F                     u4740:
  6610     1F3F                     l3014:
  6611     1F3F  0834               	movf	__tdiv_to_l_@quot+3,w
  6612     1F40  00A9               	movwf	?__tdiv_to_l_+3
  6613     1F41  0833               	movf	__tdiv_to_l_@quot+2,w
  6614     1F42  00A8               	movwf	?__tdiv_to_l_+2
  6615     1F43  0832               	movf	__tdiv_to_l_@quot+1,w
  6616     1F44  00A7               	movwf	?__tdiv_to_l_+1
  6617     1F45  0831               	movf	__tdiv_to_l_@quot,w
  6618     1F46  00A6               	movwf	?__tdiv_to_l_
  6619     1F47                     l565:
  6620     1F47  0008               	return
  6621     1F48                     __end_of__tdiv_to_l_:
  6622                           
  6623                           	psect	text11
  6624     1051                     __ptext11:	
  6625 ;; *************** function __div_to_l_ *****************
  6626 ;; Defined at:
  6627 ;;		line 60 in file "C:\Program Files\Microchip\xc8\v2.40\pic\sources\c90\common\fldivl.c"
  6628 ;; Parameters:    Size  Location     Type
  6629 ;;  f1              4    6[BANK0 ] unsigned long 
  6630 ;;  f2              4   10[BANK0 ] unsigned long 
  6631 ;; Auto vars:     Size  Location     Type
  6632 ;;  quot            4   15[BANK0 ] unsigned long 
  6633 ;;  exp1            1   20[BANK0 ] unsigned char 
  6634 ;;  cntr            1   19[BANK0 ] unsigned char 
  6635 ;; Return value:  Size  Location     Type
  6636 ;;                  4    6[BANK0 ] unsigned long 
  6637 ;; Registers used:
  6638 ;;		wreg, status,2, status,0
  6639 ;; Tracked objects:
  6640 ;;		On entry : 0/0
  6641 ;;		On exit  : 0/0
  6642 ;;		Unchanged: 0/0
  6643 ;; Data sizes:     COMMON   BANK0   BANK1   BANK3   BANK2
  6644 ;;      Params:         0       8       0       0       0
  6645 ;;      Locals:         0       6       0       0       0
  6646 ;;      Temps:          0       1       0       0       0
  6647 ;;      Totals:         0      15       0       0       0
  6648 ;;Total ram usage:       15 bytes
  6649 ;; Hardware stack levels used: 1
  6650 ;; Hardware stack levels required when called: 2
  6651 ;; This function calls:
  6652 ;;		Nothing
  6653 ;; This function is called by:
  6654 ;;		_sprintf
  6655 ;; This function uses a non-reentrant model
  6656 ;;
  6657                           
  6658     1051                     __div_to_l_:	
  6659                           ;psect for function __div_to_l_
  6660                           
  6661     1051                     l3018:	
  6662                           ;incstack = 0
  6663                           ; Regs used in __div_to_l_: [wreg+status,2+status,0]
  6664                           
  6665     1051  1003               	clrc
  6666     1052  1283               	bcf	3,5	;RP0=0, select bank0
  6667     1053  1303               	bcf	3,6	;RP1=0, select bank0
  6668     1054  0D28               	rlf	__div_to_l_@f1+2,w
  6669     1055  0D29               	rlf	__div_to_l_@f1+3,w
  6670     1056  00B4               	movwf	__div_to_l_@exp1
  6671     1057  0834               	movf	__div_to_l_@exp1,w
  6672     1058  1D03               	btfss	3,2
  6673     1059  285B               	goto	u4751
  6674     105A  285C               	goto	u4750
  6675     105B                     u4751:
  6676     105B  2865               	goto	l3024
  6677     105C                     u4750:
  6678     105C                     l3020:
  6679     105C  3000               	movlw	0
  6680     105D  00A9               	movwf	?__div_to_l_+3
  6681     105E  3000               	movlw	0
  6682     105F  00A8               	movwf	?__div_to_l_+2
  6683     1060  3000               	movlw	0
  6684     1061  00A7               	movwf	?__div_to_l_+1
  6685     1062  3000               	movlw	0
  6686     1063  00A6               	movwf	?__div_to_l_
  6687     1064  2908               	goto	l518
  6688     1065                     l3024:
  6689     1065  1003               	clrc
  6690     1066  0D2C               	rlf	__div_to_l_@f2+2,w
  6691     1067  0D2D               	rlf	__div_to_l_@f2+3,w
  6692     1068  00B3               	movwf	__div_to_l_@cntr
  6693     1069  0833               	movf	__div_to_l_@cntr,w
  6694     106A  1D03               	btfss	3,2
  6695     106B  286D               	goto	u4761
  6696     106C  286E               	goto	u4760
  6697     106D                     u4761:
  6698     106D  286F               	goto	l519
  6699     106E                     u4760:
  6700     106E  285C               	goto	l3020
  6701     106F                     l519:
  6702     106F  17A8               	bsf	__div_to_l_@f1+2,7
  6703     1070                     l3030:
  6704     1070  30FF               	movlw	255
  6705     1071  05A6               	andwf	__div_to_l_@f1,f
  6706     1072  30FF               	movlw	255
  6707     1073  05A7               	andwf	__div_to_l_@f1+1,f
  6708     1074  30FF               	movlw	255
  6709     1075  05A8               	andwf	__div_to_l_@f1+2,f
  6710     1076  3000               	movlw	0
  6711     1077  05A9               	andwf	__div_to_l_@f1+3,f
  6712     1078                     l3032:
  6713     1078  17AC               	bsf	__div_to_l_@f2+2,7
  6714     1079  30FF               	movlw	255
  6715     107A  05AA               	andwf	__div_to_l_@f2,f
  6716     107B  30FF               	movlw	255
  6717     107C  05AB               	andwf	__div_to_l_@f2+1,f
  6718     107D  30FF               	movlw	255
  6719     107E  05AC               	andwf	__div_to_l_@f2+2,f
  6720     107F  3000               	movlw	0
  6721     1080  05AD               	andwf	__div_to_l_@f2+3,f
  6722     1081  3000               	movlw	0
  6723     1082  00B2               	movwf	__div_to_l_@quot+3
  6724     1083  3000               	movlw	0
  6725     1084  00B1               	movwf	__div_to_l_@quot+2
  6726     1085  3000               	movlw	0
  6727     1086  00B0               	movwf	__div_to_l_@quot+1
  6728     1087  3000               	movlw	0
  6729     1088  00AF               	movwf	__div_to_l_@quot
  6730     1089                     l3034:
  6731     1089  307F               	movlw	127
  6732     108A  02B4               	subwf	__div_to_l_@exp1,f
  6733     108B                     l3036:
  6734     108B  30A0               	movlw	160
  6735     108C  0733               	addwf	__div_to_l_@cntr,w
  6736     108D  00AE               	movwf	??__div_to_l_
  6737     108E  082E               	movf	??__div_to_l_,w
  6738     108F  02B4               	subwf	__div_to_l_@exp1,f
  6739     1090  3020               	movlw	32
  6740     1091  00B3               	movwf	__div_to_l_@cntr
  6741     1092                     l3038:
  6742     1092  3001               	movlw	1
  6743     1093  00AE               	movwf	??__div_to_l_
  6744     1094                     u4775:
  6745     1094  1003               	clrc
  6746     1095  0DAF               	rlf	__div_to_l_@quot,f
  6747     1096  0DB0               	rlf	__div_to_l_@quot+1,f
  6748     1097  0DB1               	rlf	__div_to_l_@quot+2,f
  6749     1098  0DB2               	rlf	__div_to_l_@quot+3,f
  6750     1099  0BAE               	decfsz	??__div_to_l_,f
  6751     109A  2894               	goto	u4775
  6752     109B                     l3040:
  6753     109B  082D               	movf	__div_to_l_@f2+3,w
  6754     109C  0229               	subwf	__div_to_l_@f1+3,w
  6755     109D  1D03               	skipz
  6756     109E  28A9               	goto	u4785
  6757     109F  082C               	movf	__div_to_l_@f2+2,w
  6758     10A0  0228               	subwf	__div_to_l_@f1+2,w
  6759     10A1  1D03               	skipz
  6760     10A2  28A9               	goto	u4785
  6761     10A3  082B               	movf	__div_to_l_@f2+1,w
  6762     10A4  0227               	subwf	__div_to_l_@f1+1,w
  6763     10A5  1D03               	skipz
  6764     10A6  28A9               	goto	u4785
  6765     10A7  082A               	movf	__div_to_l_@f2,w
  6766     10A8  0226               	subwf	__div_to_l_@f1,w
  6767     10A9                     u4785:
  6768     10A9  1C03               	skipc
  6769     10AA  28AC               	goto	u4781
  6770     10AB  28AD               	goto	u4780
  6771     10AC                     u4781:
  6772     10AC  28BC               	goto	l3046
  6773     10AD                     u4780:
  6774     10AD                     l3042:
  6775     10AD  082A               	movf	__div_to_l_@f2,w
  6776     10AE  02A6               	subwf	__div_to_l_@f1,f
  6777     10AF  082B               	movf	__div_to_l_@f2+1,w
  6778     10B0  1C03               	skipc
  6779     10B1  0F2B               	incfsz	__div_to_l_@f2+1,w
  6780     10B2  02A7               	subwf	__div_to_l_@f1+1,f
  6781     10B3  082C               	movf	__div_to_l_@f2+2,w
  6782     10B4  1C03               	skipc
  6783     10B5  0F2C               	incfsz	__div_to_l_@f2+2,w
  6784     10B6  02A8               	subwf	__div_to_l_@f1+2,f
  6785     10B7  082D               	movf	__div_to_l_@f2+3,w
  6786     10B8  1C03               	skipc
  6787     10B9  0F2D               	incfsz	__div_to_l_@f2+3,w
  6788     10BA  02A9               	subwf	__div_to_l_@f1+3,f
  6789     10BB                     l3044:
  6790     10BB  142F               	bsf	__div_to_l_@quot,0
  6791     10BC                     l3046:
  6792     10BC  3001               	movlw	1
  6793     10BD  00AE               	movwf	??__div_to_l_
  6794     10BE                     u4795:
  6795     10BE  1003               	clrc
  6796     10BF  0DA6               	rlf	__div_to_l_@f1,f
  6797     10C0  0DA7               	rlf	__div_to_l_@f1+1,f
  6798     10C1  0DA8               	rlf	__div_to_l_@f1+2,f
  6799     10C2  0DA9               	rlf	__div_to_l_@f1+3,f
  6800     10C3  0BAE               	decfsz	??__div_to_l_,f
  6801     10C4  28BE               	goto	u4795
  6802     10C5                     l3048:
  6803     10C5  3001               	movlw	1
  6804     10C6  02B3               	subwf	__div_to_l_@cntr,f
  6805     10C7  1D03               	btfss	3,2
  6806     10C8  28CA               	goto	u4801
  6807     10C9  28CB               	goto	u4800
  6808     10CA                     u4801:
  6809     10CA  2892               	goto	l3038
  6810     10CB                     u4800:
  6811     10CB                     l522:
  6812     10CB  1FB4               	btfss	__div_to_l_@exp1,7
  6813     10CC  28CE               	goto	u4811
  6814     10CD  28CF               	goto	u4810
  6815     10CE                     u4811:
  6816     10CE  28E9               	goto	l3058
  6817     10CF                     u4810:
  6818     10CF                     l3050:
  6819     10CF  0834               	movf	__div_to_l_@exp1,w
  6820     10D0  3A80               	xorlw	128
  6821     10D1  3E9F               	addlw	159
  6822     10D2  1803               	skipnc
  6823     10D3  28D5               	goto	u4821
  6824     10D4  28D6               	goto	u4820
  6825     10D5                     u4821:
  6826     10D5  28D7               	goto	l3056
  6827     10D6                     u4820:
  6828     10D6  285C               	goto	l3020
  6829     10D7                     l3056:
  6830     10D7  3001               	movlw	1
  6831     10D8                     u4835:
  6832     10D8  1003               	clrc
  6833     10D9  0CB2               	rrf	__div_to_l_@quot+3,f
  6834     10DA  0CB1               	rrf	__div_to_l_@quot+2,f
  6835     10DB  0CB0               	rrf	__div_to_l_@quot+1,f
  6836     10DC  0CAF               	rrf	__div_to_l_@quot,f
  6837     10DD  3EFF               	addlw	-1
  6838     10DE  1D03               	skipz
  6839     10DF  28D8               	goto	u4835
  6840     10E0  3001               	movlw	1
  6841     10E1  00AE               	movwf	??__div_to_l_
  6842     10E2  082E               	movf	??__div_to_l_,w
  6843     10E3  07B4               	addwf	__div_to_l_@exp1,f
  6844     10E4  1D03               	btfss	3,2
  6845     10E5  28E7               	goto	u4841
  6846     10E6  28E8               	goto	u4840
  6847     10E7                     u4841:
  6848     10E7  28D7               	goto	l3056
  6849     10E8                     u4840:
  6850     10E8  2900               	goto	l3066
  6851     10E9                     l3058:
  6852     10E9  3020               	movlw	32
  6853     10EA  0234               	subwf	__div_to_l_@exp1,w
  6854     10EB  1C03               	skipc
  6855     10EC  28EE               	goto	u4851
  6856     10ED  28EF               	goto	u4850
  6857     10EE                     u4851:
  6858     10EE  28FB               	goto	l529
  6859     10EF                     u4850:
  6860     10EF  285C               	goto	l3020
  6861     10F0                     l3064:
  6862     10F0  3001               	movlw	1
  6863     10F1  00AE               	movwf	??__div_to_l_
  6864     10F2                     u4865:
  6865     10F2  1003               	clrc
  6866     10F3  0DAF               	rlf	__div_to_l_@quot,f
  6867     10F4  0DB0               	rlf	__div_to_l_@quot+1,f
  6868     10F5  0DB1               	rlf	__div_to_l_@quot+2,f
  6869     10F6  0DB2               	rlf	__div_to_l_@quot+3,f
  6870     10F7  0BAE               	decfsz	??__div_to_l_,f
  6871     10F8  28F2               	goto	u4865
  6872     10F9  3001               	movlw	1
  6873     10FA  02B4               	subwf	__div_to_l_@exp1,f
  6874     10FB                     l529:
  6875     10FB  0834               	movf	__div_to_l_@exp1,w
  6876     10FC  1D03               	btfss	3,2
  6877     10FD  28FF               	goto	u4871
  6878     10FE  2900               	goto	u4870
  6879     10FF                     u4871:
  6880     10FF  28F0               	goto	l3064
  6881     1100                     u4870:
  6882     1100                     l3066:
  6883     1100  0832               	movf	__div_to_l_@quot+3,w
  6884     1101  00A9               	movwf	?__div_to_l_+3
  6885     1102  0831               	movf	__div_to_l_@quot+2,w
  6886     1103  00A8               	movwf	?__div_to_l_+2
  6887     1104  0830               	movf	__div_to_l_@quot+1,w
  6888     1105  00A7               	movwf	?__div_to_l_+1
  6889     1106  082F               	movf	__div_to_l_@quot,w
  6890     1107  00A6               	movwf	?__div_to_l_
  6891     1108                     l518:
  6892     1108  0008               	return
  6893     1109                     __end_of__div_to_l_:
  6894                           
  6895                           	psect	text12
  6896     089E                     __ptext12:	
  6897 ;; *************** function ___xxtofl *****************
  6898 ;; Defined at:
  6899 ;;		line 10 in file "C:\Program Files\Microchip\xc8\v2.40\pic\sources\c90\common\xxtofl.c"
  6900 ;; Parameters:    Size  Location     Type
  6901 ;;  sign            1    wreg     unsigned char 
  6902 ;;  val             4    6[BANK0 ] long 
  6903 ;; Auto vars:     Size  Location     Type
  6904 ;;  sign            1   14[BANK0 ] unsigned char 
  6905 ;;  arg             4   16[BANK0 ] unsigned long 
  6906 ;;  exp             1   15[BANK0 ] unsigned char 
  6907 ;; Return value:  Size  Location     Type
  6908 ;;                  4    6[BANK0 ] unsigned char 
  6909 ;; Registers used:
  6910 ;;		wreg, status,2, status,0
  6911 ;; Tracked objects:
  6912 ;;		On entry : 0/0
  6913 ;;		On exit  : 0/0
  6914 ;;		Unchanged: 0/0
  6915 ;; Data sizes:     COMMON   BANK0   BANK1   BANK3   BANK2
  6916 ;;      Params:         0       4       0       0       0
  6917 ;;      Locals:         0       6       0       0       0
  6918 ;;      Temps:          0       4       0       0       0
  6919 ;;      Totals:         0      14       0       0       0
  6920 ;;Total ram usage:       14 bytes
  6921 ;; Hardware stack levels used: 1
  6922 ;; Hardware stack levels required when called: 2
  6923 ;; This function calls:
  6924 ;;		Nothing
  6925 ;; This function is called by:
  6926 ;;		_sprintf
  6927 ;; This function uses a non-reentrant model
  6928 ;;
  6929                           
  6930     089E                     ___xxtofl:	
  6931                           ;psect for function ___xxtofl
  6932                           
  6933                           
  6934                           ;incstack = 0
  6935                           ; Regs used in ___xxtofl: [wreg+status,2+status,0]
  6936                           ;___xxtofl@sign stored from wreg
  6937     089E  1283               	bcf	3,5	;RP0=0, select bank0
  6938     089F  1303               	bcf	3,6	;RP1=0, select bank0
  6939     08A0  00AE               	movwf	___xxtofl@sign
  6940     08A1                     l3210:
  6941     08A1  082E               	movf	___xxtofl@sign,w
  6942     08A2  1903               	btfsc	3,2
  6943     08A3  28A5               	goto	u5261
  6944     08A4  28A6               	goto	u5260
  6945     08A5                     u5261:
  6946     08A5  28BA               	goto	l3216
  6947     08A6                     u5260:
  6948     08A6                     l3212:
  6949     08A6  1FA9               	btfss	___xxtofl@val+3,7
  6950     08A7  28A9               	goto	u5271
  6951     08A8  28AA               	goto	u5270
  6952     08A9                     u5271:
  6953     08A9  28BA               	goto	l3216
  6954     08AA                     u5270:
  6955     08AA                     l3214:
  6956     08AA  0926               	comf	___xxtofl@val,w
  6957     08AB  00B0               	movwf	___xxtofl@arg
  6958     08AC  0927               	comf	___xxtofl@val+1,w
  6959     08AD  00B1               	movwf	___xxtofl@arg+1
  6960     08AE  0928               	comf	___xxtofl@val+2,w
  6961     08AF  00B2               	movwf	___xxtofl@arg+2
  6962     08B0  0929               	comf	___xxtofl@val+3,w
  6963     08B1  00B3               	movwf	___xxtofl@arg+3
  6964     08B2  0AB0               	incf	___xxtofl@arg,f
  6965     08B3  1903               	skipnz
  6966     08B4  0AB1               	incf	___xxtofl@arg+1,f
  6967     08B5  1903               	skipnz
  6968     08B6  0AB2               	incf	___xxtofl@arg+2,f
  6969     08B7  1903               	skipnz
  6970     08B8  0AB3               	incf	___xxtofl@arg+3,f
  6971     08B9  28C2               	goto	l815
  6972     08BA                     l3216:
  6973     08BA  0829               	movf	___xxtofl@val+3,w
  6974     08BB  00B3               	movwf	___xxtofl@arg+3
  6975     08BC  0828               	movf	___xxtofl@val+2,w
  6976     08BD  00B2               	movwf	___xxtofl@arg+2
  6977     08BE  0827               	movf	___xxtofl@val+1,w
  6978     08BF  00B1               	movwf	___xxtofl@arg+1
  6979     08C0  0826               	movf	___xxtofl@val,w
  6980     08C1  00B0               	movwf	___xxtofl@arg
  6981     08C2                     l815:
  6982     08C2  0829               	movf	___xxtofl@val+3,w
  6983     08C3  0428               	iorwf	___xxtofl@val+2,w
  6984     08C4  0427               	iorwf	___xxtofl@val+1,w
  6985     08C5  0426               	iorwf	___xxtofl@val,w
  6986     08C6  1D03               	skipz
  6987     08C7  28C9               	goto	u5281
  6988     08C8  28CA               	goto	u5280
  6989     08C9                     u5281:
  6990     08C9  28D3               	goto	l3222
  6991     08CA                     u5280:
  6992     08CA                     l3218:
  6993     08CA  3000               	movlw	0
  6994     08CB  00A9               	movwf	?___xxtofl+3
  6995     08CC  3000               	movlw	0
  6996     08CD  00A8               	movwf	?___xxtofl+2
  6997     08CE  3000               	movlw	0
  6998     08CF  00A7               	movwf	?___xxtofl+1
  6999     08D0  3000               	movlw	0
  7000     08D1  00A6               	movwf	?___xxtofl
  7001     08D2  2957               	goto	l817
  7002     08D3                     l3222:
  7003     08D3  3096               	movlw	150
  7004     08D4  00AF               	movwf	___xxtofl@exp
  7005     08D5  28E3               	goto	l3226
  7006     08D6                     l3224:
  7007     08D6  3001               	movlw	1
  7008     08D7  00AA               	movwf	??___xxtofl
  7009     08D8  082A               	movf	??___xxtofl,w
  7010     08D9  07AF               	addwf	___xxtofl@exp,f
  7011     08DA  3001               	movlw	1
  7012     08DB                     u5295:
  7013     08DB  1003               	clrc
  7014     08DC  0CB3               	rrf	___xxtofl@arg+3,f
  7015     08DD  0CB2               	rrf	___xxtofl@arg+2,f
  7016     08DE  0CB1               	rrf	___xxtofl@arg+1,f
  7017     08DF  0CB0               	rrf	___xxtofl@arg,f
  7018     08E0  3EFF               	addlw	-1
  7019     08E1  1D03               	skipz
  7020     08E2  28DB               	goto	u5295
  7021     08E3                     l3226:
  7022     08E3  30FE               	movlw	254
  7023     08E4  0533               	andwf	___xxtofl@arg+3,w
  7024     08E5  1D03               	btfss	3,2
  7025     08E6  28E8               	goto	u5301
  7026     08E7  28E9               	goto	u5300
  7027     08E8                     u5301:
  7028     08E8  28D6               	goto	l3224
  7029     08E9                     u5300:
  7030     08E9  2905               	goto	l821
  7031     08EA                     l3228:
  7032     08EA  3001               	movlw	1
  7033     08EB  00AA               	movwf	??___xxtofl
  7034     08EC  082A               	movf	??___xxtofl,w
  7035     08ED  07AF               	addwf	___xxtofl@exp,f
  7036     08EE                     l3230:
  7037     08EE  3001               	movlw	1
  7038     08EF  07B0               	addwf	___xxtofl@arg,f
  7039     08F0  3000               	movlw	0
  7040     08F1  1803               	skipnc
  7041     08F2  3001               	movlw	1
  7042     08F3  07B1               	addwf	___xxtofl@arg+1,f
  7043     08F4  3000               	movlw	0
  7044     08F5  1803               	skipnc
  7045     08F6  3001               	movlw	1
  7046     08F7  07B2               	addwf	___xxtofl@arg+2,f
  7047     08F8  3000               	movlw	0
  7048     08F9  1803               	skipnc
  7049     08FA  3001               	movlw	1
  7050     08FB  07B3               	addwf	___xxtofl@arg+3,f
  7051     08FC                     l3232:
  7052     08FC  3001               	movlw	1
  7053     08FD                     u5315:
  7054     08FD  1003               	clrc
  7055     08FE  0CB3               	rrf	___xxtofl@arg+3,f
  7056     08FF  0CB2               	rrf	___xxtofl@arg+2,f
  7057     0900  0CB1               	rrf	___xxtofl@arg+1,f
  7058     0901  0CB0               	rrf	___xxtofl@arg,f
  7059     0902  3EFF               	addlw	-1
  7060     0903  1D03               	skipz
  7061     0904  28FD               	goto	u5315
  7062     0905                     l821:
  7063     0905  30FF               	movlw	255
  7064     0906  0533               	andwf	___xxtofl@arg+3,w
  7065     0907  1D03               	btfss	3,2
  7066     0908  290A               	goto	u5321
  7067     0909  290B               	goto	u5320
  7068     090A                     u5321:
  7069     090A  28EA               	goto	l3228
  7070     090B                     u5320:
  7071     090B  2917               	goto	l3236
  7072     090C                     l3234:
  7073     090C  3001               	movlw	1
  7074     090D  02AF               	subwf	___xxtofl@exp,f
  7075     090E  3001               	movlw	1
  7076     090F  00AA               	movwf	??___xxtofl
  7077     0910                     u5335:
  7078     0910  1003               	clrc
  7079     0911  0DB0               	rlf	___xxtofl@arg,f
  7080     0912  0DB1               	rlf	___xxtofl@arg+1,f
  7081     0913  0DB2               	rlf	___xxtofl@arg+2,f
  7082     0914  0DB3               	rlf	___xxtofl@arg+3,f
  7083     0915  0BAA               	decfsz	??___xxtofl,f
  7084     0916  2910               	goto	u5335
  7085     0917                     l3236:
  7086     0917  1BB2               	btfsc	___xxtofl@arg+2,7
  7087     0918  291A               	goto	u5341
  7088     0919  291B               	goto	u5340
  7089     091A                     u5341:
  7090     091A  2921               	goto	l828
  7091     091B                     u5340:
  7092     091B                     l3238:
  7093     091B  3002               	movlw	2
  7094     091C  022F               	subwf	___xxtofl@exp,w
  7095     091D  1803               	skipnc
  7096     091E  2920               	goto	u5351
  7097     091F  2921               	goto	u5350
  7098     0920                     u5351:
  7099     0920  290C               	goto	l3234
  7100     0921                     u5350:
  7101     0921                     l828:
  7102     0921  182F               	btfsc	___xxtofl@exp,0
  7103     0922  2924               	goto	u5361
  7104     0923  2925               	goto	u5360
  7105     0924                     u5361:
  7106     0924  292D               	goto	l829
  7107     0925                     u5360:
  7108     0925                     l3240:
  7109     0925  30FF               	movlw	255
  7110     0926  05B0               	andwf	___xxtofl@arg,f
  7111     0927  30FF               	movlw	255
  7112     0928  05B1               	andwf	___xxtofl@arg+1,f
  7113     0929  307F               	movlw	127
  7114     092A  05B2               	andwf	___xxtofl@arg+2,f
  7115     092B  30FF               	movlw	255
  7116     092C  05B3               	andwf	___xxtofl@arg+3,f
  7117     092D                     l829:
  7118     092D  1003               	clrc
  7119     092E  0CAF               	rrf	___xxtofl@exp,f
  7120     092F                     l3242:
  7121     092F  082F               	movf	___xxtofl@exp,w
  7122     0930  00AA               	movwf	??___xxtofl
  7123     0931  01AB               	clrf	??___xxtofl+1
  7124     0932  01AC               	clrf	??___xxtofl+2
  7125     0933  01AD               	clrf	??___xxtofl+3
  7126     0934  3018               	movlw	24
  7127     0935                     u5375:
  7128     0935  1003               	clrc
  7129     0936  0DAA               	rlf	??___xxtofl,f
  7130     0937  0DAB               	rlf	??___xxtofl+1,f
  7131     0938  0DAC               	rlf	??___xxtofl+2,f
  7132     0939  0DAD               	rlf	??___xxtofl+3,f
  7133     093A                     u5370:
  7134     093A  3EFF               	addlw	-1
  7135     093B  1D03               	skipz
  7136     093C  2935               	goto	u5375
  7137     093D  082A               	movf	??___xxtofl,w
  7138     093E  04B0               	iorwf	___xxtofl@arg,f
  7139     093F  082B               	movf	??___xxtofl+1,w
  7140     0940  04B1               	iorwf	___xxtofl@arg+1,f
  7141     0941  082C               	movf	??___xxtofl+2,w
  7142     0942  04B2               	iorwf	___xxtofl@arg+2,f
  7143     0943  082D               	movf	??___xxtofl+3,w
  7144     0944  04B3               	iorwf	___xxtofl@arg+3,f
  7145     0945                     l3244:
  7146     0945  082E               	movf	___xxtofl@sign,w
  7147     0946  1903               	btfsc	3,2
  7148     0947  2949               	goto	u5381
  7149     0948  294A               	goto	u5380
  7150     0949                     u5381:
  7151     0949  294F               	goto	l3250
  7152     094A                     u5380:
  7153     094A                     l3246:
  7154     094A  1FA9               	btfss	___xxtofl@val+3,7
  7155     094B  294D               	goto	u5391
  7156     094C  294E               	goto	u5390
  7157     094D                     u5391:
  7158     094D  294F               	goto	l3250
  7159     094E                     u5390:
  7160     094E                     l3248:
  7161     094E  17B3               	bsf	___xxtofl@arg+3,7
  7162     094F                     l3250:
  7163     094F  0833               	movf	___xxtofl@arg+3,w
  7164     0950  00A9               	movwf	?___xxtofl+3
  7165     0951  0832               	movf	___xxtofl@arg+2,w
  7166     0952  00A8               	movwf	?___xxtofl+2
  7167     0953  0831               	movf	___xxtofl@arg+1,w
  7168     0954  00A7               	movwf	?___xxtofl+1
  7169     0955  0830               	movf	___xxtofl@arg,w
  7170     0956  00A6               	movwf	?___xxtofl
  7171     0957                     l817:
  7172     0957  0008               	return
  7173     0958                     __end_of___xxtofl:
  7174                           
  7175                           	psect	text13
  7176     1AD0                     __ptext13:	
  7177 ;; *************** function ___wmul *****************
  7178 ;; Defined at:
  7179 ;;		line 15 in file "C:\Program Files\Microchip\xc8\v2.40\pic\sources\c90\common\Umul16.c"
  7180 ;; Parameters:    Size  Location     Type
  7181 ;;  multiplier      2    6[BANK0 ] unsigned int 
  7182 ;;  multiplicand    2    8[BANK0 ] unsigned int 
  7183 ;; Auto vars:     Size  Location     Type
  7184 ;;  product         2   10[BANK0 ] unsigned int 
  7185 ;; Return value:  Size  Location     Type
  7186 ;;                  2    6[BANK0 ] unsigned int 
  7187 ;; Registers used:
  7188 ;;		wreg, status,2, status,0
  7189 ;; Tracked objects:
  7190 ;;		On entry : 0/0
  7191 ;;		On exit  : 0/0
  7192 ;;		Unchanged: 0/0
  7193 ;; Data sizes:     COMMON   BANK0   BANK1   BANK3   BANK2
  7194 ;;      Params:         0       4       0       0       0
  7195 ;;      Locals:         0       2       0       0       0
  7196 ;;      Temps:          0       0       0       0       0
  7197 ;;      Totals:         0       6       0       0       0
  7198 ;;Total ram usage:        6 bytes
  7199 ;; Hardware stack levels used: 1
  7200 ;; Hardware stack levels required when called: 2
  7201 ;; This function calls:
  7202 ;;		Nothing
  7203 ;; This function is called by:
  7204 ;;		_sprintf
  7205 ;; This function uses a non-reentrant model
  7206 ;;
  7207                           
  7208     1AD0                     ___wmul:	
  7209                           ;psect for function ___wmul
  7210                           
  7211     1AD0                     l3070:	
  7212                           ;incstack = 0
  7213                           ; Regs used in ___wmul: [wreg+status,2+status,0]
  7214                           
  7215     1AD0  1283               	bcf	3,5	;RP0=0, select bank0
  7216     1AD1  1303               	bcf	3,6	;RP1=0, select bank0
  7217     1AD2  01AA               	clrf	___wmul@product
  7218     1AD3  01AB               	clrf	___wmul@product+1
  7219     1AD4                     l3072:
  7220     1AD4  1C26               	btfss	___wmul@multiplier,0
  7221     1AD5  2AD7               	goto	u4881
  7222     1AD6  2AD8               	goto	u4880
  7223     1AD7                     u4881:
  7224     1AD7  2ADE               	goto	l348
  7225     1AD8                     u4880:
  7226     1AD8                     l3074:
  7227     1AD8  0828               	movf	___wmul@multiplicand,w
  7228     1AD9  07AA               	addwf	___wmul@product,f
  7229     1ADA  1803               	skipnc
  7230     1ADB  0AAB               	incf	___wmul@product+1,f
  7231     1ADC  0829               	movf	___wmul@multiplicand+1,w
  7232     1ADD  07AB               	addwf	___wmul@product+1,f
  7233     1ADE                     l348:
  7234     1ADE  3001               	movlw	1
  7235     1ADF                     u4895:
  7236     1ADF  1003               	clrc
  7237     1AE0  0DA8               	rlf	___wmul@multiplicand,f
  7238     1AE1  0DA9               	rlf	___wmul@multiplicand+1,f
  7239     1AE2  3EFF               	addlw	-1
  7240     1AE3  1D03               	skipz
  7241     1AE4  2ADF               	goto	u4895
  7242     1AE5                     l3076:
  7243     1AE5  3001               	movlw	1
  7244     1AE6                     u4905:
  7245     1AE6  1003               	clrc
  7246     1AE7  0CA7               	rrf	___wmul@multiplier+1,f
  7247     1AE8  0CA6               	rrf	___wmul@multiplier,f
  7248     1AE9  3EFF               	addlw	-1
  7249     1AEA  1D03               	skipz
  7250     1AEB  2AE6               	goto	u4905
  7251     1AEC                     l3078:
  7252     1AEC  0826               	movf	___wmul@multiplier,w
  7253     1AED  0427               	iorwf	___wmul@multiplier+1,w
  7254     1AEE  1D03               	btfss	3,2
  7255     1AEF  2AF1               	goto	u4911
  7256     1AF0  2AF2               	goto	u4910
  7257     1AF1                     u4911:
  7258     1AF1  2AD4               	goto	l3072
  7259     1AF2                     u4910:
  7260     1AF2                     l3080:
  7261     1AF2  082B               	movf	___wmul@product+1,w
  7262     1AF3  00A7               	movwf	?___wmul+1
  7263     1AF4  082A               	movf	___wmul@product,w
  7264     1AF5  00A6               	movwf	?___wmul
  7265     1AF6                     l350:
  7266     1AF6  0008               	return
  7267     1AF7                     __end_of___wmul:
  7268                           
  7269                           	psect	text14
  7270     1B9F                     __ptext14:	
  7271 ;; *************** function ___llmod *****************
  7272 ;; Defined at:
  7273 ;;		line 5 in file "C:\Program Files\Microchip\xc8\v2.40\pic\sources\c90\common\llmod.c"
  7274 ;; Parameters:    Size  Location     Type
  7275 ;;  divisor         4    6[BANK0 ] unsigned long 
  7276 ;;  dividend        4   10[BANK0 ] unsigned long 
  7277 ;; Auto vars:     Size  Location     Type
  7278 ;;  counter         1   15[BANK0 ] unsigned char 
  7279 ;; Return value:  Size  Location     Type
  7280 ;;                  4    6[BANK0 ] unsigned long 
  7281 ;; Registers used:
  7282 ;;		wreg, status,2, status,0
  7283 ;; Tracked objects:
  7284 ;;		On entry : 0/0
  7285 ;;		On exit  : 0/0
  7286 ;;		Unchanged: 0/0
  7287 ;; Data sizes:     COMMON   BANK0   BANK1   BANK3   BANK2
  7288 ;;      Params:         0       8       0       0       0
  7289 ;;      Locals:         0       1       0       0       0
  7290 ;;      Temps:          0       1       0       0       0
  7291 ;;      Totals:         0      10       0       0       0
  7292 ;;Total ram usage:       10 bytes
  7293 ;; Hardware stack levels used: 1
  7294 ;; Hardware stack levels required when called: 2
  7295 ;; This function calls:
  7296 ;;		Nothing
  7297 ;; This function is called by:
  7298 ;;		_sprintf
  7299 ;; This function uses a non-reentrant model
  7300 ;;
  7301                           
  7302     1B9F                     ___llmod:	
  7303                           ;psect for function ___llmod
  7304                           
  7305     1B9F                     l3184:	
  7306                           ;incstack = 0
  7307                           ; Regs used in ___llmod: [wreg+status,2+status,0]
  7308                           
  7309     1B9F  1283               	bcf	3,5	;RP0=0, select bank0
  7310     1BA0  1303               	bcf	3,6	;RP1=0, select bank0
  7311     1BA1  0829               	movf	___llmod@divisor+3,w
  7312     1BA2  0428               	iorwf	___llmod@divisor+2,w
  7313     1BA3  0427               	iorwf	___llmod@divisor+1,w
  7314     1BA4  0426               	iorwf	___llmod@divisor,w
  7315     1BA5  1903               	skipnz
  7316     1BA6  2BA8               	goto	u5201
  7317     1BA7  2BA9               	goto	u5200
  7318     1BA8                     u5201:
  7319     1BA8  2BEC               	goto	l3200
  7320     1BA9                     u5200:
  7321     1BA9                     l3186:
  7322     1BA9  01AF               	clrf	___llmod@counter
  7323     1BAA  0AAF               	incf	___llmod@counter,f
  7324     1BAB  2BB9               	goto	l3190
  7325     1BAC                     l3188:
  7326     1BAC  3001               	movlw	1
  7327     1BAD  00AE               	movwf	??___llmod
  7328     1BAE                     u5215:
  7329     1BAE  1003               	clrc
  7330     1BAF  0DA6               	rlf	___llmod@divisor,f
  7331     1BB0  0DA7               	rlf	___llmod@divisor+1,f
  7332     1BB1  0DA8               	rlf	___llmod@divisor+2,f
  7333     1BB2  0DA9               	rlf	___llmod@divisor+3,f
  7334     1BB3  0BAE               	decfsz	??___llmod,f
  7335     1BB4  2BAE               	goto	u5215
  7336     1BB5  3001               	movlw	1
  7337     1BB6  00AE               	movwf	??___llmod
  7338     1BB7  082E               	movf	??___llmod,w
  7339     1BB8  07AF               	addwf	___llmod@counter,f
  7340     1BB9                     l3190:
  7341     1BB9  1FA9               	btfss	___llmod@divisor+3,7
  7342     1BBA  2BBC               	goto	u5221
  7343     1BBB  2BBD               	goto	u5220
  7344     1BBC                     u5221:
  7345     1BBC  2BAC               	goto	l3188
  7346     1BBD                     u5220:
  7347     1BBD                     l3192:
  7348     1BBD  0829               	movf	___llmod@divisor+3,w
  7349     1BBE  022D               	subwf	___llmod@dividend+3,w
  7350     1BBF  1D03               	skipz
  7351     1BC0  2BCB               	goto	u5235
  7352     1BC1  0828               	movf	___llmod@divisor+2,w
  7353     1BC2  022C               	subwf	___llmod@dividend+2,w
  7354     1BC3  1D03               	skipz
  7355     1BC4  2BCB               	goto	u5235
  7356     1BC5  0827               	movf	___llmod@divisor+1,w
  7357     1BC6  022B               	subwf	___llmod@dividend+1,w
  7358     1BC7  1D03               	skipz
  7359     1BC8  2BCB               	goto	u5235
  7360     1BC9  0826               	movf	___llmod@divisor,w
  7361     1BCA  022A               	subwf	___llmod@dividend,w
  7362     1BCB                     u5235:
  7363     1BCB  1C03               	skipc
  7364     1BCC  2BCE               	goto	u5231
  7365     1BCD  2BCF               	goto	u5230
  7366     1BCE                     u5231:
  7367     1BCE  2BDD               	goto	l3196
  7368     1BCF                     u5230:
  7369     1BCF                     l3194:
  7370     1BCF  0826               	movf	___llmod@divisor,w
  7371     1BD0  02AA               	subwf	___llmod@dividend,f
  7372     1BD1  0827               	movf	___llmod@divisor+1,w
  7373     1BD2  1C03               	skipc
  7374     1BD3  0F27               	incfsz	___llmod@divisor+1,w
  7375     1BD4  02AB               	subwf	___llmod@dividend+1,f
  7376     1BD5  0828               	movf	___llmod@divisor+2,w
  7377     1BD6  1C03               	skipc
  7378     1BD7  0F28               	incfsz	___llmod@divisor+2,w
  7379     1BD8  02AC               	subwf	___llmod@dividend+2,f
  7380     1BD9  0829               	movf	___llmod@divisor+3,w
  7381     1BDA  1C03               	skipc
  7382     1BDB  0F29               	incfsz	___llmod@divisor+3,w
  7383     1BDC  02AD               	subwf	___llmod@dividend+3,f
  7384     1BDD                     l3196:
  7385     1BDD  3001               	movlw	1
  7386     1BDE                     u5245:
  7387     1BDE  1003               	clrc
  7388     1BDF  0CA9               	rrf	___llmod@divisor+3,f
  7389     1BE0  0CA8               	rrf	___llmod@divisor+2,f
  7390     1BE1  0CA7               	rrf	___llmod@divisor+1,f
  7391     1BE2  0CA6               	rrf	___llmod@divisor,f
  7392     1BE3  3EFF               	addlw	-1
  7393     1BE4  1D03               	skipz
  7394     1BE5  2BDE               	goto	u5245
  7395     1BE6                     l3198:
  7396     1BE6  3001               	movlw	1
  7397     1BE7  02AF               	subwf	___llmod@counter,f
  7398     1BE8  1D03               	btfss	3,2
  7399     1BE9  2BEB               	goto	u5251
  7400     1BEA  2BEC               	goto	u5250
  7401     1BEB                     u5251:
  7402     1BEB  2BBD               	goto	l3192
  7403     1BEC                     u5250:
  7404     1BEC                     l3200:
  7405     1BEC  082D               	movf	___llmod@dividend+3,w
  7406     1BED  00A9               	movwf	?___llmod+3
  7407     1BEE  082C               	movf	___llmod@dividend+2,w
  7408     1BEF  00A8               	movwf	?___llmod+2
  7409     1BF0  082B               	movf	___llmod@dividend+1,w
  7410     1BF1  00A7               	movwf	?___llmod+1
  7411     1BF2  082A               	movf	___llmod@dividend,w
  7412     1BF3  00A6               	movwf	?___llmod
  7413     1BF4                     l604:
  7414     1BF4  0008               	return
  7415     1BF5                     __end_of___llmod:
  7416                           
  7417                           	psect	text15
  7418     1D1C                     __ptext15:	
  7419 ;; *************** function ___lldiv *****************
  7420 ;; Defined at:
  7421 ;;		line 5 in file "C:\Program Files\Microchip\xc8\v2.40\pic\sources\c90\common\__lldiv.c"
  7422 ;; Parameters:    Size  Location     Type
  7423 ;;  divisor         4    6[BANK0 ] unsigned long 
  7424 ;;  dividend        4   10[BANK0 ] unsigned long 
  7425 ;; Auto vars:     Size  Location     Type
  7426 ;;  quotient        4   15[BANK0 ] unsigned long 
  7427 ;;  counter         1   19[BANK0 ] unsigned char 
  7428 ;; Return value:  Size  Location     Type
  7429 ;;                  4    6[BANK0 ] unsigned long 
  7430 ;; Registers used:
  7431 ;;		wreg, status,2, status,0
  7432 ;; Tracked objects:
  7433 ;;		On entry : 0/0
  7434 ;;		On exit  : 0/0
  7435 ;;		Unchanged: 0/0
  7436 ;; Data sizes:     COMMON   BANK0   BANK1   BANK3   BANK2
  7437 ;;      Params:         0       8       0       0       0
  7438 ;;      Locals:         0       5       0       0       0
  7439 ;;      Temps:          0       1       0       0       0
  7440 ;;      Totals:         0      14       0       0       0
  7441 ;;Total ram usage:       14 bytes
  7442 ;; Hardware stack levels used: 1
  7443 ;; Hardware stack levels required when called: 2
  7444 ;; This function calls:
  7445 ;;		Nothing
  7446 ;; This function is called by:
  7447 ;;		_sprintf
  7448 ;; This function uses a non-reentrant model
  7449 ;;
  7450                           
  7451     1D1C                     ___lldiv:	
  7452                           ;psect for function ___lldiv
  7453                           
  7454     1D1C                     l3084:	
  7455                           ;incstack = 0
  7456                           ; Regs used in ___lldiv: [wreg+status,2+status,0]
  7457                           
  7458     1D1C  3000               	movlw	0
  7459     1D1D  1283               	bcf	3,5	;RP0=0, select bank0
  7460     1D1E  1303               	bcf	3,6	;RP1=0, select bank0
  7461     1D1F  00B2               	movwf	___lldiv@quotient+3
  7462     1D20  3000               	movlw	0
  7463     1D21  00B1               	movwf	___lldiv@quotient+2
  7464     1D22  3000               	movlw	0
  7465     1D23  00B0               	movwf	___lldiv@quotient+1
  7466     1D24  3000               	movlw	0
  7467     1D25  00AF               	movwf	___lldiv@quotient
  7468     1D26  0829               	movf	___lldiv@divisor+3,w
  7469     1D27  0428               	iorwf	___lldiv@divisor+2,w
  7470     1D28  0427               	iorwf	___lldiv@divisor+1,w
  7471     1D29  0426               	iorwf	___lldiv@divisor,w
  7472     1D2A  1903               	skipnz
  7473     1D2B  2D2D               	goto	u4921
  7474     1D2C  2D2E               	goto	u4920
  7475     1D2D                     u4921:
  7476     1D2D  2D7B               	goto	l3104
  7477     1D2E                     u4920:
  7478     1D2E                     l3086:
  7479     1D2E  01B3               	clrf	___lldiv@counter
  7480     1D2F  0AB3               	incf	___lldiv@counter,f
  7481     1D30  2D3E               	goto	l3090
  7482     1D31                     l3088:
  7483     1D31  3001               	movlw	1
  7484     1D32  00AE               	movwf	??___lldiv
  7485     1D33                     u4935:
  7486     1D33  1003               	clrc
  7487     1D34  0DA6               	rlf	___lldiv@divisor,f
  7488     1D35  0DA7               	rlf	___lldiv@divisor+1,f
  7489     1D36  0DA8               	rlf	___lldiv@divisor+2,f
  7490     1D37  0DA9               	rlf	___lldiv@divisor+3,f
  7491     1D38  0BAE               	decfsz	??___lldiv,f
  7492     1D39  2D33               	goto	u4935
  7493     1D3A  3001               	movlw	1
  7494     1D3B  00AE               	movwf	??___lldiv
  7495     1D3C  082E               	movf	??___lldiv,w
  7496     1D3D  07B3               	addwf	___lldiv@counter,f
  7497     1D3E                     l3090:
  7498     1D3E  1FA9               	btfss	___lldiv@divisor+3,7
  7499     1D3F  2D41               	goto	u4941
  7500     1D40  2D42               	goto	u4940
  7501     1D41                     u4941:
  7502     1D41  2D31               	goto	l3088
  7503     1D42                     u4940:
  7504     1D42                     l3092:
  7505     1D42  3001               	movlw	1
  7506     1D43  00AE               	movwf	??___lldiv
  7507     1D44                     u4955:
  7508     1D44  1003               	clrc
  7509     1D45  0DAF               	rlf	___lldiv@quotient,f
  7510     1D46  0DB0               	rlf	___lldiv@quotient+1,f
  7511     1D47  0DB1               	rlf	___lldiv@quotient+2,f
  7512     1D48  0DB2               	rlf	___lldiv@quotient+3,f
  7513     1D49  0BAE               	decfsz	??___lldiv,f
  7514     1D4A  2D44               	goto	u4955
  7515     1D4B                     l3094:
  7516     1D4B  0829               	movf	___lldiv@divisor+3,w
  7517     1D4C  022D               	subwf	___lldiv@dividend+3,w
  7518     1D4D  1D03               	skipz
  7519     1D4E  2D59               	goto	u4965
  7520     1D4F  0828               	movf	___lldiv@divisor+2,w
  7521     1D50  022C               	subwf	___lldiv@dividend+2,w
  7522     1D51  1D03               	skipz
  7523     1D52  2D59               	goto	u4965
  7524     1D53  0827               	movf	___lldiv@divisor+1,w
  7525     1D54  022B               	subwf	___lldiv@dividend+1,w
  7526     1D55  1D03               	skipz
  7527     1D56  2D59               	goto	u4965
  7528     1D57  0826               	movf	___lldiv@divisor,w
  7529     1D58  022A               	subwf	___lldiv@dividend,w
  7530     1D59                     u4965:
  7531     1D59  1C03               	skipc
  7532     1D5A  2D5C               	goto	u4961
  7533     1D5B  2D5D               	goto	u4960
  7534     1D5C                     u4961:
  7535     1D5C  2D6C               	goto	l3100
  7536     1D5D                     u4960:
  7537     1D5D                     l3096:
  7538     1D5D  0826               	movf	___lldiv@divisor,w
  7539     1D5E  02AA               	subwf	___lldiv@dividend,f
  7540     1D5F  0827               	movf	___lldiv@divisor+1,w
  7541     1D60  1C03               	skipc
  7542     1D61  0F27               	incfsz	___lldiv@divisor+1,w
  7543     1D62  02AB               	subwf	___lldiv@dividend+1,f
  7544     1D63  0828               	movf	___lldiv@divisor+2,w
  7545     1D64  1C03               	skipc
  7546     1D65  0F28               	incfsz	___lldiv@divisor+2,w
  7547     1D66  02AC               	subwf	___lldiv@dividend+2,f
  7548     1D67  0829               	movf	___lldiv@divisor+3,w
  7549     1D68  1C03               	skipc
  7550     1D69  0F29               	incfsz	___lldiv@divisor+3,w
  7551     1D6A  02AD               	subwf	___lldiv@dividend+3,f
  7552     1D6B                     l3098:
  7553     1D6B  142F               	bsf	___lldiv@quotient,0
  7554     1D6C                     l3100:
  7555     1D6C  3001               	movlw	1
  7556     1D6D                     u4975:
  7557     1D6D  1003               	clrc
  7558     1D6E  0CA9               	rrf	___lldiv@divisor+3,f
  7559     1D6F  0CA8               	rrf	___lldiv@divisor+2,f
  7560     1D70  0CA7               	rrf	___lldiv@divisor+1,f
  7561     1D71  0CA6               	rrf	___lldiv@divisor,f
  7562     1D72  3EFF               	addlw	-1
  7563     1D73  1D03               	skipz
  7564     1D74  2D6D               	goto	u4975
  7565     1D75                     l3102:
  7566     1D75  3001               	movlw	1
  7567     1D76  02B3               	subwf	___lldiv@counter,f
  7568     1D77  1D03               	btfss	3,2
  7569     1D78  2D7A               	goto	u4981
  7570     1D79  2D7B               	goto	u4980
  7571     1D7A                     u4981:
  7572     1D7A  2D42               	goto	l3092
  7573     1D7B                     u4980:
  7574     1D7B                     l3104:
  7575     1D7B  0832               	movf	___lldiv@quotient+3,w
  7576     1D7C  00A9               	movwf	?___lldiv+3
  7577     1D7D  0831               	movf	___lldiv@quotient+2,w
  7578     1D7E  00A8               	movwf	?___lldiv+2
  7579     1D7F  0830               	movf	___lldiv@quotient+1,w
  7580     1D80  00A7               	movwf	?___lldiv+1
  7581     1D81  082F               	movf	___lldiv@quotient,w
  7582     1D82  00A6               	movwf	?___lldiv
  7583     1D83                     l384:
  7584     1D83  0008               	return
  7585     1D84                     __end_of___lldiv:
  7586                           
  7587                           	psect	text16
  7588     0826                     __ptext16:	
  7589 ;; *************** function ___fltol *****************
  7590 ;; Defined at:
  7591 ;;		line 43 in file "C:\Program Files\Microchip\xc8\v2.40\pic\sources\c90\common\fltol.c"
  7592 ;; Parameters:    Size  Location     Type
  7593 ;;  f1              4    0[BANK1 ] unsigned long 
  7594 ;; Auto vars:     Size  Location     Type
  7595 ;;  exp1            1    9[BANK1 ] unsigned char 
  7596 ;;  sign1           1    8[BANK1 ] unsigned char 
  7597 ;; Return value:  Size  Location     Type
  7598 ;;                  4    0[BANK1 ] long 
  7599 ;; Registers used:
  7600 ;;		wreg, status,2, status,0
  7601 ;; Tracked objects:
  7602 ;;		On entry : 0/0
  7603 ;;		On exit  : 0/0
  7604 ;;		Unchanged: 0/0
  7605 ;; Data sizes:     COMMON   BANK0   BANK1   BANK3   BANK2
  7606 ;;      Params:         0       0       4       0       0
  7607 ;;      Locals:         0       0       2       0       0
  7608 ;;      Temps:          0       0       4       0       0
  7609 ;;      Totals:         0       0      10       0       0
  7610 ;;Total ram usage:       10 bytes
  7611 ;; Hardware stack levels used: 1
  7612 ;; Hardware stack levels required when called: 2
  7613 ;; This function calls:
  7614 ;;		Nothing
  7615 ;; This function is called by:
  7616 ;;		_sprintf
  7617 ;; This function uses a non-reentrant model
  7618 ;;
  7619                           
  7620     0826                     ___fltol:	
  7621                           ;psect for function ___fltol
  7622                           
  7623     0826                     l4010:	
  7624                           ;incstack = 0
  7625                           ; Regs used in ___fltol: [wreg+status,2+status,0]
  7626                           
  7627     0826  1003               	clrc
  7628     0827  1683               	bsf	3,5	;RP0=1, select bank1
  7629     0828  1303               	bcf	3,6	;RP1=0, select bank1
  7630     0829  0D22               	rlf	(___fltol@f1+2)^(0+128),w
  7631     082A  0D23               	rlf	(___fltol@f1+3)^(0+128),w
  7632     082B  00A9               	movwf	___fltol@exp1^(0+128)
  7633     082C  0829               	movf	___fltol@exp1^(0+128),w
  7634     082D  1D03               	btfss	3,2
  7635     082E  2830               	goto	u6731
  7636     082F  2831               	goto	u6730
  7637     0830                     u6731:
  7638     0830  283A               	goto	l4016
  7639     0831                     u6730:
  7640     0831                     l4012:
  7641     0831  3000               	movlw	0
  7642     0832  00A3               	movwf	(?___fltol+3)^(0+128)
  7643     0833  3000               	movlw	0
  7644     0834  00A2               	movwf	(?___fltol+2)^(0+128)
  7645     0835  3000               	movlw	0
  7646     0836  00A1               	movwf	(?___fltol+1)^(0+128)
  7647     0837  3000               	movlw	0
  7648     0838  00A0               	movwf	?___fltol^(0+128)
  7649     0839  289D               	goto	l551
  7650     083A                     l4016:
  7651     083A  0820               	movf	___fltol@f1^(0+128),w
  7652     083B  00A4               	movwf	??___fltol^(0+128)
  7653     083C  0821               	movf	(___fltol@f1+1)^(0+128),w
  7654     083D  00A5               	movwf	(??___fltol^(0+128)+1)
  7655     083E  0822               	movf	(___fltol@f1+2)^(0+128),w
  7656     083F  00A6               	movwf	(??___fltol^(0+128)+2)
  7657     0840  0823               	movf	(___fltol@f1+3)^(0+128),w
  7658     0841  00A7               	movwf	(??___fltol^(0+128)+3)
  7659     0842  301F               	movlw	31
  7660     0843                     u6745:
  7661     0843  1003               	clrc
  7662     0844  0CA7               	rrf	(??___fltol^(0+128)+3),f
  7663     0845  0CA6               	rrf	(??___fltol^(0+128)+2),f
  7664     0846  0CA5               	rrf	(??___fltol^(0+128)+1),f
  7665     0847  0CA4               	rrf	??___fltol^(0+128),f
  7666     0848                     u6740:
  7667     0848  3EFF               	addlw	-1
  7668     0849  1D03               	skipz
  7669     084A  2843               	goto	u6745
  7670     084B  0824               	movf	??___fltol^(0+128),w
  7671     084C  00A8               	movwf	___fltol@sign1^(0+128)
  7672     084D                     l4018:
  7673     084D  17A2               	bsf	(___fltol@f1^(0+128)+2),7
  7674     084E                     l4020:
  7675     084E  30FF               	movlw	255
  7676     084F  05A0               	andwf	___fltol@f1^(0+128),f
  7677     0850  30FF               	movlw	255
  7678     0851  05A1               	andwf	(___fltol@f1+1)^(0+128),f
  7679     0852  30FF               	movlw	255
  7680     0853  05A2               	andwf	(___fltol@f1+2)^(0+128),f
  7681     0854  3000               	movlw	0
  7682     0855  05A3               	andwf	(___fltol@f1+3)^(0+128),f
  7683     0856                     l4022:
  7684     0856  3096               	movlw	150
  7685     0857  02A9               	subwf	___fltol@exp1^(0+128),f
  7686     0858                     l4024:
  7687     0858  1FA9               	btfss	___fltol@exp1^(0+128),7
  7688     0859  285B               	goto	u6751
  7689     085A  285C               	goto	u6750
  7690     085B                     u6751:
  7691     085B  2876               	goto	l4034
  7692     085C                     u6750:
  7693     085C                     l4026:
  7694     085C  0829               	movf	___fltol@exp1^(0+128),w
  7695     085D  3A80               	xorlw	128
  7696     085E  3E97               	addlw	151
  7697     085F  1803               	skipnc
  7698     0860  2862               	goto	u6761
  7699     0861  2863               	goto	u6760
  7700     0862                     u6761:
  7701     0862  2864               	goto	l4032
  7702     0863                     u6760:
  7703     0863  2831               	goto	l4012
  7704     0864                     l4032:
  7705     0864  3001               	movlw	1
  7706     0865                     u6775:
  7707     0865  1003               	clrc
  7708     0866  0CA3               	rrf	(___fltol@f1+3)^(0+128),f
  7709     0867  0CA2               	rrf	(___fltol@f1+2)^(0+128),f
  7710     0868  0CA1               	rrf	(___fltol@f1+1)^(0+128),f
  7711     0869  0CA0               	rrf	___fltol@f1^(0+128),f
  7712     086A  3EFF               	addlw	-1
  7713     086B  1D03               	skipz
  7714     086C  2865               	goto	u6775
  7715     086D  3001               	movlw	1
  7716     086E  00A4               	movwf	??___fltol^(0+128)
  7717     086F  0824               	movf	??___fltol^(0+128),w
  7718     0870  07A9               	addwf	___fltol@exp1^(0+128),f
  7719     0871  1D03               	btfss	3,2
  7720     0872  2874               	goto	u6781
  7721     0873  2875               	goto	u6780
  7722     0874                     u6781:
  7723     0874  2864               	goto	l4032
  7724     0875                     u6780:
  7725     0875  288D               	goto	l4042
  7726     0876                     l4034:
  7727     0876  3020               	movlw	32
  7728     0877  0229               	subwf	___fltol@exp1^(0+128),w
  7729     0878  1C03               	skipc
  7730     0879  287B               	goto	u6791
  7731     087A  287C               	goto	u6790
  7732     087B                     u6791:
  7733     087B  2888               	goto	l558
  7734     087C                     u6790:
  7735     087C  2831               	goto	l4012
  7736     087D                     l4040:
  7737     087D  3001               	movlw	1
  7738     087E  00A4               	movwf	??___fltol^(0+128)
  7739     087F                     u6805:
  7740     087F  1003               	clrc
  7741     0880  0DA0               	rlf	___fltol@f1^(0+128),f
  7742     0881  0DA1               	rlf	(___fltol@f1+1)^(0+128),f
  7743     0882  0DA2               	rlf	(___fltol@f1+2)^(0+128),f
  7744     0883  0DA3               	rlf	(___fltol@f1+3)^(0+128),f
  7745     0884  0BA4               	decfsz	??___fltol^(0+128),f
  7746     0885  287F               	goto	u6805
  7747     0886  3001               	movlw	1
  7748     0887  02A9               	subwf	___fltol@exp1^(0+128),f
  7749     0888                     l558:
  7750     0888  0829               	movf	___fltol@exp1^(0+128),w
  7751     0889  1D03               	btfss	3,2
  7752     088A  288C               	goto	u6811
  7753     088B  288D               	goto	u6810
  7754     088C                     u6811:
  7755     088C  287D               	goto	l4040
  7756     088D                     u6810:
  7757     088D                     l4042:
  7758     088D  0828               	movf	___fltol@sign1^(0+128),w
  7759     088E  1903               	btfsc	3,2
  7760     088F  2891               	goto	u6821
  7761     0890  2892               	goto	u6820
  7762     0891                     u6821:
  7763     0891  289D               	goto	l561
  7764     0892                     u6820:
  7765     0892                     l4044:
  7766     0892  09A0               	comf	___fltol@f1^(0+128),f
  7767     0893  09A1               	comf	(___fltol@f1+1)^(0+128),f
  7768     0894  09A2               	comf	(___fltol@f1+2)^(0+128),f
  7769     0895  09A3               	comf	(___fltol@f1+3)^(0+128),f
  7770     0896  0AA0               	incf	___fltol@f1^(0+128),f
  7771     0897  1903               	skipnz
  7772     0898  0AA1               	incf	(___fltol@f1+1)^(0+128),f
  7773     0899  1903               	skipnz
  7774     089A  0AA2               	incf	(___fltol@f1+2)^(0+128),f
  7775     089B  1903               	skipnz
  7776     089C  0AA3               	incf	(___fltol@f1+3)^(0+128),f
  7777     089D                     l561:
  7778     089D                     l551:
  7779     089D  0008               	return
  7780     089E                     __end_of___fltol:
  7781                           
  7782                           	psect	text17
  7783     0802                     __ptext17:	
  7784 ;; *************** function ___flsub *****************
  7785 ;; Defined at:
  7786 ;;		line 242 in file "C:\Program Files\Microchip\xc8\v2.40\pic\sources\c90\common\sprcadd.c"
  7787 ;; Parameters:    Size  Location     Type
  7788 ;;  a               4   20[BANK1 ] long 
  7789 ;;  b               4   24[BANK1 ] long 
  7790 ;; Auto vars:     Size  Location     Type
  7791 ;;		None
  7792 ;; Return value:  Size  Location     Type
  7793 ;;                  4   20[BANK1 ] long 
  7794 ;; Registers used:
  7795 ;;		wreg, status,2, status,0, btemp+1, pclath, cstack
  7796 ;; Tracked objects:
  7797 ;;		On entry : 0/0
  7798 ;;		On exit  : 0/0
  7799 ;;		Unchanged: 0/0
  7800 ;; Data sizes:     COMMON   BANK0   BANK1   BANK3   BANK2
  7801 ;;      Params:         0       0       8       0       0
  7802 ;;      Locals:         0       0       0       0       0
  7803 ;;      Temps:          0       0       0       0       0
  7804 ;;      Totals:         0       0       8       0       0
  7805 ;;Total ram usage:        8 bytes
  7806 ;; Hardware stack levels used: 1
  7807 ;; Hardware stack levels required when called: 3
  7808 ;; This function calls:
  7809 ;;		___fladd
  7810 ;; This function is called by:
  7811 ;;		_sprintf
  7812 ;; This function uses a non-reentrant model
  7813 ;;
  7814                           
  7815     0802                     ___flsub:	
  7816                           ;psect for function ___flsub
  7817                           
  7818     0802                     l4046:	
  7819                           ;incstack = 0
  7820                           ; Regs used in ___flsub: [wreg+status,2+status,0+btemp+1+pclath+cstack]
  7821                           
  7822     0802  3080               	movlw	128
  7823     0803  1683               	bsf	3,5	;RP0=1, select bank1
  7824     0804  1303               	bcf	3,6	;RP1=0, select bank1
  7825     0805  06B7               	xorwf	(___flsub@a+3)^(0+128),f
  7826     0806                     l4048:
  7827     0806  083B               	movf	(___flsub@b+3)^(0+128),w
  7828     0807  00A3               	movwf	(___fladd@b+3)^(0+128)
  7829     0808  083A               	movf	(___flsub@b+2)^(0+128),w
  7830     0809  00A2               	movwf	(___fladd@b+2)^(0+128)
  7831     080A  0839               	movf	(___flsub@b+1)^(0+128),w
  7832     080B  00A1               	movwf	(___fladd@b+1)^(0+128)
  7833     080C  0838               	movf	___flsub@b^(0+128),w
  7834     080D  00A0               	movwf	___fladd@b^(0+128)
  7835     080E  0837               	movf	(___flsub@a+3)^(0+128),w
  7836     080F  00A7               	movwf	(___fladd@a+3)^(0+128)
  7837     0810  0836               	movf	(___flsub@a+2)^(0+128),w
  7838     0811  00A6               	movwf	(___fladd@a+2)^(0+128)
  7839     0812  0835               	movf	(___flsub@a+1)^(0+128),w
  7840     0813  00A5               	movwf	(___fladd@a+1)^(0+128)
  7841     0814  0834               	movf	___flsub@a^(0+128),w
  7842     0815  00A4               	movwf	___fladd@a^(0+128)
  7843     0816  160A  118A  2316  120A  158A  	fcall	___fladd
  7844     081B  1683               	bsf	3,5	;RP0=1, select bank1
  7845     081C  1303               	bcf	3,6	;RP1=0, select bank1
  7846     081D  0823               	movf	(?___fladd+3)^(0+128),w
  7847     081E  00B7               	movwf	(?___flsub+3)^(0+128)
  7848     081F  0822               	movf	(?___fladd+2)^(0+128),w
  7849     0820  00B6               	movwf	(?___flsub+2)^(0+128)
  7850     0821  0821               	movf	(?___fladd+1)^(0+128),w
  7851     0822  00B5               	movwf	(?___flsub+1)^(0+128)
  7852     0823  0820               	movf	?___fladd^(0+128),w
  7853     0824  00B4               	movwf	?___flsub^(0+128)
  7854     0825                     l721:
  7855     0825  0008               	return
  7856     0826                     __end_of___flsub:
  7857                           
  7858                           	psect	text18
  7859     1316                     __ptext18:	
  7860 ;; *************** function ___fladd *****************
  7861 ;; Defined at:
  7862 ;;		line 10 in file "C:\Program Files\Microchip\xc8\v2.40\pic\sources\c90\common\sprcadd.c"
  7863 ;; Parameters:    Size  Location     Type
  7864 ;;  b               4    0[BANK1 ] long 
  7865 ;;  a               4    4[BANK1 ] long 
  7866 ;; Auto vars:     Size  Location     Type
  7867 ;;  grs             1   19[BANK1 ] unsigned char 
  7868 ;;  bexp            1   18[BANK1 ] unsigned char 
  7869 ;;  aexp            1   17[BANK1 ] unsigned char 
  7870 ;;  signs           1   16[BANK1 ] unsigned char 
  7871 ;; Return value:  Size  Location     Type
  7872 ;;                  4    0[BANK1 ] unsigned char 
  7873 ;; Registers used:
  7874 ;;		wreg, status,2, status,0, btemp+1
  7875 ;; Tracked objects:
  7876 ;;		On entry : 0/0
  7877 ;;		On exit  : 0/0
  7878 ;;		Unchanged: 0/0
  7879 ;; Data sizes:     COMMON   BANK0   BANK1   BANK3   BANK2
  7880 ;;      Params:         0       0       8       0       0
  7881 ;;      Locals:         0       0       4       0       0
  7882 ;;      Temps:          0       0       8       0       0
  7883 ;;      Totals:         0       0      20       0       0
  7884 ;;Total ram usage:       20 bytes
  7885 ;; Hardware stack levels used: 1
  7886 ;; Hardware stack levels required when called: 2
  7887 ;; This function calls:
  7888 ;;		Nothing
  7889 ;; This function is called by:
  7890 ;;		_sprintf
  7891 ;;		___flsub
  7892 ;; This function uses a non-reentrant model
  7893 ;;
  7894                           
  7895     1316                     ___fladd:	
  7896                           ;psect for function ___fladd
  7897                           
  7898     1316                     l3816:	
  7899                           ;incstack = 0
  7900                           ; Regs used in ___fladd: [wreg+status,2+status,0+btemp+1]
  7901                           
  7902     1316  1683               	bsf	3,5	;RP0=1, select bank1
  7903     1317  1303               	bcf	3,6	;RP1=0, select bank1
  7904     1318  0823               	movf	(___fladd@b^(0+128)+3),w
  7905     1319  3980               	andlw	128
  7906     131A  00B0               	movwf	___fladd@signs^(0+128)
  7907     131B                     l3818:
  7908     131B  0823               	movf	(___fladd@b^(0+128)+3),w
  7909     131C  00A8               	movwf	??___fladd^(0+128)
  7910     131D  0728               	addwf	??___fladd^(0+128),w
  7911     131E  00B2               	movwf	___fladd@bexp^(0+128)
  7912     131F                     l3820:
  7913     131F  1FA2               	btfss	(___fladd@b^(0+128)+2),7
  7914     1320  2B22               	goto	u6271
  7915     1321  2B23               	goto	u6270
  7916     1322                     u6271:
  7917     1322  2B24               	goto	l3824
  7918     1323                     u6270:
  7919     1323                     l3822:
  7920     1323  1432               	bsf	___fladd@bexp^(0+128),0
  7921     1324                     l3824:
  7922     1324  0832               	movf	___fladd@bexp^(0+128),w
  7923     1325  1903               	btfsc	3,2
  7924     1326  2B28               	goto	u6281
  7925     1327  2B29               	goto	u6280
  7926     1328                     u6281:
  7927     1328  2B39               	goto	l3834
  7928     1329                     u6280:
  7929     1329                     l3826:
  7930     1329  0A32               	incf	___fladd@bexp^(0+128),w
  7931     132A  1D03               	btfss	3,2
  7932     132B  2B2D               	goto	u6291
  7933     132C  2B2E               	goto	u6290
  7934     132D                     u6291:
  7935     132D  2B36               	goto	l3830
  7936     132E                     u6290:
  7937     132E                     l3828:
  7938     132E  3000               	movlw	0
  7939     132F  00A3               	movwf	(___fladd@b+3)^(0+128)
  7940     1330  3000               	movlw	0
  7941     1331  00A2               	movwf	(___fladd@b+2)^(0+128)
  7942     1332  3000               	movlw	0
  7943     1333  00A1               	movwf	(___fladd@b+1)^(0+128)
  7944     1334  3000               	movlw	0
  7945     1335  00A0               	movwf	___fladd@b^(0+128)
  7946     1336                     l3830:
  7947     1336  17A2               	bsf	(___fladd@b^(0+128)+2),7
  7948     1337                     l3832:
  7949     1337  01A3               	clrf	(___fladd@b^(0+128)+3)
  7950     1338  2B41               	goto	l3836
  7951     1339                     l3834:
  7952     1339  3000               	movlw	0
  7953     133A  00A3               	movwf	(___fladd@b+3)^(0+128)
  7954     133B  3000               	movlw	0
  7955     133C  00A2               	movwf	(___fladd@b+2)^(0+128)
  7956     133D  3000               	movlw	0
  7957     133E  00A1               	movwf	(___fladd@b+1)^(0+128)
  7958     133F  3000               	movlw	0
  7959     1340  00A0               	movwf	___fladd@b^(0+128)
  7960     1341                     l3836:
  7961     1341  0827               	movf	(___fladd@a^(0+128)+3),w
  7962     1342  3980               	andlw	128
  7963     1343  00B1               	movwf	___fladd@aexp^(0+128)
  7964     1344                     l3838:
  7965     1344  0831               	movf	___fladd@aexp^(0+128),w
  7966     1345  0630               	xorwf	___fladd@signs^(0+128),w
  7967     1346  1903               	skipnz
  7968     1347  2B49               	goto	u6301
  7969     1348  2B4A               	goto	u6300
  7970     1349                     u6301:
  7971     1349  2B4B               	goto	l3842
  7972     134A                     u6300:
  7973     134A                     l3840:
  7974     134A  1730               	bsf	___fladd@signs^(0+128),6
  7975     134B                     l3842:
  7976     134B  0827               	movf	(___fladd@a^(0+128)+3),w
  7977     134C  00A8               	movwf	??___fladd^(0+128)
  7978     134D  0728               	addwf	??___fladd^(0+128),w
  7979     134E  00B1               	movwf	___fladd@aexp^(0+128)
  7980     134F                     l3844:
  7981     134F  1FA6               	btfss	(___fladd@a^(0+128)+2),7
  7982     1350  2B52               	goto	u6311
  7983     1351  2B53               	goto	u6310
  7984     1352                     u6311:
  7985     1352  2B54               	goto	l3848
  7986     1353                     u6310:
  7987     1353                     l3846:
  7988     1353  1431               	bsf	___fladd@aexp^(0+128),0
  7989     1354                     l3848:
  7990     1354  0831               	movf	___fladd@aexp^(0+128),w
  7991     1355  1903               	btfsc	3,2
  7992     1356  2B58               	goto	u6321
  7993     1357  2B59               	goto	u6320
  7994     1358                     u6321:
  7995     1358  2B69               	goto	l3858
  7996     1359                     u6320:
  7997     1359                     l3850:
  7998     1359  0A31               	incf	___fladd@aexp^(0+128),w
  7999     135A  1D03               	btfss	3,2
  8000     135B  2B5D               	goto	u6331
  8001     135C  2B5E               	goto	u6330
  8002     135D                     u6331:
  8003     135D  2B66               	goto	l3854
  8004     135E                     u6330:
  8005     135E                     l3852:
  8006     135E  3000               	movlw	0
  8007     135F  00A7               	movwf	(___fladd@a+3)^(0+128)
  8008     1360  3000               	movlw	0
  8009     1361  00A6               	movwf	(___fladd@a+2)^(0+128)
  8010     1362  3000               	movlw	0
  8011     1363  00A5               	movwf	(___fladd@a+1)^(0+128)
  8012     1364  3000               	movlw	0
  8013     1365  00A4               	movwf	___fladd@a^(0+128)
  8014     1366                     l3854:
  8015     1366  17A6               	bsf	(___fladd@a^(0+128)+2),7
  8016     1367                     l3856:
  8017     1367  01A7               	clrf	(___fladd@a^(0+128)+3)
  8018     1368  2B71               	goto	l675
  8019     1369                     l3858:
  8020     1369  3000               	movlw	0
  8021     136A  00A7               	movwf	(___fladd@a+3)^(0+128)
  8022     136B  3000               	movlw	0
  8023     136C  00A6               	movwf	(___fladd@a+2)^(0+128)
  8024     136D  3000               	movlw	0
  8025     136E  00A5               	movwf	(___fladd@a+1)^(0+128)
  8026     136F  3000               	movlw	0
  8027     1370  00A4               	movwf	___fladd@a^(0+128)
  8028     1371                     l675:
  8029     1371  0832               	movf	___fladd@bexp^(0+128),w
  8030     1372  0231               	subwf	___fladd@aexp^(0+128),w
  8031     1373  1803               	skipnc
  8032     1374  2B76               	goto	u6341
  8033     1375  2B77               	goto	u6340
  8034     1376                     u6341:
  8035     1376  2B9D               	goto	l3894
  8036     1377                     u6340:
  8037     1377                     l3860:
  8038     1377  1F30               	btfss	___fladd@signs^(0+128),6
  8039     1378  2B7A               	goto	u6351
  8040     1379  2B7B               	goto	u6350
  8041     137A                     u6351:
  8042     137A  2B7F               	goto	l3864
  8043     137B                     u6350:
  8044     137B                     l3862:
  8045     137B  3080               	movlw	128
  8046     137C  00A8               	movwf	??___fladd^(0+128)
  8047     137D  0828               	movf	??___fladd^(0+128),w
  8048     137E  06B0               	xorwf	___fladd@signs^(0+128),f
  8049     137F                     l3864:
  8050     137F  0832               	movf	___fladd@bexp^(0+128),w
  8051     1380  00B3               	movwf	___fladd@grs^(0+128)
  8052     1381                     l3866:
  8053     1381  0831               	movf	___fladd@aexp^(0+128),w
  8054     1382  00B2               	movwf	___fladd@bexp^(0+128)
  8055     1383                     l3868:
  8056     1383  0833               	movf	___fladd@grs^(0+128),w
  8057     1384  00B1               	movwf	___fladd@aexp^(0+128)
  8058     1385                     l3870:
  8059     1385  0820               	movf	___fladd@b^(0+128),w
  8060     1386  00B3               	movwf	___fladd@grs^(0+128)
  8061     1387                     l3872:
  8062     1387  0824               	movf	___fladd@a^(0+128),w
  8063     1388  00A0               	movwf	___fladd@b^(0+128)
  8064     1389                     l3874:
  8065     1389  0833               	movf	___fladd@grs^(0+128),w
  8066     138A  00A4               	movwf	___fladd@a^(0+128)
  8067     138B                     l3876:
  8068     138B  0821               	movf	(___fladd@b^(0+128)+1),w
  8069     138C  00B3               	movwf	___fladd@grs^(0+128)
  8070     138D                     l3878:
  8071     138D  0825               	movf	(___fladd@a^(0+128)+1),w
  8072     138E  00A1               	movwf	(___fladd@b^(0+128)+1)
  8073     138F                     l3880:
  8074     138F  0833               	movf	___fladd@grs^(0+128),w
  8075     1390  00A5               	movwf	(___fladd@a^(0+128)+1)
  8076     1391                     l3882:
  8077     1391  0822               	movf	(___fladd@b^(0+128)+2),w
  8078     1392  00B3               	movwf	___fladd@grs^(0+128)
  8079     1393                     l3884:
  8080     1393  0826               	movf	(___fladd@a^(0+128)+2),w
  8081     1394  00A2               	movwf	(___fladd@b^(0+128)+2)
  8082     1395                     l3886:
  8083     1395  0833               	movf	___fladd@grs^(0+128),w
  8084     1396  00A6               	movwf	(___fladd@a^(0+128)+2)
  8085     1397                     l3888:
  8086     1397  0823               	movf	(___fladd@b^(0+128)+3),w
  8087     1398  00B3               	movwf	___fladd@grs^(0+128)
  8088     1399                     l3890:
  8089     1399  0827               	movf	(___fladd@a^(0+128)+3),w
  8090     139A  00A3               	movwf	(___fladd@b^(0+128)+3)
  8091     139B                     l3892:
  8092     139B  0833               	movf	___fladd@grs^(0+128),w
  8093     139C  00A7               	movwf	(___fladd@a^(0+128)+3)
  8094     139D                     l3894:
  8095     139D  01B3               	clrf	___fladd@grs^(0+128)
  8096     139E                     l3896:
  8097     139E  0831               	movf	___fladd@aexp^(0+128),w
  8098     139F  00A8               	movwf	??___fladd^(0+128)
  8099     13A0  01A9               	clrf	(??___fladd^(0+128)+1)
  8100     13A1  0829               	movf	(??___fladd+1)^(0+128),w
  8101     13A2  00AB               	movwf	((??___fladd+2)^(0+128)+1)
  8102     13A3  0832               	movf	___fladd@bexp^(0+128),w
  8103     13A4  0228               	subwf	??___fladd^(0+128),w
  8104     13A5  00AA               	movwf	(??___fladd+2)^(0+128)
  8105     13A6  1C03               	skipc
  8106     13A7  03AB               	decf	((??___fladd+2)^(0+128)+1),f
  8107     13A8  082B               	movf	(??___fladd+3)^(0+128),w
  8108     13A9  3A80               	xorlw	128
  8109     13AA  00FF               	movwf	btemp+1
  8110     13AB  3080               	movlw	128
  8111     13AC  027F               	subwf	btemp+1,w
  8112     13AD  1D03               	skipz
  8113     13AE  2BB1               	goto	u6365
  8114     13AF  301A               	movlw	26
  8115     13B0  022A               	subwf	(??___fladd+2)^(0+128),w
  8116     13B1                     u6365:
  8117     13B1  1C03               	skipc
  8118     13B2  2BB4               	goto	u6361
  8119     13B3  2BB5               	goto	u6360
  8120     13B4                     u6361:
  8121     13B4  2BEC               	goto	l3912
  8122     13B5                     u6360:
  8123     13B5                     l3898:
  8124     13B5  1683               	bsf	3,5	;RP0=1, select bank1
  8125     13B6  1303               	bcf	3,6	;RP1=0, select bank1
  8126     13B7  0823               	movf	(___fladd@b+3)^(0+128),w
  8127     13B8  0422               	iorwf	(___fladd@b+2)^(0+128),w
  8128     13B9  0421               	iorwf	(___fladd@b+1)^(0+128),w
  8129     13BA  0420               	iorwf	___fladd@b^(0+128),w
  8130     13BB  1D03               	skipz
  8131     13BC  2BBE               	goto	u6371
  8132     13BD  2BC0               	goto	u6370
  8133     13BE                     u6371:
  8134     13BE  3001               	movlw	1
  8135     13BF  2BC1               	goto	u6380
  8136     13C0                     u6370:
  8137     13C0  3000               	movlw	0
  8138     13C1                     u6380:
  8139     13C1  00B3               	movwf	___fladd@grs^(0+128)
  8140     13C2  3000               	movlw	0
  8141     13C3  00A3               	movwf	(___fladd@b+3)^(0+128)
  8142     13C4  3000               	movlw	0
  8143     13C5  00A2               	movwf	(___fladd@b+2)^(0+128)
  8144     13C6  3000               	movlw	0
  8145     13C7  00A1               	movwf	(___fladd@b+1)^(0+128)
  8146     13C8  3000               	movlw	0
  8147     13C9  00A0               	movwf	___fladd@b^(0+128)
  8148     13CA  0831               	movf	___fladd@aexp^(0+128),w
  8149     13CB  00B2               	movwf	___fladd@bexp^(0+128)
  8150     13CC  2BF4               	goto	l679
  8151     13CD                     l681:
  8152     13CD  1C33               	btfss	___fladd@grs^(0+128),0
  8153     13CE  2BD0               	goto	u6391
  8154     13CF  2BD1               	goto	u6390
  8155     13D0                     u6391:
  8156     13D0  2BD8               	goto	l3902
  8157     13D1                     u6390:
  8158     13D1                     l3900:
  8159     13D1  0833               	movf	___fladd@grs^(0+128),w
  8160     13D2  00A8               	movwf	??___fladd^(0+128)
  8161     13D3  1003               	clrc
  8162     13D4  0C28               	rrf	??___fladd^(0+128),w
  8163     13D5  3801               	iorlw	1
  8164     13D6  00B3               	movwf	___fladd@grs^(0+128)
  8165     13D7  2BDA               	goto	l3904
  8166     13D8                     l3902:
  8167     13D8  1003               	clrc
  8168     13D9  0CB3               	rrf	___fladd@grs^(0+128),f
  8169     13DA                     l3904:
  8170     13DA  1C20               	btfss	___fladd@b^(0+128),0
  8171     13DB  2BDD               	goto	u6401
  8172     13DC  2BDE               	goto	u6400
  8173     13DD                     u6401:
  8174     13DD  2BDF               	goto	l3908
  8175     13DE                     u6400:
  8176     13DE                     l3906:
  8177     13DE  17B3               	bsf	___fladd@grs^(0+128),7
  8178     13DF                     l3908:
  8179     13DF  3001               	movlw	1
  8180     13E0  00A8               	movwf	??___fladd^(0+128)
  8181     13E1                     u6415:
  8182     13E1  0D23               	rlf	(___fladd@b+3)^(0+128),w
  8183     13E2  0CA3               	rrf	(___fladd@b+3)^(0+128),f
  8184     13E3  0CA2               	rrf	(___fladd@b+2)^(0+128),f
  8185     13E4  0CA1               	rrf	(___fladd@b+1)^(0+128),f
  8186     13E5  0CA0               	rrf	___fladd@b^(0+128),f
  8187     13E6  0BA8               	decfsz	(??___fladd^(0+128))& (0+127),f
  8188     13E7  2BE1               	goto	u6415
  8189     13E8                     l3910:
  8190     13E8  3001               	movlw	1
  8191     13E9  00A8               	movwf	??___fladd^(0+128)
  8192     13EA  0828               	movf	??___fladd^(0+128),w
  8193     13EB  07B2               	addwf	___fladd@bexp^(0+128),f
  8194     13EC                     l3912:
  8195     13EC  1683               	bsf	3,5	;RP0=1, select bank1
  8196     13ED  1303               	bcf	3,6	;RP1=0, select bank1
  8197     13EE  0831               	movf	___fladd@aexp^(0+128),w
  8198     13EF  0232               	subwf	___fladd@bexp^(0+128),w
  8199     13F0  1C03               	skipc
  8200     13F1  2BF3               	goto	u6421
  8201     13F2  2BF4               	goto	u6420
  8202     13F3                     u6421:
  8203     13F3  2BCD               	goto	l681
  8204     13F4                     u6420:
  8205     13F4                     l679:
  8206     13F4  1B30               	btfsc	___fladd@signs^(0+128),6
  8207     13F5  2BF7               	goto	u6431
  8208     13F6  2BF8               	goto	u6430
  8209     13F7                     u6431:
  8210     13F7  2C41               	goto	l3938
  8211     13F8                     u6430:
  8212     13F8                     l3914:
  8213     13F8  0832               	movf	___fladd@bexp^(0+128),w
  8214     13F9  1D03               	btfss	3,2
  8215     13FA  2BFC               	goto	u6441
  8216     13FB  2BFD               	goto	u6440
  8217     13FC                     u6441:
  8218     13FC  2C06               	goto	l3920
  8219     13FD                     u6440:
  8220     13FD                     l3916:
  8221     13FD  3000               	movlw	0
  8222     13FE  00A3               	movwf	(?___fladd+3)^(0+128)
  8223     13FF  3000               	movlw	0
  8224     1400  00A2               	movwf	(?___fladd+2)^(0+128)
  8225     1401  3000               	movlw	0
  8226     1402  00A1               	movwf	(?___fladd+1)^(0+128)
  8227     1403  3000               	movlw	0
  8228     1404  00A0               	movwf	?___fladd^(0+128)
  8229     1405  2D6D               	goto	l688
  8230     1406                     l3920:
  8231     1406  0824               	movf	___fladd@a^(0+128),w
  8232     1407  07A0               	addwf	___fladd@b^(0+128),f
  8233     1408  0825               	movf	(___fladd@a+1)^(0+128),w
  8234     1409  1103               	clrz
  8235     140A  1803               	skipnc
  8236     140B  3E01               	addlw	1
  8237     140C  1903               	skipnz
  8238     140D  2C0F               	goto	u6451
  8239     140E  07A1               	addwf	(___fladd@b+1)^(0+128),f
  8240     140F                     u6451:
  8241     140F  0826               	movf	(___fladd@a+2)^(0+128),w
  8242     1410  1103               	clrz
  8243     1411  1803               	skipnc
  8244     1412  3E01               	addlw	1
  8245     1413  1903               	skipnz
  8246     1414  2C16               	goto	u6452
  8247     1415  07A2               	addwf	(___fladd@b+2)^(0+128),f
  8248     1416                     u6452:
  8249     1416  0827               	movf	(___fladd@a+3)^(0+128),w
  8250     1417  1103               	clrz
  8251     1418  1803               	skipnc
  8252     1419  3E01               	addlw	1
  8253     141A  1903               	skipnz
  8254     141B  2C1D               	goto	u6453
  8255     141C  07A3               	addwf	(___fladd@b+3)^(0+128),f
  8256     141D                     u6453:
  8257     141D                     l3922:
  8258     141D  1C23               	btfss	(___fladd@b+3)^(0+128),0
  8259     141E  2C20               	goto	u6461
  8260     141F  2C21               	goto	u6460
  8261     1420                     u6461:
  8262     1420  2CF5               	goto	l3972
  8263     1421                     u6460:
  8264     1421                     l3924:
  8265     1421  1C33               	btfss	___fladd@grs^(0+128),0
  8266     1422  2C24               	goto	u6471
  8267     1423  2C25               	goto	u6470
  8268     1424                     u6471:
  8269     1424  2C2C               	goto	l3928
  8270     1425                     u6470:
  8271     1425                     l3926:
  8272     1425  0833               	movf	___fladd@grs^(0+128),w
  8273     1426  00A8               	movwf	??___fladd^(0+128)
  8274     1427  1003               	clrc
  8275     1428  0C28               	rrf	??___fladd^(0+128),w
  8276     1429  3801               	iorlw	1
  8277     142A  00B3               	movwf	___fladd@grs^(0+128)
  8278     142B  2C2E               	goto	l3930
  8279     142C                     l3928:
  8280     142C  1003               	clrc
  8281     142D  0CB3               	rrf	___fladd@grs^(0+128),f
  8282     142E                     l3930:
  8283     142E  1C20               	btfss	___fladd@b^(0+128),0
  8284     142F  2C31               	goto	u6481
  8285     1430  2C32               	goto	u6480
  8286     1431                     u6481:
  8287     1431  2C33               	goto	l3934
  8288     1432                     u6480:
  8289     1432                     l3932:
  8290     1432  17B3               	bsf	___fladd@grs^(0+128),7
  8291     1433                     l3934:
  8292     1433  3001               	movlw	1
  8293     1434  00A8               	movwf	??___fladd^(0+128)
  8294     1435                     u6495:
  8295     1435  0D23               	rlf	(___fladd@b+3)^(0+128),w
  8296     1436  0CA3               	rrf	(___fladd@b+3)^(0+128),f
  8297     1437  0CA2               	rrf	(___fladd@b+2)^(0+128),f
  8298     1438  0CA1               	rrf	(___fladd@b+1)^(0+128),f
  8299     1439  0CA0               	rrf	___fladd@b^(0+128),f
  8300     143A  0BA8               	decfsz	(??___fladd^(0+128))& (0+127),f
  8301     143B  2C35               	goto	u6495
  8302     143C                     l3936:
  8303     143C  3001               	movlw	1
  8304     143D  00A8               	movwf	??___fladd^(0+128)
  8305     143E  0828               	movf	??___fladd^(0+128),w
  8306     143F  07B2               	addwf	___fladd@bexp^(0+128),f
  8307     1440  2CF5               	goto	l3972
  8308     1441                     l3938:
  8309     1441  0823               	movf	(___fladd@b+3)^(0+128),w
  8310     1442  3A80               	xorlw	128
  8311     1443  00FF               	movwf	btemp+1
  8312     1444  0827               	movf	(___fladd@a+3)^(0+128),w
  8313     1445  3A80               	xorlw	128
  8314     1446  027F               	subwf	btemp+1,w
  8315     1447  1D03               	skipz
  8316     1448  2C53               	goto	u6503
  8317     1449  0826               	movf	(___fladd@a+2)^(0+128),w
  8318     144A  0222               	subwf	(___fladd@b+2)^(0+128),w
  8319     144B  1D03               	skipz
  8320     144C  2C53               	goto	u6503
  8321     144D  0825               	movf	(___fladd@a+1)^(0+128),w
  8322     144E  0221               	subwf	(___fladd@b+1)^(0+128),w
  8323     144F  1D03               	skipz
  8324     1450  2C53               	goto	u6503
  8325     1451  0824               	movf	___fladd@a^(0+128),w
  8326     1452  0220               	subwf	___fladd@b^(0+128),w
  8327     1453                     u6503:
  8328     1453  1803               	skipnc
  8329     1454  2C56               	goto	u6501
  8330     1455  2C57               	goto	u6500
  8331     1456                     u6501:
  8332     1456  2CAF               	goto	l3948
  8333     1457                     u6500:
  8334     1457                     l3940:
  8335     1457  30FF               	movlw	255
  8336     1458  00A8               	movwf	??___fladd^(0+128)
  8337     1459  30FF               	movlw	255
  8338     145A  00A9               	movwf	(??___fladd^(0+128)+1)
  8339     145B  30FF               	movlw	255
  8340     145C  00AA               	movwf	(??___fladd^(0+128)+2)
  8341     145D  30FF               	movlw	255
  8342     145E  00AB               	movwf	(??___fladd^(0+128)+3)
  8343     145F  0824               	movf	___fladd@a^(0+128),w
  8344     1460  00AC               	movwf	(??___fladd+4)^(0+128)
  8345     1461  0825               	movf	(___fladd@a+1)^(0+128),w
  8346     1462  00AD               	movwf	((??___fladd+4)^(0+128)+1)
  8347     1463  0826               	movf	(___fladd@a+2)^(0+128),w
  8348     1464  00AE               	movwf	((??___fladd+4)^(0+128)+2)
  8349     1465  0827               	movf	(___fladd@a+3)^(0+128),w
  8350     1466  00AF               	movwf	((??___fladd+4)^(0+128)+3)
  8351     1467  0820               	movf	___fladd@b^(0+128),w
  8352     1468  02AC               	subwf	(??___fladd+4)^(0+128),f
  8353     1469  0821               	movf	(___fladd@b+1)^(0+128),w
  8354     146A  1C03               	skipc
  8355     146B  0F21               	incfsz	(___fladd@b+1)^(0+128),w
  8356     146C  2C6E               	goto	u6511
  8357     146D  2C6F               	goto	u6512
  8358     146E                     u6511:
  8359     146E  02AD               	subwf	((??___fladd+4)^(0+128)+1),f
  8360     146F                     u6512:
  8361     146F  0822               	movf	(___fladd@b+2)^(0+128),w
  8362     1470  1C03               	skipc
  8363     1471  0F22               	incfsz	(___fladd@b+2)^(0+128),w
  8364     1472  2C74               	goto	u6513
  8365     1473  2C75               	goto	u6514
  8366     1474                     u6513:
  8367     1474  02AE               	subwf	((??___fladd+4)^(0+128)+2),f
  8368     1475                     u6514:
  8369     1475  0823               	movf	(___fladd@b+3)^(0+128),w
  8370     1476  1C03               	skipc
  8371     1477  0F23               	incfsz	(___fladd@b+3)^(0+128),w
  8372     1478  2C7A               	goto	u6515
  8373     1479  2C7B               	goto	u6516
  8374     147A                     u6515:
  8375     147A  02AF               	subwf	((??___fladd+4)^(0+128)+3),f
  8376     147B                     u6516:
  8377     147B  082C               	movf	(??___fladd+4)^(0+128),w
  8378     147C  07A8               	addwf	??___fladd^(0+128),f
  8379     147D  082D               	movf	(??___fladd+5)^(0+128),w
  8380     147E  1803               	skipnc
  8381     147F  0F2D               	incfsz	(??___fladd+5)^(0+128),w
  8382     1480  2C82               	goto	u6520
  8383     1481  2C83               	goto	u6521
  8384     1482                     u6520:
  8385     1482  07A9               	addwf	(??___fladd^(0+128)+1),f
  8386     1483                     u6521:
  8387     1483  082E               	movf	(??___fladd+6)^(0+128),w
  8388     1484  1803               	skipnc
  8389     1485  0F2E               	incfsz	(??___fladd+6)^(0+128),w
  8390     1486  2C88               	goto	u6522
  8391     1487  2C89               	goto	u6523
  8392     1488                     u6522:
  8393     1488  07AA               	addwf	(??___fladd^(0+128)+2),f
  8394     1489                     u6523:
  8395     1489  082F               	movf	(??___fladd+7)^(0+128),w
  8396     148A  1803               	skipnc
  8397     148B  0A2F               	incf	(??___fladd+7)^(0+128),w
  8398     148C  07AB               	addwf	(??___fladd^(0+128)+3),f
  8399     148D  082B               	movf	(??___fladd+3)^(0+128),w
  8400     148E  00A3               	movwf	(___fladd@b+3)^(0+128)
  8401     148F  082A               	movf	(??___fladd+2)^(0+128),w
  8402     1490  00A2               	movwf	(___fladd@b+2)^(0+128)
  8403     1491  0829               	movf	(??___fladd+1)^(0+128),w
  8404     1492  00A1               	movwf	(___fladd@b+1)^(0+128)
  8405     1493  0828               	movf	??___fladd^(0+128),w
  8406     1494  00A0               	movwf	___fladd@b^(0+128)
  8407     1495                     l3942:
  8408     1495  3080               	movlw	128
  8409     1496  00A8               	movwf	??___fladd^(0+128)
  8410     1497  0828               	movf	??___fladd^(0+128),w
  8411     1498  06B0               	xorwf	___fladd@signs^(0+128),f
  8412     1499  09B3               	comf	___fladd@grs^(0+128),f
  8413     149A  0AB3               	incf	___fladd@grs^(0+128),f
  8414     149B                     l3944:
  8415     149B  0833               	movf	___fladd@grs^(0+128),w
  8416     149C  1D03               	btfss	3,2
  8417     149D  2C9F               	goto	u6531
  8418     149E  2CA0               	goto	u6530
  8419     149F                     u6531:
  8420     149F  2CBD               	goto	l696
  8421     14A0                     u6530:
  8422     14A0                     l3946:
  8423     14A0  3001               	movlw	1
  8424     14A1  07A0               	addwf	___fladd@b^(0+128),f
  8425     14A2  3000               	movlw	0
  8426     14A3  1803               	skipnc
  8427     14A4  3001               	movlw	1
  8428     14A5  07A1               	addwf	(___fladd@b+1)^(0+128),f
  8429     14A6  3000               	movlw	0
  8430     14A7  1803               	skipnc
  8431     14A8  3001               	movlw	1
  8432     14A9  07A2               	addwf	(___fladd@b+2)^(0+128),f
  8433     14AA  3000               	movlw	0
  8434     14AB  1803               	skipnc
  8435     14AC  3001               	movlw	1
  8436     14AD  07A3               	addwf	(___fladd@b+3)^(0+128),f
  8437     14AE  2CBD               	goto	l696
  8438     14AF                     l3948:
  8439     14AF  0824               	movf	___fladd@a^(0+128),w
  8440     14B0  02A0               	subwf	___fladd@b^(0+128),f
  8441     14B1  0825               	movf	(___fladd@a+1)^(0+128),w
  8442     14B2  1C03               	skipc
  8443     14B3  0F25               	incfsz	(___fladd@a+1)^(0+128),w
  8444     14B4  02A1               	subwf	(___fladd@b+1)^(0+128),f
  8445     14B5  0826               	movf	(___fladd@a+2)^(0+128),w
  8446     14B6  1C03               	skipc
  8447     14B7  0F26               	incfsz	(___fladd@a+2)^(0+128),w
  8448     14B8  02A2               	subwf	(___fladd@b+2)^(0+128),f
  8449     14B9  0827               	movf	(___fladd@a+3)^(0+128),w
  8450     14BA  1C03               	skipc
  8451     14BB  0F27               	incfsz	(___fladd@a+3)^(0+128),w
  8452     14BC  02A3               	subwf	(___fladd@b+3)^(0+128),f
  8453     14BD                     l696:
  8454     14BD  0823               	movf	(___fladd@b+3)^(0+128),w
  8455     14BE  0422               	iorwf	(___fladd@b+2)^(0+128),w
  8456     14BF  0421               	iorwf	(___fladd@b+1)^(0+128),w
  8457     14C0  0420               	iorwf	___fladd@b^(0+128),w
  8458     14C1  1D03               	skipz
  8459     14C2  2CC4               	goto	u6541
  8460     14C3  2CC5               	goto	u6540
  8461     14C4                     u6541:
  8462     14C4  2CF1               	goto	l3970
  8463     14C5                     u6540:
  8464     14C5                     l3950:
  8465     14C5  0833               	movf	___fladd@grs^(0+128),w
  8466     14C6  1D03               	btfss	3,2
  8467     14C7  2CC9               	goto	u6551
  8468     14C8  2CCA               	goto	u6550
  8469     14C9                     u6551:
  8470     14C9  2CF1               	goto	l3970
  8471     14CA                     u6550:
  8472     14CA                     l3952:
  8473     14CA  3000               	movlw	0
  8474     14CB  00A3               	movwf	(?___fladd+3)^(0+128)
  8475     14CC  3000               	movlw	0
  8476     14CD  00A2               	movwf	(?___fladd+2)^(0+128)
  8477     14CE  3000               	movlw	0
  8478     14CF  00A1               	movwf	(?___fladd+1)^(0+128)
  8479     14D0  3000               	movlw	0
  8480     14D1  00A0               	movwf	?___fladd^(0+128)
  8481     14D2  2D6D               	goto	l688
  8482     14D3                     l3956:
  8483     14D3  3001               	movlw	1
  8484     14D4  00A8               	movwf	??___fladd^(0+128)
  8485     14D5                     u6565:
  8486     14D5  1003               	clrc
  8487     14D6  0DA0               	rlf	___fladd@b^(0+128),f
  8488     14D7  0DA1               	rlf	(___fladd@b+1)^(0+128),f
  8489     14D8  0DA2               	rlf	(___fladd@b+2)^(0+128),f
  8490     14D9  0DA3               	rlf	(___fladd@b+3)^(0+128),f
  8491     14DA  0BA8               	decfsz	??___fladd^(0+128),f
  8492     14DB  2CD5               	goto	u6565
  8493     14DC                     l3958:
  8494     14DC  1FB3               	btfss	___fladd@grs^(0+128),7
  8495     14DD  2CDF               	goto	u6571
  8496     14DE  2CE0               	goto	u6570
  8497     14DF                     u6571:
  8498     14DF  2CE1               	goto	l700
  8499     14E0                     u6570:
  8500     14E0                     l3960:
  8501     14E0  1420               	bsf	___fladd@b^(0+128),0
  8502     14E1                     l700:
  8503     14E1  1C33               	btfss	___fladd@grs^(0+128),0
  8504     14E2  2CE4               	goto	u6581
  8505     14E3  2CE5               	goto	u6580
  8506     14E4                     u6581:
  8507     14E4  2CE8               	goto	l3964
  8508     14E5                     u6580:
  8509     14E5                     l3962:
  8510     14E5  1403               	setc
  8511     14E6  0DB3               	rlf	___fladd@grs^(0+128),f
  8512     14E7  2CEA               	goto	l3966
  8513     14E8                     l3964:
  8514     14E8  1003               	clrc
  8515     14E9  0DB3               	rlf	___fladd@grs^(0+128),f
  8516     14EA                     l3966:
  8517     14EA  0832               	movf	___fladd@bexp^(0+128),w
  8518     14EB  1903               	btfsc	3,2
  8519     14EC  2CEE               	goto	u6591
  8520     14ED  2CEF               	goto	u6590
  8521     14EE                     u6591:
  8522     14EE  2CF1               	goto	l3970
  8523     14EF                     u6590:
  8524     14EF                     l3968:
  8525     14EF  3001               	movlw	1
  8526     14F0  02B2               	subwf	___fladd@bexp^(0+128),f
  8527     14F1                     l3970:
  8528     14F1  1FA2               	btfss	(___fladd@b+2)^(0+128),7
  8529     14F2  2CF4               	goto	u6601
  8530     14F3  2CF5               	goto	u6600
  8531     14F4                     u6601:
  8532     14F4  2CD3               	goto	l3956
  8533     14F5                     u6600:
  8534     14F5                     l3972:
  8535     14F5  01B1               	clrf	___fladd@aexp^(0+128)
  8536     14F6                     l3974:
  8537     14F6  1FB3               	btfss	___fladd@grs^(0+128),7
  8538     14F7  2CF9               	goto	u6611
  8539     14F8  2CFA               	goto	u6610
  8540     14F9                     u6611:
  8541     14F9  2D08               	goto	l3982
  8542     14FA                     u6610:
  8543     14FA                     l3976:
  8544     14FA  0833               	movf	___fladd@grs^(0+128),w
  8545     14FB  397F               	andlw	127
  8546     14FC  1903               	btfsc	3,2
  8547     14FD  2CFF               	goto	u6621
  8548     14FE  2D00               	goto	u6620
  8549     14FF                     u6621:
  8550     14FF  2D03               	goto	l706
  8551     1500                     u6620:
  8552     1500                     l3978:
  8553     1500  01B1               	clrf	___fladd@aexp^(0+128)
  8554     1501  0AB1               	incf	___fladd@aexp^(0+128),f
  8555     1502  2D08               	goto	l3982
  8556     1503                     l706:
  8557     1503  1C20               	btfss	___fladd@b^(0+128),0
  8558     1504  2D06               	goto	u6631
  8559     1505  2D07               	goto	u6630
  8560     1506                     u6631:
  8561     1506  2D08               	goto	l3982
  8562     1507                     u6630:
  8563     1507  2D00               	goto	l3978
  8564     1508                     l3982:
  8565     1508  0831               	movf	___fladd@aexp^(0+128),w
  8566     1509  1903               	btfsc	3,2
  8567     150A  2D0C               	goto	u6641
  8568     150B  2D0D               	goto	u6640
  8569     150C                     u6641:
  8570     150C  2D41               	goto	l709
  8571     150D                     u6640:
  8572     150D                     l3984:
  8573     150D  3001               	movlw	1
  8574     150E  07A0               	addwf	___fladd@b^(0+128),f
  8575     150F  3000               	movlw	0
  8576     1510  1803               	skipnc
  8577     1511  3001               	movlw	1
  8578     1512  07A1               	addwf	(___fladd@b+1)^(0+128),f
  8579     1513  3000               	movlw	0
  8580     1514  1803               	skipnc
  8581     1515  3001               	movlw	1
  8582     1516  07A2               	addwf	(___fladd@b+2)^(0+128),f
  8583     1517  3000               	movlw	0
  8584     1518  1803               	skipnc
  8585     1519  3001               	movlw	1
  8586     151A  07A3               	addwf	(___fladd@b+3)^(0+128),f
  8587     151B                     l3986:
  8588     151B  1C23               	btfss	(___fladd@b+3)^(0+128),0
  8589     151C  2D1E               	goto	u6651
  8590     151D  2D1F               	goto	u6650
  8591     151E                     u6651:
  8592     151E  2D41               	goto	l709
  8593     151F                     u6650:
  8594     151F                     l3988:
  8595     151F  0820               	movf	___fladd@b^(0+128),w
  8596     1520  00A8               	movwf	??___fladd^(0+128)
  8597     1521  0821               	movf	(___fladd@b+1)^(0+128),w
  8598     1522  00A9               	movwf	(??___fladd^(0+128)+1)
  8599     1523  0822               	movf	(___fladd@b+2)^(0+128),w
  8600     1524  00AA               	movwf	(??___fladd^(0+128)+2)
  8601     1525  0823               	movf	(___fladd@b+3)^(0+128),w
  8602     1526  00AB               	movwf	(??___fladd^(0+128)+3)
  8603     1527  3001               	movlw	1
  8604     1528  00AC               	movwf	(??___fladd+4)^(0+128)
  8605     1529                     u6665:
  8606     1529  0D2B               	rlf	(??___fladd^(0+128)+3),w
  8607     152A  0CAB               	rrf	(??___fladd^(0+128)+3),f
  8608     152B  0CAA               	rrf	(??___fladd^(0+128)+2),f
  8609     152C  0CA9               	rrf	(??___fladd^(0+128)+1),f
  8610     152D  0CA8               	rrf	??___fladd^(0+128),f
  8611     152E                     u6660:
  8612     152E  0BAC               	decfsz	(??___fladd+4)^(0+128),f
  8613     152F  2D29               	goto	u6665
  8614     1530  082B               	movf	(??___fladd+3)^(0+128),w
  8615     1531  00A3               	movwf	(___fladd@b+3)^(0+128)
  8616     1532  082A               	movf	(??___fladd+2)^(0+128),w
  8617     1533  00A2               	movwf	(___fladd@b+2)^(0+128)
  8618     1534  0829               	movf	(??___fladd+1)^(0+128),w
  8619     1535  00A1               	movwf	(___fladd@b+1)^(0+128)
  8620     1536  0828               	movf	??___fladd^(0+128),w
  8621     1537  00A0               	movwf	___fladd@b^(0+128)
  8622     1538  0A32               	incf	___fladd@bexp^(0+128),w
  8623     1539  1903               	btfsc	3,2
  8624     153A  2D3C               	goto	u6671
  8625     153B  2D3D               	goto	u6670
  8626     153C                     u6671:
  8627     153C  2D41               	goto	l709
  8628     153D                     u6670:
  8629     153D                     l3990:
  8630     153D  3001               	movlw	1
  8631     153E  00A8               	movwf	??___fladd^(0+128)
  8632     153F  0828               	movf	??___fladd^(0+128),w
  8633     1540  07B2               	addwf	___fladd@bexp^(0+128),f
  8634     1541                     l709:
  8635     1541  0A32               	incf	___fladd@bexp^(0+128),w
  8636     1542  1903               	btfsc	3,2
  8637     1543  2D45               	goto	u6681
  8638     1544  2D46               	goto	u6680
  8639     1545                     u6681:
  8640     1545  2D4B               	goto	l3994
  8641     1546                     u6680:
  8642     1546                     l3992:
  8643     1546  0832               	movf	___fladd@bexp^(0+128),w
  8644     1547  1D03               	btfss	3,2
  8645     1548  2D4A               	goto	u6691
  8646     1549  2D4B               	goto	u6690
  8647     154A                     u6691:
  8648     154A  2D59               	goto	l4000
  8649     154B                     u6690:
  8650     154B                     l3994:
  8651     154B  3000               	movlw	0
  8652     154C  00A3               	movwf	(___fladd@b+3)^(0+128)
  8653     154D  3000               	movlw	0
  8654     154E  00A2               	movwf	(___fladd@b+2)^(0+128)
  8655     154F  3000               	movlw	0
  8656     1550  00A1               	movwf	(___fladd@b+1)^(0+128)
  8657     1551  3000               	movlw	0
  8658     1552  00A0               	movwf	___fladd@b^(0+128)
  8659     1553                     l3996:
  8660     1553  0832               	movf	___fladd@bexp^(0+128),w
  8661     1554  1D03               	btfss	3,2
  8662     1555  2D57               	goto	u6701
  8663     1556  2D58               	goto	u6700
  8664     1557                     u6701:
  8665     1557  2D59               	goto	l4000
  8666     1558                     u6700:
  8667     1558                     l3998:
  8668     1558  01B0               	clrf	___fladd@signs^(0+128)
  8669     1559                     l4000:
  8670     1559  1C32               	btfss	___fladd@bexp^(0+128),0
  8671     155A  2D5C               	goto	u6711
  8672     155B  2D5D               	goto	u6710
  8673     155C                     u6711:
  8674     155C  2D5F               	goto	l4004
  8675     155D                     u6710:
  8676     155D                     l4002:
  8677     155D  17A2               	bsf	(___fladd@b^(0+128)+2),7
  8678     155E  2D63               	goto	l717
  8679     155F                     l4004:
  8680     155F  307F               	movlw	127
  8681     1560  00A8               	movwf	??___fladd^(0+128)
  8682     1561  0828               	movf	??___fladd^(0+128),w
  8683     1562  05A2               	andwf	(___fladd@b^(0+128)+2),f
  8684     1563                     l717:
  8685     1563  0832               	movf	___fladd@bexp^(0+128),w
  8686     1564  00A8               	movwf	??___fladd^(0+128)
  8687     1565  1003               	clrc
  8688     1566  0C28               	rrf	??___fladd^(0+128),w
  8689     1567  00A3               	movwf	(___fladd@b^(0+128)+3)
  8690     1568                     l4006:
  8691     1568  1FB0               	btfss	___fladd@signs^(0+128),7
  8692     1569  2D6B               	goto	u6721
  8693     156A  2D6C               	goto	u6720
  8694     156B                     u6721:
  8695     156B  2D6D               	goto	l718
  8696     156C                     u6720:
  8697     156C                     l4008:
  8698     156C  17A3               	bsf	(___fladd@b^(0+128)+3),7
  8699     156D                     l718:
  8700     156D                     l688:
  8701     156D  0008               	return
  8702     156E                     __end_of___fladd:
  8703                           
  8704                           	psect	text19
  8705     1A5C                     __ptext19:	
  8706 ;; *************** function ___flneg *****************
  8707 ;; Defined at:
  8708 ;;		line 15 in file "C:\Program Files\Microchip\xc8\v2.40\pic\sources\c90\common\flneg.c"
  8709 ;; Parameters:    Size  Location     Type
  8710 ;;  f1              4    6[BANK0 ] unsigned char 
  8711 ;; Auto vars:     Size  Location     Type
  8712 ;;		None
  8713 ;; Return value:  Size  Location     Type
  8714 ;;                  4    6[BANK0 ] unsigned char 
  8715 ;; Registers used:
  8716 ;;		wreg
  8717 ;; Tracked objects:
  8718 ;;		On entry : 0/0
  8719 ;;		On exit  : 0/0
  8720 ;;		Unchanged: 0/0
  8721 ;; Data sizes:     COMMON   BANK0   BANK1   BANK3   BANK2
  8722 ;;      Params:         0       4       0       0       0
  8723 ;;      Locals:         0       0       0       0       0
  8724 ;;      Temps:          0       0       0       0       0
  8725 ;;      Totals:         0       4       0       0       0
  8726 ;;Total ram usage:        4 bytes
  8727 ;; Hardware stack levels used: 1
  8728 ;; Hardware stack levels required when called: 2
  8729 ;; This function calls:
  8730 ;;		Nothing
  8731 ;; This function is called by:
  8732 ;;		_sprintf
  8733 ;; This function uses a non-reentrant model
  8734 ;;
  8735                           
  8736     1A5C                     ___flneg:	
  8737                           ;psect for function ___flneg
  8738                           
  8739     1A5C                     l3140:	
  8740                           ;incstack = 0
  8741                           ; Regs used in ___flneg: [wreg]
  8742                           
  8743     1A5C  1283               	bcf	3,5	;RP0=0, select bank0
  8744     1A5D  1303               	bcf	3,6	;RP1=0, select bank0
  8745     1A5E  0829               	movf	___flneg@f1+3,w
  8746     1A5F  0428               	iorwf	___flneg@f1+2,w
  8747     1A60  0427               	iorwf	___flneg@f1+1,w
  8748     1A61  0426               	iorwf	___flneg@f1,w
  8749     1A62  1903               	skipnz
  8750     1A63  2A65               	goto	u5091
  8751     1A64  2A66               	goto	u5090
  8752     1A65                     u5091:
  8753     1A65  2A68               	goto	l3144
  8754     1A66                     u5090:
  8755     1A66                     l3142:
  8756     1A66  3080               	movlw	128
  8757     1A67  06A9               	xorwf	___flneg@f1+3,f
  8758     1A68                     l3144:
  8759     1A68                     l547:
  8760     1A68  0008               	return
  8761     1A69                     __end_of___flneg:
  8762                           
  8763                           	psect	text20
  8764     1DED                     __ptext20:	
  8765 ;; *************** function ___flge *****************
  8766 ;; Defined at:
  8767 ;;		line 4 in file "C:\Program Files\Microchip\xc8\v2.40\pic\sources\c90\common\flge.c"
  8768 ;; Parameters:    Size  Location     Type
  8769 ;;  ff1             4    6[BANK0 ] unsigned char 
  8770 ;;  ff2             4   10[BANK0 ] unsigned char 
  8771 ;; Auto vars:     Size  Location     Type
  8772 ;;		None
  8773 ;; Return value:  Size  Location     Type
  8774 ;;		None               void
  8775 ;; Registers used:
  8776 ;;		wreg, status,2, status,0
  8777 ;; Tracked objects:
  8778 ;;		On entry : 0/0
  8779 ;;		On exit  : 0/0
  8780 ;;		Unchanged: 0/0
  8781 ;; Data sizes:     COMMON   BANK0   BANK1   BANK3   BANK2
  8782 ;;      Params:         0       8       0       0       0
  8783 ;;      Locals:         0       0       0       0       0
  8784 ;;      Temps:          0       4       0       0       0
  8785 ;;      Totals:         0      12       0       0       0
  8786 ;;Total ram usage:       12 bytes
  8787 ;; Hardware stack levels used: 1
  8788 ;; Hardware stack levels required when called: 2
  8789 ;; This function calls:
  8790 ;;		Nothing
  8791 ;; This function is called by:
  8792 ;;		_sprintf
  8793 ;; This function uses a non-reentrant model
  8794 ;;
  8795                           
  8796     1DED                     ___flge:	
  8797                           ;psect for function ___flge
  8798                           
  8799     1DED                     l3120:	
  8800                           ;incstack = 0
  8801                           ; Regs used in ___flge: [wreg+status,2+status,0]
  8802                           
  8803     1DED  3000               	movlw	0
  8804     1DEE  1283               	bcf	3,5	;RP0=0, select bank0
  8805     1DEF  1303               	bcf	3,6	;RP1=0, select bank0
  8806     1DF0  0526               	andwf	___flge@ff1,w
  8807     1DF1  00AE               	movwf	??___flge
  8808     1DF2  3000               	movlw	0
  8809     1DF3  0527               	andwf	___flge@ff1+1,w
  8810     1DF4  00AF               	movwf	??___flge+1
  8811     1DF5  3080               	movlw	128
  8812     1DF6  0528               	andwf	___flge@ff1+2,w
  8813     1DF7  00B0               	movwf	??___flge+2
  8814     1DF8  307F               	movlw	127
  8815     1DF9  0529               	andwf	___flge@ff1+3,w
  8816     1DFA  00B1               	movwf	??___flge+3
  8817     1DFB  0831               	movf	??___flge+3,w
  8818     1DFC  0430               	iorwf	??___flge+2,w
  8819     1DFD  042F               	iorwf	??___flge+1,w
  8820     1DFE  042E               	iorwf	??___flge,w
  8821     1DFF  1D03               	skipz
  8822     1E00  2E02               	goto	u5021
  8823     1E01  2E03               	goto	u5020
  8824     1E02                     u5021:
  8825     1E02  2E0B               	goto	l539
  8826     1E03                     u5020:
  8827     1E03                     l3122:
  8828     1E03  3000               	movlw	0
  8829     1E04  00A9               	movwf	___flge@ff1+3
  8830     1E05  3000               	movlw	0
  8831     1E06  00A8               	movwf	___flge@ff1+2
  8832     1E07  3000               	movlw	0
  8833     1E08  00A7               	movwf	___flge@ff1+1
  8834     1E09  3000               	movlw	0
  8835     1E0A  00A6               	movwf	___flge@ff1
  8836     1E0B                     l539:
  8837     1E0B  3000               	movlw	0
  8838     1E0C  052A               	andwf	___flge@ff2,w
  8839     1E0D  00AE               	movwf	??___flge
  8840     1E0E  3000               	movlw	0
  8841     1E0F  052B               	andwf	___flge@ff2+1,w
  8842     1E10  00AF               	movwf	??___flge+1
  8843     1E11  3080               	movlw	128
  8844     1E12  052C               	andwf	___flge@ff2+2,w
  8845     1E13  00B0               	movwf	??___flge+2
  8846     1E14  307F               	movlw	127
  8847     1E15  052D               	andwf	___flge@ff2+3,w
  8848     1E16  00B1               	movwf	??___flge+3
  8849     1E17  0831               	movf	??___flge+3,w
  8850     1E18  0430               	iorwf	??___flge+2,w
  8851     1E19  042F               	iorwf	??___flge+1,w
  8852     1E1A  042E               	iorwf	??___flge,w
  8853     1E1B  1D03               	skipz
  8854     1E1C  2E1E               	goto	u5031
  8855     1E1D  2E1F               	goto	u5030
  8856     1E1E                     u5031:
  8857     1E1E  2E27               	goto	l3126
  8858     1E1F                     u5030:
  8859     1E1F                     l3124:
  8860     1E1F  3000               	movlw	0
  8861     1E20  00AD               	movwf	___flge@ff2+3
  8862     1E21  3000               	movlw	0
  8863     1E22  00AC               	movwf	___flge@ff2+2
  8864     1E23  3000               	movlw	0
  8865     1E24  00AB               	movwf	___flge@ff2+1
  8866     1E25  3000               	movlw	0
  8867     1E26  00AA               	movwf	___flge@ff2
  8868     1E27                     l3126:
  8869     1E27  1FA9               	btfss	___flge@ff1+3,7
  8870     1E28  2E2A               	goto	u5041
  8871     1E29  2E2B               	goto	u5040
  8872     1E2A                     u5041:
  8873     1E2A  2E4F               	goto	l3130
  8874     1E2B                     u5040:
  8875     1E2B                     l3128:
  8876     1E2B  3000               	movlw	0
  8877     1E2C  00AE               	movwf	??___flge
  8878     1E2D  3000               	movlw	0
  8879     1E2E  00AF               	movwf	??___flge+1
  8880     1E2F  3000               	movlw	0
  8881     1E30  00B0               	movwf	??___flge+2
  8882     1E31  3080               	movlw	128
  8883     1E32  00B1               	movwf	??___flge+3
  8884     1E33  0826               	movf	___flge@ff1,w
  8885     1E34  02AE               	subwf	??___flge,f
  8886     1E35  0827               	movf	___flge@ff1+1,w
  8887     1E36  1C03               	skipc
  8888     1E37  0F27               	incfsz	___flge@ff1+1,w
  8889     1E38  2E3A               	goto	u5051
  8890     1E39  2E3B               	goto	u5052
  8891     1E3A                     u5051:
  8892     1E3A  02AF               	subwf	??___flge+1,f
  8893     1E3B                     u5052:
  8894     1E3B  0828               	movf	___flge@ff1+2,w
  8895     1E3C  1C03               	skipc
  8896     1E3D  0F28               	incfsz	___flge@ff1+2,w
  8897     1E3E  2E40               	goto	u5053
  8898     1E3F  2E41               	goto	u5054
  8899     1E40                     u5053:
  8900     1E40  02B0               	subwf	??___flge+2,f
  8901     1E41                     u5054:
  8902     1E41  0829               	movf	___flge@ff1+3,w
  8903     1E42  1C03               	skipc
  8904     1E43  0F29               	incfsz	___flge@ff1+3,w
  8905     1E44  2E46               	goto	u5055
  8906     1E45  2E47               	goto	u5056
  8907     1E46                     u5055:
  8908     1E46  02B1               	subwf	??___flge+3,f
  8909     1E47                     u5056:
  8910     1E47  0831               	movf	??___flge+3,w
  8911     1E48  00A9               	movwf	___flge@ff1+3
  8912     1E49  0830               	movf	??___flge+2,w
  8913     1E4A  00A8               	movwf	___flge@ff1+2
  8914     1E4B  082F               	movf	??___flge+1,w
  8915     1E4C  00A7               	movwf	___flge@ff1+1
  8916     1E4D  082E               	movf	??___flge,w
  8917     1E4E  00A6               	movwf	___flge@ff1
  8918     1E4F                     l3130:
  8919     1E4F  1FAD               	btfss	___flge@ff2+3,7
  8920     1E50  2E52               	goto	u5061
  8921     1E51  2E53               	goto	u5060
  8922     1E52                     u5061:
  8923     1E52  2E77               	goto	l542
  8924     1E53                     u5060:
  8925     1E53                     l3132:
  8926     1E53  3000               	movlw	0
  8927     1E54  00AE               	movwf	??___flge
  8928     1E55  3000               	movlw	0
  8929     1E56  00AF               	movwf	??___flge+1
  8930     1E57  3000               	movlw	0
  8931     1E58  00B0               	movwf	??___flge+2
  8932     1E59  3080               	movlw	128
  8933     1E5A  00B1               	movwf	??___flge+3
  8934     1E5B  082A               	movf	___flge@ff2,w
  8935     1E5C  02AE               	subwf	??___flge,f
  8936     1E5D  082B               	movf	___flge@ff2+1,w
  8937     1E5E  1C03               	skipc
  8938     1E5F  0F2B               	incfsz	___flge@ff2+1,w
  8939     1E60  2E62               	goto	u5071
  8940     1E61  2E63               	goto	u5072
  8941     1E62                     u5071:
  8942     1E62  02AF               	subwf	??___flge+1,f
  8943     1E63                     u5072:
  8944     1E63  082C               	movf	___flge@ff2+2,w
  8945     1E64  1C03               	skipc
  8946     1E65  0F2C               	incfsz	___flge@ff2+2,w
  8947     1E66  2E68               	goto	u5073
  8948     1E67  2E69               	goto	u5074
  8949     1E68                     u5073:
  8950     1E68  02B0               	subwf	??___flge+2,f
  8951     1E69                     u5074:
  8952     1E69  082D               	movf	___flge@ff2+3,w
  8953     1E6A  1C03               	skipc
  8954     1E6B  0F2D               	incfsz	___flge@ff2+3,w
  8955     1E6C  2E6E               	goto	u5075
  8956     1E6D  2E6F               	goto	u5076
  8957     1E6E                     u5075:
  8958     1E6E  02B1               	subwf	??___flge+3,f
  8959     1E6F                     u5076:
  8960     1E6F  0831               	movf	??___flge+3,w
  8961     1E70  00AD               	movwf	___flge@ff2+3
  8962     1E71  0830               	movf	??___flge+2,w
  8963     1E72  00AC               	movwf	___flge@ff2+2
  8964     1E73  082F               	movf	??___flge+1,w
  8965     1E74  00AB               	movwf	___flge@ff2+1
  8966     1E75  082E               	movf	??___flge,w
  8967     1E76  00AA               	movwf	___flge@ff2
  8968     1E77                     l542:
  8969     1E77  3080               	movlw	128
  8970     1E78  06A9               	xorwf	___flge@ff1+3,f
  8971     1E79  3080               	movlw	128
  8972     1E7A  06AD               	xorwf	___flge@ff2+3,f
  8973     1E7B  082D               	movf	___flge@ff2+3,w
  8974     1E7C  0229               	subwf	___flge@ff1+3,w
  8975     1E7D  1D03               	skipz
  8976     1E7E  2E89               	goto	u5085
  8977     1E7F  082C               	movf	___flge@ff2+2,w
  8978     1E80  0228               	subwf	___flge@ff1+2,w
  8979     1E81  1D03               	skipz
  8980     1E82  2E89               	goto	u5085
  8981     1E83  082B               	movf	___flge@ff2+1,w
  8982     1E84  0227               	subwf	___flge@ff1+1,w
  8983     1E85  1D03               	skipz
  8984     1E86  2E89               	goto	u5085
  8985     1E87  082A               	movf	___flge@ff2,w
  8986     1E88  0226               	subwf	___flge@ff1,w
  8987     1E89                     u5085:
  8988     1E89  1803               	skipnc
  8989     1E8A  2E8C               	goto	u5081
  8990     1E8B  2E8D               	goto	u5080
  8991     1E8C                     u5081:
  8992     1E8C  2E8F               	goto	l3136
  8993     1E8D                     u5080:
  8994     1E8D                     l3134:
  8995     1E8D  1003               	clrc
  8996     1E8E  2E90               	goto	l543
  8997     1E8F                     l3136:
  8998     1E8F  1403               	setc
  8999     1E90                     l543:
  9000     1E90  0008               	return
  9001     1E91                     __end_of___flge:
  9002                           
  9003                           	psect	text21
  9004     1001                     __ptext21:	
  9005 ;; *************** function ___fleq *****************
  9006 ;; Defined at:
  9007 ;;		line 4 in file "C:\Program Files\Microchip\xc8\v2.40\pic\sources\c90\common\fleq.c"
  9008 ;; Parameters:    Size  Location     Type
  9009 ;;  ff1             4    6[BANK0 ] unsigned char 
  9010 ;;  ff2             4   10[BANK0 ] unsigned char 
  9011 ;; Auto vars:     Size  Location     Type
  9012 ;;		None
  9013 ;; Return value:  Size  Location     Type
  9014 ;;		None               void
  9015 ;; Registers used:
  9016 ;;		wreg, status,2, status,0
  9017 ;; Tracked objects:
  9018 ;;		On entry : 0/0
  9019 ;;		On exit  : 0/0
  9020 ;;		Unchanged: 0/0
  9021 ;; Data sizes:     COMMON   BANK0   BANK1   BANK3   BANK2
  9022 ;;      Params:         0       8       0       0       0
  9023 ;;      Locals:         0       0       0       0       0
  9024 ;;      Temps:          0       4       0       0       0
  9025 ;;      Totals:         0      12       0       0       0
  9026 ;;Total ram usage:       12 bytes
  9027 ;; Hardware stack levels used: 1
  9028 ;; Hardware stack levels required when called: 2
  9029 ;; This function calls:
  9030 ;;		Nothing
  9031 ;; This function is called by:
  9032 ;;		_sprintf
  9033 ;; This function uses a non-reentrant model
  9034 ;;
  9035                           
  9036     1001                     ___fleq:	
  9037                           ;psect for function ___fleq
  9038                           
  9039     1001                     l3108:	
  9040                           ;incstack = 0
  9041                           ; Regs used in ___fleq: [wreg+status,2+status,0]
  9042                           
  9043     1001  3000               	movlw	0
  9044     1002  1283               	bcf	3,5	;RP0=0, select bank0
  9045     1003  1303               	bcf	3,6	;RP1=0, select bank0
  9046     1004  0526               	andwf	___fleq@ff1,w
  9047     1005  00AE               	movwf	??___fleq
  9048     1006  3000               	movlw	0
  9049     1007  0527               	andwf	___fleq@ff1+1,w
  9050     1008  00AF               	movwf	??___fleq+1
  9051     1009  3080               	movlw	128
  9052     100A  0528               	andwf	___fleq@ff1+2,w
  9053     100B  00B0               	movwf	??___fleq+2
  9054     100C  307F               	movlw	127
  9055     100D  0529               	andwf	___fleq@ff1+3,w
  9056     100E  00B1               	movwf	??___fleq+3
  9057     100F  0831               	movf	??___fleq+3,w
  9058     1010  0430               	iorwf	??___fleq+2,w
  9059     1011  042F               	iorwf	??___fleq+1,w
  9060     1012  042E               	iorwf	??___fleq,w
  9061     1013  1D03               	skipz
  9062     1014  2816               	goto	u4991
  9063     1015  2817               	goto	u4990
  9064     1016                     u4991:
  9065     1016  281F               	goto	l534
  9066     1017                     u4990:
  9067     1017                     l3110:
  9068     1017  3000               	movlw	0
  9069     1018  00A9               	movwf	___fleq@ff1+3
  9070     1019  3000               	movlw	0
  9071     101A  00A8               	movwf	___fleq@ff1+2
  9072     101B  3000               	movlw	0
  9073     101C  00A7               	movwf	___fleq@ff1+1
  9074     101D  3000               	movlw	0
  9075     101E  00A6               	movwf	___fleq@ff1
  9076     101F                     l534:
  9077     101F  3000               	movlw	0
  9078     1020  052A               	andwf	___fleq@ff2,w
  9079     1021  00AE               	movwf	??___fleq
  9080     1022  3000               	movlw	0
  9081     1023  052B               	andwf	___fleq@ff2+1,w
  9082     1024  00AF               	movwf	??___fleq+1
  9083     1025  3080               	movlw	128
  9084     1026  052C               	andwf	___fleq@ff2+2,w
  9085     1027  00B0               	movwf	??___fleq+2
  9086     1028  307F               	movlw	127
  9087     1029  052D               	andwf	___fleq@ff2+3,w
  9088     102A  00B1               	movwf	??___fleq+3
  9089     102B  0831               	movf	??___fleq+3,w
  9090     102C  0430               	iorwf	??___fleq+2,w
  9091     102D  042F               	iorwf	??___fleq+1,w
  9092     102E  042E               	iorwf	??___fleq,w
  9093     102F  1D03               	skipz
  9094     1030  2832               	goto	u5001
  9095     1031  2833               	goto	u5000
  9096     1032                     u5001:
  9097     1032  283B               	goto	l535
  9098     1033                     u5000:
  9099     1033                     l3112:
  9100     1033  3000               	movlw	0
  9101     1034  00AD               	movwf	___fleq@ff2+3
  9102     1035  3000               	movlw	0
  9103     1036  00AC               	movwf	___fleq@ff2+2
  9104     1037  3000               	movlw	0
  9105     1038  00AB               	movwf	___fleq@ff2+1
  9106     1039  3000               	movlw	0
  9107     103A  00AA               	movwf	___fleq@ff2
  9108     103B                     l535:
  9109     103B  082D               	movf	___fleq@ff2+3,w
  9110     103C  0629               	xorwf	___fleq@ff1+3,w
  9111     103D  1D03               	skipz
  9112     103E  2849               	goto	u5015
  9113     103F  082C               	movf	___fleq@ff2+2,w
  9114     1040  0628               	xorwf	___fleq@ff1+2,w
  9115     1041  1D03               	skipz
  9116     1042  2849               	goto	u5015
  9117     1043  082B               	movf	___fleq@ff2+1,w
  9118     1044  0627               	xorwf	___fleq@ff1+1,w
  9119     1045  1D03               	skipz
  9120     1046  2849               	goto	u5015
  9121     1047  082A               	movf	___fleq@ff2,w
  9122     1048  0626               	xorwf	___fleq@ff1,w
  9123     1049                     u5015:
  9124     1049  1903               	skipnz
  9125     104A  284C               	goto	u5011
  9126     104B  284D               	goto	u5010
  9127     104C                     u5011:
  9128     104C  284F               	goto	l3116
  9129     104D                     u5010:
  9130     104D                     l3114:
  9131     104D  1003               	clrc
  9132     104E  2850               	goto	l536
  9133     104F                     l3116:
  9134     104F  1403               	setc
  9135     1050                     l536:
  9136     1050  0008               	return
  9137     1051                     __end_of___fleq:
  9138                           
  9139                           	psect	text22
  9140     1B20                     __ptext22:	
  9141 ;; *************** function _setup *****************
  9142 ;; Defined at:
  9143 ;;		line 94 in file "Lab2.c"
  9144 ;; Parameters:    Size  Location     Type
  9145 ;;		None
  9146 ;; Auto vars:     Size  Location     Type
  9147 ;;		None
  9148 ;; Return value:  Size  Location     Type
  9149 ;;                  1    wreg      void 
  9150 ;; Registers used:
  9151 ;;		wreg, status,2, status,0
  9152 ;; Tracked objects:
  9153 ;;		On entry : 0/0
  9154 ;;		On exit  : 0/0
  9155 ;;		Unchanged: 0/0
  9156 ;; Data sizes:     COMMON   BANK0   BANK1   BANK3   BANK2
  9157 ;;      Params:         0       0       0       0       0
  9158 ;;      Locals:         0       0       0       0       0
  9159 ;;      Temps:          0       1       0       0       0
  9160 ;;      Totals:         0       1       0       0       0
  9161 ;;Total ram usage:        1 bytes
  9162 ;; Hardware stack levels used: 1
  9163 ;; Hardware stack levels required when called: 2
  9164 ;; This function calls:
  9165 ;;		Nothing
  9166 ;; This function is called by:
  9167 ;;		_main
  9168 ;; This function uses a non-reentrant model
  9169 ;;
  9170                           
  9171     1B20                     _setup:	
  9172                           ;psect for function _setup
  9173                           
  9174     1B20                     l3282:	
  9175                           ;incstack = 0
  9176                           ; Regs used in _setup: [wreg+status,2+status,0]
  9177                           
  9178                           
  9179                           ;Lab2.c: 95:     ANSEL = 0b00000011;
  9180     1B20  3003               	movlw	3
  9181     1B21  1683               	bsf	3,5	;RP0=1, select bank3
  9182     1B22  1703               	bsf	3,6	;RP1=1, select bank3
  9183     1B23  0088               	movwf	8	;volatile
  9184     1B24                     l3284:
  9185                           
  9186                           ;Lab2.c: 96:     ANSELH = 0;
  9187     1B24  0189               	clrf	9	;volatile
  9188     1B25                     l3286:
  9189                           
  9190                           ;Lab2.c: 98:     TRISA = 0xFF;
  9191     1B25  30FF               	movlw	255
  9192     1B26  1683               	bsf	3,5	;RP0=1, select bank1
  9193     1B27  1303               	bcf	3,6	;RP1=0, select bank1
  9194     1B28  0085               	movwf	5	;volatile
  9195     1B29                     l3288:
  9196                           
  9197                           ;Lab2.c: 99:     TRISB = 0b11111111;
  9198     1B29  30FF               	movlw	255
  9199     1B2A  0086               	movwf	6	;volatile
  9200     1B2B                     l3290:
  9201                           
  9202                           ;Lab2.c: 100:     TRISC = 0;
  9203     1B2B  0187               	clrf	7	;volatile
  9204     1B2C                     l3292:
  9205                           
  9206                           ;Lab2.c: 101:     TRISD = 0;
  9207     1B2C  0188               	clrf	8	;volatile
  9208     1B2D                     l3294:
  9209                           
  9210                           ;Lab2.c: 102:     TRISE = 0;
  9211     1B2D  0189               	clrf	9	;volatile
  9212     1B2E                     l3296:
  9213                           
  9214                           ;Lab2.c: 103:     OPTION_REGbits.nRBPU = 0;
  9215     1B2E  1381               	bcf	1,7	;volatile
  9216                           
  9217                           ;Lab2.c: 104:     WPUB = 0b111111;
  9218     1B2F  303F               	movlw	63
  9219     1B30  0095               	movwf	21	;volatile
  9220     1B31                     l3298:
  9221                           
  9222                           ;Lab2.c: 107:     PORTD = 0;
  9223     1B31  1283               	bcf	3,5	;RP0=0, select bank0
  9224     1B32  1303               	bcf	3,6	;RP1=0, select bank0
  9225     1B33  0188               	clrf	8	;volatile
  9226     1B34                     l3300:
  9227                           
  9228                           ;Lab2.c: 108:     PORTE = 0;
  9229     1B34  0189               	clrf	9	;volatile
  9230     1B35                     l3302:
  9231                           
  9232                           ;Lab2.c: 109:    PORTC = 0;
  9233     1B35  0187               	clrf	7	;volatile
  9234     1B36                     l3304:
  9235                           
  9236                           ;Lab2.c: 114:     OSCCONbits.IRCF = 0b0111;
  9237     1B36  3070               	movlw	112
  9238     1B37  1683               	bsf	3,5	;RP0=1, select bank1
  9239     1B38  1303               	bcf	3,6	;RP1=0, select bank1
  9240     1B39  048F               	iorwf	15,f	;volatile
  9241     1B3A                     l3306:
  9242                           
  9243                           ;Lab2.c: 115:     OSCCONbits.SCS = 1;
  9244     1B3A  140F               	bsf	15,0	;volatile
  9245     1B3B                     l3308:
  9246                           
  9247                           ;Lab2.c: 118:     ADCON1bits.ADFM = 0;
  9248     1B3B  139F               	bcf	31,7	;volatile
  9249     1B3C                     l3310:
  9250                           
  9251                           ;Lab2.c: 119:     ADCON1bits.VCFG0 = 0;
  9252     1B3C  121F               	bcf	31,4	;volatile
  9253     1B3D                     l3312:
  9254                           
  9255                           ;Lab2.c: 120:     ADCON1bits.VCFG1 = 0;
  9256     1B3D  129F               	bcf	31,5	;volatile
  9257     1B3E                     l3314:
  9258                           
  9259                           ;Lab2.c: 122:     ADCON0bits.ADCS = 0b01;
  9260     1B3E  1283               	bcf	3,5	;RP0=0, select bank0
  9261     1B3F  1303               	bcf	3,6	;RP1=0, select bank0
  9262     1B40  081F               	movf	31,w	;volatile
  9263     1B41  393F               	andlw	-193
  9264     1B42  3840               	iorlw	64
  9265     1B43  009F               	movwf	31	;volatile
  9266     1B44                     l3316:
  9267                           
  9268                           ;Lab2.c: 123:     ADCON0bits.CHS = 0;
  9269     1B44  30C3               	movlw	-61
  9270     1B45  059F               	andwf	31,f	;volatile
  9271     1B46                     l3318:
  9272                           
  9273                           ;Lab2.c: 124:     ADCON0bits.ADON= 1;
  9274     1B46  141F               	bsf	31,0	;volatile
  9275     1B47                     l3320:
  9276                           
  9277                           ;Lab2.c: 125:     _delay((unsigned long)((50)*(8000000/4000000.0)));
  9278     1B47  3020               	movlw	32
  9279     1B48  1283               	bcf	3,5	;RP0=0, select bank0
  9280     1B49  1303               	bcf	3,6	;RP1=0, select bank0
  9281     1B4A  00A6               	movwf	??_setup
  9282     1B4B                     u7427:
  9283     1B4B  0BA6               	decfsz	??_setup,f
  9284     1B4C  2B4B               	goto	u7427
  9285     1B4D  0000               	nop
  9286     1B4E                     l3322:
  9287                           
  9288                           ;Lab2.c: 129:     PIR1bits.ADIF = 0;
  9289     1B4E  1283               	bcf	3,5	;RP0=0, select bank0
  9290     1B4F  1303               	bcf	3,6	;RP1=0, select bank0
  9291     1B50  130C               	bcf	12,6	;volatile
  9292     1B51                     l3324:
  9293                           
  9294                           ;Lab2.c: 130:     PIE1bits.ADIE = 1;
  9295     1B51  1683               	bsf	3,5	;RP0=1, select bank1
  9296     1B52  1303               	bcf	3,6	;RP1=0, select bank1
  9297     1B53  170C               	bsf	12,6	;volatile
  9298     1B54                     l3326:
  9299                           
  9300                           ;Lab2.c: 132:     INTCONbits.RBIE = 0;
  9301     1B54  118B               	bcf	11,3	;volatile
  9302     1B55                     l3328:
  9303                           
  9304                           ;Lab2.c: 133:     INTCONbits.RBIF = 1;
  9305     1B55  140B               	bsf	11,0	;volatile
  9306     1B56                     l3330:
  9307                           
  9308                           ;Lab2.c: 135:     INTCONbits.PEIE = 1;
  9309     1B56  170B               	bsf	11,6	;volatile
  9310     1B57                     l3332:
  9311                           
  9312                           ;Lab2.c: 136:     INTCONbits.GIE = 1;
  9313     1B57  178B               	bsf	11,7	;volatile
  9314     1B58                     l181:
  9315     1B58  0008               	return
  9316     1B59                     __end_of_setup:
  9317                           
  9318                           	psect	text23
  9319     156E                     __ptext23:	
  9320 ;; *************** function ___fldiv *****************
  9321 ;; Defined at:
  9322 ;;		line 8 in file "C:\Program Files\Microchip\xc8\v2.40\pic\sources\c90\common\sprcdiv.c"
  9323 ;; Parameters:    Size  Location     Type
  9324 ;;  a               4   48[BANK0 ] void 
  9325 ;;  b               4   52[BANK0 ] void 
  9326 ;; Auto vars:     Size  Location     Type
  9327 ;;  grs             4    7[BANK1 ] unsigned long 
  9328 ;;  rem             4    0[BANK1 ] unsigned long 
  9329 ;;  new_exp         2    5[BANK1 ] int 
  9330 ;;  aexp            1   12[BANK1 ] unsigned char 
  9331 ;;  bexp            1   11[BANK1 ] unsigned char 
  9332 ;;  sign            1    4[BANK1 ] unsigned char 
  9333 ;; Return value:  Size  Location     Type
  9334 ;;                  4   48[BANK0 ] unsigned char 
  9335 ;; Registers used:
  9336 ;;		wreg, status,2, status,0, btemp+1
  9337 ;; Tracked objects:
  9338 ;;		On entry : 0/0
  9339 ;;		On exit  : 0/0
  9340 ;;		Unchanged: 0/0
  9341 ;; Data sizes:     COMMON   BANK0   BANK1   BANK3   BANK2
  9342 ;;      Params:         0       8       0       0       0
  9343 ;;      Locals:         0       0      13       0       0
  9344 ;;      Temps:          0       5       0       0       0
  9345 ;;      Totals:         0      13      13       0       0
  9346 ;;Total ram usage:       26 bytes
  9347 ;; Hardware stack levels used: 1
  9348 ;; Hardware stack levels required when called: 2
  9349 ;; This function calls:
  9350 ;;		Nothing
  9351 ;; This function is called by:
  9352 ;;		_main
  9353 ;; This function uses a non-reentrant model
  9354 ;;
  9355                           
  9356     156E                     ___fldiv:	
  9357                           ;psect for function ___fldiv
  9358                           
  9359     156E                     l4224:	
  9360                           ;incstack = 0
  9361                           ; Regs used in ___fldiv: [wreg+status,2+status,0+btemp+1]
  9362                           
  9363     156E  1283               	bcf	3,5	;RP0=0, select bank0
  9364     156F  1303               	bcf	3,6	;RP1=0, select bank0
  9365     1570  0857               	movf	___fldiv@b+3,w
  9366     1571  3980               	andlw	128
  9367     1572  1683               	bsf	3,5	;RP0=1, select bank1
  9368     1573  1303               	bcf	3,6	;RP1=0, select bank1
  9369     1574  00A4               	movwf	___fldiv@sign^(0+128)
  9370     1575                     l4226:
  9371     1575  1283               	bcf	3,5	;RP0=0, select bank0
  9372     1576  1303               	bcf	3,6	;RP1=0, select bank0
  9373     1577  0857               	movf	___fldiv@b+3,w
  9374     1578  00D8               	movwf	??___fldiv
  9375     1579  0758               	addwf	??___fldiv,w
  9376     157A  1683               	bsf	3,5	;RP0=1, select bank1
  9377     157B  1303               	bcf	3,6	;RP1=0, select bank1
  9378     157C  00AB               	movwf	___fldiv@bexp^(0+128)
  9379     157D                     l4228:
  9380     157D  1283               	bcf	3,5	;RP0=0, select bank0
  9381     157E  1303               	bcf	3,6	;RP1=0, select bank0
  9382     157F  1FD6               	btfss	___fldiv@b+2,7
  9383     1580  2D82               	goto	u7101
  9384     1581  2D83               	goto	u7100
  9385     1582                     u7101:
  9386     1582  2D86               	goto	l4232
  9387     1583                     u7100:
  9388     1583                     l4230:
  9389     1583  1683               	bsf	3,5	;RP0=1, select bank1
  9390     1584  1303               	bcf	3,6	;RP1=0, select bank1
  9391     1585  142B               	bsf	___fldiv@bexp^(0+128),0
  9392     1586                     l4232:
  9393     1586  1683               	bsf	3,5	;RP0=1, select bank1
  9394     1587  1303               	bcf	3,6	;RP1=0, select bank1
  9395     1588  082B               	movf	___fldiv@bexp^(0+128),w
  9396     1589  1903               	btfsc	3,2
  9397     158A  2D8C               	goto	u7111
  9398     158B  2D8D               	goto	u7110
  9399     158C                     u7111:
  9400     158C  2DA0               	goto	l4242
  9401     158D                     u7110:
  9402     158D                     l4234:
  9403     158D  0A2B               	incf	___fldiv@bexp^(0+128),w
  9404     158E  1D03               	btfss	3,2
  9405     158F  2D91               	goto	u7121
  9406     1590  2D92               	goto	u7120
  9407     1591                     u7121:
  9408     1591  2D9C               	goto	l4238
  9409     1592                     u7120:
  9410     1592                     l4236:
  9411     1592  3000               	movlw	0
  9412     1593  1283               	bcf	3,5	;RP0=0, select bank0
  9413     1594  1303               	bcf	3,6	;RP1=0, select bank0
  9414     1595  00D7               	movwf	___fldiv@b+3
  9415     1596  3000               	movlw	0
  9416     1597  00D6               	movwf	___fldiv@b+2
  9417     1598  3000               	movlw	0
  9418     1599  00D5               	movwf	___fldiv@b+1
  9419     159A  3000               	movlw	0
  9420     159B  00D4               	movwf	___fldiv@b
  9421     159C                     l4238:
  9422     159C  1283               	bcf	3,5	;RP0=0, select bank0
  9423     159D  17D6               	bsf	___fldiv@b+2,7
  9424     159E                     l4240:
  9425     159E  01D7               	clrf	___fldiv@b+3
  9426     159F  2DAA               	goto	l4244
  9427     15A0                     l4242:
  9428     15A0  3000               	movlw	0
  9429     15A1  1283               	bcf	3,5	;RP0=0, select bank0
  9430     15A2  1303               	bcf	3,6	;RP1=0, select bank0
  9431     15A3  00D7               	movwf	___fldiv@b+3
  9432     15A4  3000               	movlw	0
  9433     15A5  00D6               	movwf	___fldiv@b+2
  9434     15A6  3000               	movlw	0
  9435     15A7  00D5               	movwf	___fldiv@b+1
  9436     15A8  3000               	movlw	0
  9437     15A9  00D4               	movwf	___fldiv@b
  9438     15AA                     l4244:
  9439     15AA  0853               	movf	___fldiv@a+3,w
  9440     15AB  3980               	andlw	128
  9441     15AC  00D8               	movwf	??___fldiv
  9442     15AD  0858               	movf	??___fldiv,w
  9443     15AE  1683               	bsf	3,5	;RP0=1, select bank1
  9444     15AF  1303               	bcf	3,6	;RP1=0, select bank1
  9445     15B0  06A4               	xorwf	___fldiv@sign^(0+128),f
  9446     15B1                     l4246:
  9447     15B1  1283               	bcf	3,5	;RP0=0, select bank0
  9448     15B2  1303               	bcf	3,6	;RP1=0, select bank0
  9449     15B3  0853               	movf	___fldiv@a+3,w
  9450     15B4  00D8               	movwf	??___fldiv
  9451     15B5  0758               	addwf	??___fldiv,w
  9452     15B6  1683               	bsf	3,5	;RP0=1, select bank1
  9453     15B7  1303               	bcf	3,6	;RP1=0, select bank1
  9454     15B8  00AC               	movwf	___fldiv@aexp^(0+128)
  9455     15B9                     l4248:
  9456     15B9  1283               	bcf	3,5	;RP0=0, select bank0
  9457     15BA  1303               	bcf	3,6	;RP1=0, select bank0
  9458     15BB  1FD2               	btfss	___fldiv@a+2,7
  9459     15BC  2DBE               	goto	u7131
  9460     15BD  2DBF               	goto	u7130
  9461     15BE                     u7131:
  9462     15BE  2DC2               	goto	l4252
  9463     15BF                     u7130:
  9464     15BF                     l4250:
  9465     15BF  1683               	bsf	3,5	;RP0=1, select bank1
  9466     15C0  1303               	bcf	3,6	;RP1=0, select bank1
  9467     15C1  142C               	bsf	___fldiv@aexp^(0+128),0
  9468     15C2                     l4252:
  9469     15C2  1683               	bsf	3,5	;RP0=1, select bank1
  9470     15C3  1303               	bcf	3,6	;RP1=0, select bank1
  9471     15C4  082C               	movf	___fldiv@aexp^(0+128),w
  9472     15C5  1903               	btfsc	3,2
  9473     15C6  2DC8               	goto	u7141
  9474     15C7  2DC9               	goto	u7140
  9475     15C8                     u7141:
  9476     15C8  2DDC               	goto	l4262
  9477     15C9                     u7140:
  9478     15C9                     l4254:
  9479     15C9  0A2C               	incf	___fldiv@aexp^(0+128),w
  9480     15CA  1D03               	btfss	3,2
  9481     15CB  2DCD               	goto	u7151
  9482     15CC  2DCE               	goto	u7150
  9483     15CD                     u7151:
  9484     15CD  2DD8               	goto	l4258
  9485     15CE                     u7150:
  9486     15CE                     l4256:
  9487     15CE  3000               	movlw	0
  9488     15CF  1283               	bcf	3,5	;RP0=0, select bank0
  9489     15D0  1303               	bcf	3,6	;RP1=0, select bank0
  9490     15D1  00D3               	movwf	___fldiv@a+3
  9491     15D2  3000               	movlw	0
  9492     15D3  00D2               	movwf	___fldiv@a+2
  9493     15D4  3000               	movlw	0
  9494     15D5  00D1               	movwf	___fldiv@a+1
  9495     15D6  3000               	movlw	0
  9496     15D7  00D0               	movwf	___fldiv@a
  9497     15D8                     l4258:
  9498     15D8  1283               	bcf	3,5	;RP0=0, select bank0
  9499     15D9  17D2               	bsf	___fldiv@a+2,7
  9500     15DA                     l4260:
  9501     15DA  01D3               	clrf	___fldiv@a+3
  9502     15DB  2DE6               	goto	l731
  9503     15DC                     l4262:
  9504     15DC  3000               	movlw	0
  9505     15DD  1283               	bcf	3,5	;RP0=0, select bank0
  9506     15DE  1303               	bcf	3,6	;RP1=0, select bank0
  9507     15DF  00D3               	movwf	___fldiv@a+3
  9508     15E0  3000               	movlw	0
  9509     15E1  00D2               	movwf	___fldiv@a+2
  9510     15E2  3000               	movlw	0
  9511     15E3  00D1               	movwf	___fldiv@a+1
  9512     15E4  3000               	movlw	0
  9513     15E5  00D0               	movwf	___fldiv@a
  9514     15E6                     l731:
  9515     15E6  0853               	movf	___fldiv@a+3,w
  9516     15E7  0452               	iorwf	___fldiv@a+2,w
  9517     15E8  0451               	iorwf	___fldiv@a+1,w
  9518     15E9  0450               	iorwf	___fldiv@a,w
  9519     15EA  1D03               	skipz
  9520     15EB  2DED               	goto	u7161
  9521     15EC  2DEE               	goto	u7160
  9522     15ED                     u7161:
  9523     15ED  2E0B               	goto	l4272
  9524     15EE                     u7160:
  9525     15EE                     l4264:
  9526     15EE  3000               	movlw	0
  9527     15EF  00D7               	movwf	___fldiv@b+3
  9528     15F0  3000               	movlw	0
  9529     15F1  00D6               	movwf	___fldiv@b+2
  9530     15F2  3000               	movlw	0
  9531     15F3  00D5               	movwf	___fldiv@b+1
  9532     15F4  3000               	movlw	0
  9533     15F5  00D4               	movwf	___fldiv@b
  9534     15F6  3080               	movlw	128
  9535     15F7  04D6               	iorwf	___fldiv@b+2,f
  9536     15F8  307F               	movlw	127
  9537     15F9  04D7               	iorwf	___fldiv@b+3,f
  9538     15FA                     l4266:
  9539     15FA  1683               	bsf	3,5	;RP0=1, select bank1
  9540     15FB  1303               	bcf	3,6	;RP1=0, select bank1
  9541     15FC  0824               	movf	___fldiv@sign^(0+128),w
  9542     15FD  1283               	bcf	3,5	;RP0=0, select bank0
  9543     15FE  1303               	bcf	3,6	;RP1=0, select bank0
  9544     15FF  00D8               	movwf	??___fldiv
  9545     1600  0858               	movf	??___fldiv,w
  9546     1601  04D7               	iorwf	___fldiv@b+3,f
  9547     1602                     l4268:
  9548     1602  0857               	movf	___fldiv@b+3,w
  9549     1603  00D3               	movwf	?___fldiv+3
  9550     1604  0856               	movf	___fldiv@b+2,w
  9551     1605  00D2               	movwf	?___fldiv+2
  9552     1606  0855               	movf	___fldiv@b+1,w
  9553     1607  00D1               	movwf	?___fldiv+1
  9554     1608  0854               	movf	___fldiv@b,w
  9555     1609  00D0               	movwf	?___fldiv
  9556     160A  2FFF               	goto	l733
  9557     160B                     l4272:
  9558     160B  1683               	bsf	3,5	;RP0=1, select bank1
  9559     160C  1303               	bcf	3,6	;RP1=0, select bank1
  9560     160D  082B               	movf	___fldiv@bexp^(0+128),w
  9561     160E  1D03               	btfss	3,2
  9562     160F  2E11               	goto	u7171
  9563     1610  2E12               	goto	u7170
  9564     1611                     u7171:
  9565     1611  2E1D               	goto	l4278
  9566     1612                     u7170:
  9567     1612                     l4274:
  9568     1612  3000               	movlw	0
  9569     1613  1283               	bcf	3,5	;RP0=0, select bank0
  9570     1614  1303               	bcf	3,6	;RP1=0, select bank0
  9571     1615  00D3               	movwf	?___fldiv+3
  9572     1616  3000               	movlw	0
  9573     1617  00D2               	movwf	?___fldiv+2
  9574     1618  3000               	movlw	0
  9575     1619  00D1               	movwf	?___fldiv+1
  9576     161A  3000               	movlw	0
  9577     161B  00D0               	movwf	?___fldiv
  9578     161C  2FFF               	goto	l733
  9579     161D                     l4278:
  9580     161D  082B               	movf	___fldiv@bexp^(0+128),w
  9581     161E  1283               	bcf	3,5	;RP0=0, select bank0
  9582     161F  1303               	bcf	3,6	;RP1=0, select bank0
  9583     1620  00D8               	movwf	??___fldiv
  9584     1621  01D9               	clrf	??___fldiv+1
  9585     1622  0859               	movf	??___fldiv+1,w
  9586     1623  00DB               	movwf	??___fldiv+3
  9587     1624  1683               	bsf	3,5	;RP0=1, select bank1
  9588     1625  1303               	bcf	3,6	;RP1=0, select bank1
  9589     1626  082C               	movf	___fldiv@aexp^(0+128),w
  9590     1627  1283               	bcf	3,5	;RP0=0, select bank0
  9591     1628  1303               	bcf	3,6	;RP1=0, select bank0
  9592     1629  0258               	subwf	??___fldiv,w
  9593     162A  00DA               	movwf	??___fldiv+2
  9594     162B  1C03               	skipc
  9595     162C  03DB               	decf	??___fldiv+3,f
  9596     162D  085A               	movf	??___fldiv+2,w
  9597     162E  3E7F               	addlw	127
  9598     162F  1683               	bsf	3,5	;RP0=1, select bank1
  9599     1630  1303               	bcf	3,6	;RP1=0, select bank1
  9600     1631  00A5               	movwf	___fldiv@new_exp^(0+128)
  9601     1632  1283               	bcf	3,5	;RP0=0, select bank0
  9602     1633  1303               	bcf	3,6	;RP1=0, select bank0
  9603     1634  085B               	movf	??___fldiv+3,w
  9604     1635  1803               	skipnc
  9605     1636  3E01               	addlw	1
  9606     1637  3E00               	addlw	0
  9607     1638  1683               	bsf	3,5	;RP0=1, select bank1
  9608     1639  1303               	bcf	3,6	;RP1=0, select bank1
  9609     163A  00A6               	movwf	(___fldiv@new_exp+1)^(0+128)
  9610     163B                     l4280:
  9611     163B  1283               	bcf	3,5	;RP0=0, select bank0
  9612     163C  1303               	bcf	3,6	;RP1=0, select bank0
  9613     163D  0857               	movf	___fldiv@b+3,w
  9614     163E  1683               	bsf	3,5	;RP0=1, select bank1
  9615     163F  1303               	bcf	3,6	;RP1=0, select bank1
  9616     1640  00A3               	movwf	(___fldiv@rem+3)^(0+128)
  9617     1641  1283               	bcf	3,5	;RP0=0, select bank0
  9618     1642  1303               	bcf	3,6	;RP1=0, select bank0
  9619     1643  0856               	movf	___fldiv@b+2,w
  9620     1644  1683               	bsf	3,5	;RP0=1, select bank1
  9621     1645  1303               	bcf	3,6	;RP1=0, select bank1
  9622     1646  00A2               	movwf	(___fldiv@rem+2)^(0+128)
  9623     1647  1283               	bcf	3,5	;RP0=0, select bank0
  9624     1648  1303               	bcf	3,6	;RP1=0, select bank0
  9625     1649  0855               	movf	___fldiv@b+1,w
  9626     164A  1683               	bsf	3,5	;RP0=1, select bank1
  9627     164B  1303               	bcf	3,6	;RP1=0, select bank1
  9628     164C  00A1               	movwf	(___fldiv@rem+1)^(0+128)
  9629     164D  1283               	bcf	3,5	;RP0=0, select bank0
  9630     164E  1303               	bcf	3,6	;RP1=0, select bank0
  9631     164F  0854               	movf	___fldiv@b,w
  9632     1650  1683               	bsf	3,5	;RP0=1, select bank1
  9633     1651  1303               	bcf	3,6	;RP1=0, select bank1
  9634     1652  00A0               	movwf	___fldiv@rem^(0+128)
  9635     1653                     l4282:
  9636     1653  3000               	movlw	0
  9637     1654  1283               	bcf	3,5	;RP0=0, select bank0
  9638     1655  1303               	bcf	3,6	;RP1=0, select bank0
  9639     1656  00D7               	movwf	___fldiv@b+3
  9640     1657  3000               	movlw	0
  9641     1658  00D6               	movwf	___fldiv@b+2
  9642     1659  3000               	movlw	0
  9643     165A  00D5               	movwf	___fldiv@b+1
  9644     165B  3000               	movlw	0
  9645     165C  00D4               	movwf	___fldiv@b
  9646     165D                     l4284:
  9647     165D  3000               	movlw	0
  9648     165E  1683               	bsf	3,5	;RP0=1, select bank1
  9649     165F  1303               	bcf	3,6	;RP1=0, select bank1
  9650     1660  00AA               	movwf	(___fldiv@grs+3)^(0+128)
  9651     1661  3000               	movlw	0
  9652     1662  00A9               	movwf	(___fldiv@grs+2)^(0+128)
  9653     1663  3000               	movlw	0
  9654     1664  00A8               	movwf	(___fldiv@grs+1)^(0+128)
  9655     1665  3000               	movlw	0
  9656     1666  00A7               	movwf	___fldiv@grs^(0+128)
  9657     1667                     l4286:
  9658     1667  01AC               	clrf	___fldiv@aexp^(0+128)
  9659     1668  2EEF               	goto	l4306
  9660     1669                     l4288:
  9661     1669  082C               	movf	___fldiv@aexp^(0+128),w
  9662     166A  1903               	btfsc	3,2
  9663     166B  2E6D               	goto	u7181
  9664     166C  2E6E               	goto	u7180
  9665     166D                     u7181:
  9666     166D  2E9D               	goto	l4298
  9667     166E                     u7180:
  9668     166E                     l4290:
  9669     166E  3001               	movlw	1
  9670     166F  1283               	bcf	3,5	;RP0=0, select bank0
  9671     1670  1303               	bcf	3,6	;RP1=0, select bank0
  9672     1671  00D8               	movwf	??___fldiv
  9673     1672                     u7195:
  9674     1672  1003               	clrc
  9675     1673  1683               	bsf	3,5	;RP0=1, select bank1
  9676     1674  1303               	bcf	3,6	;RP1=0, select bank1
  9677     1675  0DA0               	rlf	___fldiv@rem^(0+128),f
  9678     1676  0DA1               	rlf	(___fldiv@rem+1)^(0+128),f
  9679     1677  0DA2               	rlf	(___fldiv@rem+2)^(0+128),f
  9680     1678  0DA3               	rlf	(___fldiv@rem+3)^(0+128),f
  9681     1679  1283               	bcf	3,5	;RP0=0, select bank0
  9682     167A  1303               	bcf	3,6	;RP1=0, select bank0
  9683     167B  0BD8               	decfsz	??___fldiv,f
  9684     167C  2E72               	goto	u7195
  9685     167D  3001               	movlw	1
  9686     167E  00D8               	movwf	??___fldiv
  9687     167F                     u7205:
  9688     167F  1003               	clrc
  9689     1680  0DD4               	rlf	___fldiv@b,f
  9690     1681  0DD5               	rlf	___fldiv@b+1,f
  9691     1682  0DD6               	rlf	___fldiv@b+2,f
  9692     1683  0DD7               	rlf	___fldiv@b+3,f
  9693     1684  0BD8               	decfsz	??___fldiv,f
  9694     1685  2E7F               	goto	u7205
  9695     1686                     l4292:
  9696     1686  1683               	bsf	3,5	;RP0=1, select bank1
  9697     1687  1303               	bcf	3,6	;RP1=0, select bank1
  9698     1688  1FAA               	btfss	(___fldiv@grs+3)^(0+128),7
  9699     1689  2E8B               	goto	u7211
  9700     168A  2E8C               	goto	u7210
  9701     168B                     u7211:
  9702     168B  2E8F               	goto	l4296
  9703     168C                     u7210:
  9704     168C                     l4294:
  9705     168C  1283               	bcf	3,5	;RP0=0, select bank0
  9706     168D  1303               	bcf	3,6	;RP1=0, select bank0
  9707     168E  1454               	bsf	___fldiv@b,0
  9708     168F                     l4296:
  9709     168F  3001               	movlw	1
  9710     1690  1283               	bcf	3,5	;RP0=0, select bank0
  9711     1691  00D8               	movwf	??___fldiv
  9712     1692                     u7225:
  9713     1692  1003               	clrc
  9714     1693  1683               	bsf	3,5	;RP0=1, select bank1
  9715     1694  1303               	bcf	3,6	;RP1=0, select bank1
  9716     1695  0DA7               	rlf	___fldiv@grs^(0+128),f
  9717     1696  0DA8               	rlf	(___fldiv@grs+1)^(0+128),f
  9718     1697  0DA9               	rlf	(___fldiv@grs+2)^(0+128),f
  9719     1698  0DAA               	rlf	(___fldiv@grs+3)^(0+128),f
  9720     1699  1283               	bcf	3,5	;RP0=0, select bank0
  9721     169A  1303               	bcf	3,6	;RP1=0, select bank0
  9722     169B  0BD8               	decfsz	??___fldiv,f
  9723     169C  2E92               	goto	u7225
  9724     169D                     l4298:
  9725     169D  1283               	bcf	3,5	;RP0=0, select bank0
  9726     169E  0853               	movf	___fldiv@a+3,w
  9727     169F  1683               	bsf	3,5	;RP0=1, select bank1
  9728     16A0  1303               	bcf	3,6	;RP1=0, select bank1
  9729     16A1  0223               	subwf	(___fldiv@rem+3)^(0+128),w
  9730     16A2  1D03               	skipz
  9731     16A3  2EBA               	goto	u7235
  9732     16A4  1283               	bcf	3,5	;RP0=0, select bank0
  9733     16A5  1303               	bcf	3,6	;RP1=0, select bank0
  9734     16A6  0852               	movf	___fldiv@a+2,w
  9735     16A7  1683               	bsf	3,5	;RP0=1, select bank1
  9736     16A8  1303               	bcf	3,6	;RP1=0, select bank1
  9737     16A9  0222               	subwf	(___fldiv@rem+2)^(0+128),w
  9738     16AA  1D03               	skipz
  9739     16AB  2EBA               	goto	u7235
  9740     16AC  1283               	bcf	3,5	;RP0=0, select bank0
  9741     16AD  1303               	bcf	3,6	;RP1=0, select bank0
  9742     16AE  0851               	movf	___fldiv@a+1,w
  9743     16AF  1683               	bsf	3,5	;RP0=1, select bank1
  9744     16B0  1303               	bcf	3,6	;RP1=0, select bank1
  9745     16B1  0221               	subwf	(___fldiv@rem+1)^(0+128),w
  9746     16B2  1D03               	skipz
  9747     16B3  2EBA               	goto	u7235
  9748     16B4  1283               	bcf	3,5	;RP0=0, select bank0
  9749     16B5  1303               	bcf	3,6	;RP1=0, select bank0
  9750     16B6  0850               	movf	___fldiv@a,w
  9751     16B7  1683               	bsf	3,5	;RP0=1, select bank1
  9752     16B8  1303               	bcf	3,6	;RP1=0, select bank1
  9753     16B9  0220               	subwf	___fldiv@rem^(0+128),w
  9754     16BA                     u7235:
  9755     16BA  1C03               	skipc
  9756     16BB  2EBD               	goto	u7231
  9757     16BC  2EBE               	goto	u7230
  9758     16BD                     u7231:
  9759     16BD  2EE7               	goto	l4304
  9760     16BE                     u7230:
  9761     16BE                     l4300:
  9762     16BE  172A               	bsf	(___fldiv@grs^(0+128)+3),6
  9763     16BF                     l4302:
  9764     16BF  1283               	bcf	3,5	;RP0=0, select bank0
  9765     16C0  1303               	bcf	3,6	;RP1=0, select bank0
  9766     16C1  0850               	movf	___fldiv@a,w
  9767     16C2  1683               	bsf	3,5	;RP0=1, select bank1
  9768     16C3  1303               	bcf	3,6	;RP1=0, select bank1
  9769     16C4  02A0               	subwf	___fldiv@rem^(0+128),f
  9770     16C5  1283               	bcf	3,5	;RP0=0, select bank0
  9771     16C6  1303               	bcf	3,6	;RP1=0, select bank0
  9772     16C7  0851               	movf	___fldiv@a+1,w
  9773     16C8  1C03               	skipc
  9774     16C9  0F51               	incfsz	___fldiv@a+1,w
  9775     16CA  2ECC               	goto	u7245
  9776     16CB  2ECF               	goto	u7246
  9777     16CC                     u7245:
  9778     16CC  1683               	bsf	3,5	;RP0=1, select bank1
  9779     16CD  1303               	bcf	3,6	;RP1=0, select bank1
  9780     16CE  02A1               	subwf	(___fldiv@rem+1)^(0+128),f
  9781     16CF                     u7246:
  9782     16CF  1283               	bcf	3,5	;RP0=0, select bank0
  9783     16D0  1303               	bcf	3,6	;RP1=0, select bank0
  9784     16D1  0852               	movf	___fldiv@a+2,w
  9785     16D2  1C03               	skipc
  9786     16D3  0F52               	incfsz	___fldiv@a+2,w
  9787     16D4  2ED6               	goto	u7247
  9788     16D5  2ED9               	goto	u7248
  9789     16D6                     u7247:
  9790     16D6  1683               	bsf	3,5	;RP0=1, select bank1
  9791     16D7  1303               	bcf	3,6	;RP1=0, select bank1
  9792     16D8  02A2               	subwf	(___fldiv@rem+2)^(0+128),f
  9793     16D9                     u7248:
  9794     16D9  1283               	bcf	3,5	;RP0=0, select bank0
  9795     16DA  1303               	bcf	3,6	;RP1=0, select bank0
  9796     16DB  0853               	movf	___fldiv@a+3,w
  9797     16DC  1C03               	skipc
  9798     16DD  0F53               	incfsz	___fldiv@a+3,w
  9799     16DE  2EE0               	goto	u7249
  9800     16DF  2EE3               	goto	u7240
  9801     16E0                     u7249:
  9802     16E0  1683               	bsf	3,5	;RP0=1, select bank1
  9803     16E1  1303               	bcf	3,6	;RP1=0, select bank1
  9804     16E2  02A3               	subwf	(___fldiv@rem+3)^(0+128),f
  9805     16E3                     u7240:
  9806     16E3  1283               	bcf	3,5	;RP0=0, select bank0
  9807     16E4  1303               	bcf	3,6	;RP1=0, select bank0
  9808     16E5  1683               	bsf	3,5	;RP0=1, select bank1
  9809     16E6  1303               	bcf	3,6	;RP1=0, select bank1
  9810     16E7                     l4304:
  9811     16E7  3001               	movlw	1
  9812     16E8  1283               	bcf	3,5	;RP0=0, select bank0
  9813     16E9  1303               	bcf	3,6	;RP1=0, select bank0
  9814     16EA  00D8               	movwf	??___fldiv
  9815     16EB  0858               	movf	??___fldiv,w
  9816     16EC  1683               	bsf	3,5	;RP0=1, select bank1
  9817     16ED  1303               	bcf	3,6	;RP1=0, select bank1
  9818     16EE  07AC               	addwf	___fldiv@aexp^(0+128),f
  9819     16EF                     l4306:
  9820     16EF  301A               	movlw	26
  9821     16F0  022C               	subwf	___fldiv@aexp^(0+128),w
  9822     16F1  1C03               	skipc
  9823     16F2  2EF4               	goto	u7251
  9824     16F3  2EF5               	goto	u7250
  9825     16F4                     u7251:
  9826     16F4  2E69               	goto	l4288
  9827     16F5                     u7250:
  9828     16F5                     l4308:
  9829     16F5  0823               	movf	(___fldiv@rem+3)^(0+128),w
  9830     16F6  0422               	iorwf	(___fldiv@rem+2)^(0+128),w
  9831     16F7  0421               	iorwf	(___fldiv@rem+1)^(0+128),w
  9832     16F8  0420               	iorwf	___fldiv@rem^(0+128),w
  9833     16F9  1903               	skipnz
  9834     16FA  2EFC               	goto	u7261
  9835     16FB  2EFD               	goto	u7260
  9836     16FC                     u7261:
  9837     16FC  2F27               	goto	l4322
  9838     16FD                     u7260:
  9839     16FD                     l4310:
  9840     16FD  1427               	bsf	___fldiv@grs^(0+128),0
  9841     16FE  2F27               	goto	l4322
  9842     16FF                     l4312:
  9843     16FF  3001               	movlw	1
  9844     1700  00D8               	movwf	??___fldiv
  9845     1701                     u7275:
  9846     1701  1003               	clrc
  9847     1702  0DD4               	rlf	___fldiv@b,f
  9848     1703  0DD5               	rlf	___fldiv@b+1,f
  9849     1704  0DD6               	rlf	___fldiv@b+2,f
  9850     1705  0DD7               	rlf	___fldiv@b+3,f
  9851     1706  0BD8               	decfsz	??___fldiv,f
  9852     1707  2F01               	goto	u7275
  9853     1708                     l4314:
  9854     1708  1683               	bsf	3,5	;RP0=1, select bank1
  9855     1709  1303               	bcf	3,6	;RP1=0, select bank1
  9856     170A  1FAA               	btfss	(___fldiv@grs+3)^(0+128),7
  9857     170B  2F0D               	goto	u7281
  9858     170C  2F0E               	goto	u7280
  9859     170D                     u7281:
  9860     170D  2F11               	goto	l4318
  9861     170E                     u7280:
  9862     170E                     l4316:
  9863     170E  1283               	bcf	3,5	;RP0=0, select bank0
  9864     170F  1303               	bcf	3,6	;RP1=0, select bank0
  9865     1710  1454               	bsf	___fldiv@b,0
  9866     1711                     l4318:
  9867     1711  3001               	movlw	1
  9868     1712  1283               	bcf	3,5	;RP0=0, select bank0
  9869     1713  00D8               	movwf	??___fldiv
  9870     1714                     u7295:
  9871     1714  1003               	clrc
  9872     1715  1683               	bsf	3,5	;RP0=1, select bank1
  9873     1716  1303               	bcf	3,6	;RP1=0, select bank1
  9874     1717  0DA7               	rlf	___fldiv@grs^(0+128),f
  9875     1718  0DA8               	rlf	(___fldiv@grs+1)^(0+128),f
  9876     1719  0DA9               	rlf	(___fldiv@grs+2)^(0+128),f
  9877     171A  0DAA               	rlf	(___fldiv@grs+3)^(0+128),f
  9878     171B  1283               	bcf	3,5	;RP0=0, select bank0
  9879     171C  1303               	bcf	3,6	;RP1=0, select bank0
  9880     171D  0BD8               	decfsz	??___fldiv,f
  9881     171E  2F14               	goto	u7295
  9882     171F                     l4320:
  9883     171F  30FF               	movlw	255
  9884     1720  1683               	bsf	3,5	;RP0=1, select bank1
  9885     1721  1303               	bcf	3,6	;RP1=0, select bank1
  9886     1722  07A5               	addwf	___fldiv@new_exp^(0+128),f
  9887     1723  1803               	skipnc
  9888     1724  0AA6               	incf	(___fldiv@new_exp+1)^(0+128),f
  9889     1725  30FF               	movlw	255
  9890     1726  07A6               	addwf	(___fldiv@new_exp+1)^(0+128),f
  9891     1727                     l4322:
  9892     1727  1283               	bcf	3,5	;RP0=0, select bank0
  9893     1728  1303               	bcf	3,6	;RP1=0, select bank0
  9894     1729  1FD6               	btfss	___fldiv@b+2,7
  9895     172A  2F2C               	goto	u7301
  9896     172B  2F2D               	goto	u7300
  9897     172C                     u7301:
  9898     172C  2EFF               	goto	l4312
  9899     172D                     u7300:
  9900     172D                     l4324:
  9901     172D  1683               	bsf	3,5	;RP0=1, select bank1
  9902     172E  1303               	bcf	3,6	;RP1=0, select bank1
  9903     172F  01AC               	clrf	___fldiv@aexp^(0+128)
  9904     1730                     l4326:
  9905     1730  1FAA               	btfss	(___fldiv@grs+3)^(0+128),7
  9906     1731  2F33               	goto	u7311
  9907     1732  2F34               	goto	u7310
  9908     1733                     u7311:
  9909     1733  2F60               	goto	l4334
  9910     1734                     u7310:
  9911     1734                     l4328:
  9912     1734  30FF               	movlw	255
  9913     1735  0527               	andwf	___fldiv@grs^(0+128),w
  9914     1736  1283               	bcf	3,5	;RP0=0, select bank0
  9915     1737  1303               	bcf	3,6	;RP1=0, select bank0
  9916     1738  00D8               	movwf	??___fldiv
  9917     1739  30FF               	movlw	255
  9918     173A  1683               	bsf	3,5	;RP0=1, select bank1
  9919     173B  1303               	bcf	3,6	;RP1=0, select bank1
  9920     173C  0528               	andwf	(___fldiv@grs+1)^(0+128),w
  9921     173D  1283               	bcf	3,5	;RP0=0, select bank0
  9922     173E  1303               	bcf	3,6	;RP1=0, select bank0
  9923     173F  00D9               	movwf	??___fldiv+1
  9924     1740  30FF               	movlw	255
  9925     1741  1683               	bsf	3,5	;RP0=1, select bank1
  9926     1742  1303               	bcf	3,6	;RP1=0, select bank1
  9927     1743  0529               	andwf	(___fldiv@grs+2)^(0+128),w
  9928     1744  1283               	bcf	3,5	;RP0=0, select bank0
  9929     1745  1303               	bcf	3,6	;RP1=0, select bank0
  9930     1746  00DA               	movwf	??___fldiv+2
  9931     1747  307F               	movlw	127
  9932     1748  1683               	bsf	3,5	;RP0=1, select bank1
  9933     1749  1303               	bcf	3,6	;RP1=0, select bank1
  9934     174A  052A               	andwf	(___fldiv@grs+3)^(0+128),w
  9935     174B  1283               	bcf	3,5	;RP0=0, select bank0
  9936     174C  1303               	bcf	3,6	;RP1=0, select bank0
  9937     174D  00DB               	movwf	??___fldiv+3
  9938     174E  085B               	movf	??___fldiv+3,w
  9939     174F  045A               	iorwf	??___fldiv+2,w
  9940     1750  0459               	iorwf	??___fldiv+1,w
  9941     1751  0458               	iorwf	??___fldiv,w
  9942     1752  1903               	skipnz
  9943     1753  2F55               	goto	u7321
  9944     1754  2F56               	goto	u7320
  9945     1755                     u7321:
  9946     1755  2F5B               	goto	l747
  9947     1756                     u7320:
  9948     1756                     l4330:
  9949     1756  1683               	bsf	3,5	;RP0=1, select bank1
  9950     1757  1303               	bcf	3,6	;RP1=0, select bank1
  9951     1758  01AC               	clrf	___fldiv@aexp^(0+128)
  9952     1759  0AAC               	incf	___fldiv@aexp^(0+128),f
  9953     175A  2F60               	goto	l4334
  9954     175B                     l747:
  9955     175B  1C54               	btfss	___fldiv@b,0
  9956     175C  2F5E               	goto	u7331
  9957     175D  2F5F               	goto	u7330
  9958     175E                     u7331:
  9959     175E  2F60               	goto	l4334
  9960     175F                     u7330:
  9961     175F  2F56               	goto	l4330
  9962     1760                     l4334:
  9963     1760  1683               	bsf	3,5	;RP0=1, select bank1
  9964     1761  1303               	bcf	3,6	;RP1=0, select bank1
  9965     1762  082C               	movf	___fldiv@aexp^(0+128),w
  9966     1763  1903               	btfsc	3,2
  9967     1764  2F66               	goto	u7341
  9968     1765  2F67               	goto	u7340
  9969     1766                     u7341:
  9970     1766  2F9C               	goto	l4344
  9971     1767                     u7340:
  9972     1767                     l4336:
  9973     1767  3001               	movlw	1
  9974     1768  1283               	bcf	3,5	;RP0=0, select bank0
  9975     1769  1303               	bcf	3,6	;RP1=0, select bank0
  9976     176A  07D4               	addwf	___fldiv@b,f
  9977     176B  3000               	movlw	0
  9978     176C  1803               	skipnc
  9979     176D  3001               	movlw	1
  9980     176E  07D5               	addwf	___fldiv@b+1,f
  9981     176F  3000               	movlw	0
  9982     1770  1803               	skipnc
  9983     1771  3001               	movlw	1
  9984     1772  07D6               	addwf	___fldiv@b+2,f
  9985     1773  3000               	movlw	0
  9986     1774  1803               	skipnc
  9987     1775  3001               	movlw	1
  9988     1776  07D7               	addwf	___fldiv@b+3,f
  9989     1777                     l4338:
  9990     1777  1C57               	btfss	___fldiv@b+3,0
  9991     1778  2F7A               	goto	u7351
  9992     1779  2F7B               	goto	u7350
  9993     177A                     u7351:
  9994     177A  2F9C               	goto	l4344
  9995     177B                     u7350:
  9996     177B                     l4340:
  9997     177B  0854               	movf	___fldiv@b,w
  9998     177C  00D8               	movwf	??___fldiv
  9999     177D  0855               	movf	___fldiv@b+1,w
 10000     177E  00D9               	movwf	??___fldiv+1
 10001     177F  0856               	movf	___fldiv@b+2,w
 10002     1780  00DA               	movwf	??___fldiv+2
 10003     1781  0857               	movf	___fldiv@b+3,w
 10004     1782  00DB               	movwf	??___fldiv+3
 10005     1783  3001               	movlw	1
 10006     1784  00DC               	movwf	??___fldiv+4
 10007     1785                     u7365:
 10008     1785  0D5B               	rlf	??___fldiv+3,w
 10009     1786  0CDB               	rrf	??___fldiv+3,f
 10010     1787  0CDA               	rrf	??___fldiv+2,f
 10011     1788  0CD9               	rrf	??___fldiv+1,f
 10012     1789  0CD8               	rrf	??___fldiv,f
 10013     178A                     u7360:
 10014     178A  0BDC               	decfsz	??___fldiv+4,f
 10015     178B  2F85               	goto	u7365
 10016     178C  085B               	movf	??___fldiv+3,w
 10017     178D  00D7               	movwf	___fldiv@b+3
 10018     178E  085A               	movf	??___fldiv+2,w
 10019     178F  00D6               	movwf	___fldiv@b+2
 10020     1790  0859               	movf	??___fldiv+1,w
 10021     1791  00D5               	movwf	___fldiv@b+1
 10022     1792  0858               	movf	??___fldiv,w
 10023     1793  00D4               	movwf	___fldiv@b
 10024     1794                     l4342:
 10025     1794  3001               	movlw	1
 10026     1795  1683               	bsf	3,5	;RP0=1, select bank1
 10027     1796  1303               	bcf	3,6	;RP1=0, select bank1
 10028     1797  07A5               	addwf	___fldiv@new_exp^(0+128),f
 10029     1798  1803               	skipnc
 10030     1799  0AA6               	incf	(___fldiv@new_exp+1)^(0+128),f
 10031     179A  3000               	movlw	0
 10032     179B  07A6               	addwf	(___fldiv@new_exp+1)^(0+128),f
 10033     179C                     l4344:
 10034     179C  1683               	bsf	3,5	;RP0=1, select bank1
 10035     179D  1303               	bcf	3,6	;RP1=0, select bank1
 10036     179E  0826               	movf	(___fldiv@new_exp+1)^(0+128),w
 10037     179F  3A80               	xorlw	128
 10038     17A0  00FF               	movwf	btemp+1
 10039     17A1  3080               	movlw	128
 10040     17A2  027F               	subwf	btemp+1,w
 10041     17A3  1D03               	skipz
 10042     17A4  2FA7               	goto	u7375
 10043     17A5  30FF               	movlw	255
 10044     17A6  0225               	subwf	___fldiv@new_exp^(0+128),w
 10045     17A7                     u7375:
 10046     17A7  1C03               	skipc
 10047     17A8  2FAA               	goto	u7371
 10048     17A9  2FAB               	goto	u7370
 10049     17AA                     u7371:
 10050     17AA  2FBB               	goto	l4348
 10051     17AB                     u7370:
 10052     17AB                     l4346:
 10053     17AB  30FF               	movlw	255
 10054     17AC  1683               	bsf	3,5	;RP0=1, select bank1
 10055     17AD  1303               	bcf	3,6	;RP1=0, select bank1
 10056     17AE  00A5               	movwf	___fldiv@new_exp^(0+128)
 10057     17AF  3000               	movlw	0
 10058     17B0  00A6               	movwf	(___fldiv@new_exp^(0+128)+1)
 10059     17B1  3000               	movlw	0
 10060     17B2  1283               	bcf	3,5	;RP0=0, select bank0
 10061     17B3  1303               	bcf	3,6	;RP1=0, select bank0
 10062     17B4  00D7               	movwf	___fldiv@b+3
 10063     17B5  3000               	movlw	0
 10064     17B6  00D6               	movwf	___fldiv@b+2
 10065     17B7  3000               	movlw	0
 10066     17B8  00D5               	movwf	___fldiv@b+1
 10067     17B9  3000               	movlw	0
 10068     17BA  00D4               	movwf	___fldiv@b
 10069     17BB                     l4348:
 10070     17BB  1683               	bsf	3,5	;RP0=1, select bank1
 10071     17BC  1303               	bcf	3,6	;RP1=0, select bank1
 10072     17BD  0826               	movf	(___fldiv@new_exp+1)^(0+128),w
 10073     17BE  3A80               	xorlw	128
 10074     17BF  00FF               	movwf	btemp+1
 10075     17C0  3080               	movlw	128
 10076     17C1  027F               	subwf	btemp+1,w
 10077     17C2  1D03               	skipz
 10078     17C3  2FC6               	goto	u7385
 10079     17C4  3001               	movlw	1
 10080     17C5  0225               	subwf	___fldiv@new_exp^(0+128),w
 10081     17C6                     u7385:
 10082     17C6  1803               	skipnc
 10083     17C7  2FC9               	goto	u7381
 10084     17C8  2FCA               	goto	u7380
 10085     17C9                     u7381:
 10086     17C9  2FDB               	goto	l753
 10087     17CA                     u7380:
 10088     17CA                     l4350:
 10089     17CA  1683               	bsf	3,5	;RP0=1, select bank1
 10090     17CB  1303               	bcf	3,6	;RP1=0, select bank1
 10091     17CC  01A5               	clrf	___fldiv@new_exp^(0+128)
 10092     17CD  01A6               	clrf	(___fldiv@new_exp+1)^(0+128)
 10093     17CE                     l4352:
 10094     17CE  3000               	movlw	0
 10095     17CF  1283               	bcf	3,5	;RP0=0, select bank0
 10096     17D0  1303               	bcf	3,6	;RP1=0, select bank0
 10097     17D1  00D7               	movwf	___fldiv@b+3
 10098     17D2  3000               	movlw	0
 10099     17D3  00D6               	movwf	___fldiv@b+2
 10100     17D4  3000               	movlw	0
 10101     17D5  00D5               	movwf	___fldiv@b+1
 10102     17D6  3000               	movlw	0
 10103     17D7  00D4               	movwf	___fldiv@b
 10104     17D8                     l4354:
 10105     17D8  1683               	bsf	3,5	;RP0=1, select bank1
 10106     17D9  1303               	bcf	3,6	;RP1=0, select bank1
 10107     17DA  01A4               	clrf	___fldiv@sign^(0+128)
 10108     17DB                     l753:
 10109     17DB  1683               	bsf	3,5	;RP0=1, select bank1
 10110     17DC  1303               	bcf	3,6	;RP1=0, select bank1
 10111     17DD  0825               	movf	___fldiv@new_exp^(0+128),w
 10112     17DE  00AB               	movwf	___fldiv@bexp^(0+128)
 10113     17DF                     l4356:
 10114     17DF  1C2B               	btfss	___fldiv@bexp^(0+128),0
 10115     17E0  2FE2               	goto	u7391
 10116     17E1  2FE3               	goto	u7390
 10117     17E2                     u7391:
 10118     17E2  2FE7               	goto	l4360
 10119     17E3                     u7390:
 10120     17E3                     l4358:
 10121     17E3  1283               	bcf	3,5	;RP0=0, select bank0
 10122     17E4  1303               	bcf	3,6	;RP1=0, select bank0
 10123     17E5  17D6               	bsf	___fldiv@b+2,7
 10124     17E6  2FED               	goto	l755
 10125     17E7                     l4360:
 10126     17E7  307F               	movlw	127
 10127     17E8  1283               	bcf	3,5	;RP0=0, select bank0
 10128     17E9  1303               	bcf	3,6	;RP1=0, select bank0
 10129     17EA  00D8               	movwf	??___fldiv
 10130     17EB  0858               	movf	??___fldiv,w
 10131     17EC  05D6               	andwf	___fldiv@b+2,f
 10132     17ED                     l755:
 10133     17ED  1683               	bsf	3,5	;RP0=1, select bank1
 10134     17EE  1303               	bcf	3,6	;RP1=0, select bank1
 10135     17EF  082B               	movf	___fldiv@bexp^(0+128),w
 10136     17F0  1283               	bcf	3,5	;RP0=0, select bank0
 10137     17F1  1303               	bcf	3,6	;RP1=0, select bank0
 10138     17F2  00D8               	movwf	??___fldiv
 10139     17F3  1003               	clrc
 10140     17F4  0C58               	rrf	??___fldiv,w
 10141     17F5  00D7               	movwf	___fldiv@b+3
 10142     17F6  1683               	bsf	3,5	;RP0=1, select bank1
 10143     17F7  1303               	bcf	3,6	;RP1=0, select bank1
 10144     17F8  0824               	movf	___fldiv@sign^(0+128),w
 10145     17F9  1283               	bcf	3,5	;RP0=0, select bank0
 10146     17FA  1303               	bcf	3,6	;RP1=0, select bank0
 10147     17FB  00D8               	movwf	??___fldiv
 10148     17FC  0858               	movf	??___fldiv,w
 10149     17FD  04D7               	iorwf	___fldiv@b+3,f
 10150     17FE  2E02               	goto	l4268
 10151     17FF                     l733:
 10152     17FF  0008               	return
 10153     1800                     __end_of___fldiv:
 10154                           
 10155                           	psect	text24
 10156     1A92                     __ptext24:	
 10157 ;; *************** function _WriteStringToLCD *****************
 10158 ;; Defined at:
 10159 ;;		line 47 in file "display8bits.c"
 10160 ;; Parameters:    Size  Location     Type
 10161 ;;  s               1    wreg     PTR const unsigned char 
 10162 ;;		 -> main@s(20), 
 10163 ;; Auto vars:     Size  Location     Type
 10164 ;;  s               1    9[BANK0 ] PTR const unsigned char 
 10165 ;;		 -> main@s(20), 
 10166 ;; Return value:  Size  Location     Type
 10167 ;;                  1    wreg      void 
 10168 ;; Registers used:
 10169 ;;		wreg, fsr0l, fsr0h, status,2, status,0, pclath, cstack
 10170 ;; Tracked objects:
 10171 ;;		On entry : 0/0
 10172 ;;		On exit  : 0/0
 10173 ;;		Unchanged: 0/0
 10174 ;; Data sizes:     COMMON   BANK0   BANK1   BANK3   BANK2
 10175 ;;      Params:         0       0       0       0       0
 10176 ;;      Locals:         0       1       0       0       0
 10177 ;;      Temps:          0       1       0       0       0
 10178 ;;      Totals:         0       2       0       0       0
 10179 ;;Total ram usage:        2 bytes
 10180 ;; Hardware stack levels used: 1
 10181 ;; Hardware stack levels required when called: 4
 10182 ;; This function calls:
 10183 ;;		_WriteDataToLCD
 10184 ;; This function is called by:
 10185 ;;		_main
 10186 ;; This function uses a non-reentrant model
 10187 ;;
 10188                           
 10189     1A92                     _WriteStringToLCD:	
 10190                           ;psect for function _WriteStringToLCD
 10191                           
 10192                           
 10193                           ;incstack = 0
 10194                           ; Regs used in _WriteStringToLCD: [wreg-fsr0h+status,2+status,0+pclath+cstack]
 10195                           ;WriteStringToLCD@s stored from wreg
 10196     1A92  1283               	bcf	3,5	;RP0=0, select bank0
 10197     1A93  1303               	bcf	3,6	;RP1=0, select bank0
 10198     1A94  00A9               	movwf	WriteStringToLCD@s
 10199     1A95                     l3270:
 10200                           
 10201                           ;display8bits.c: 47: void WriteStringToLCD(const char *s);display8bits.c: 48: {;display8
      +                          bits.c: 49:     while(*s)
 10202     1A95  2AA4               	goto	l3276
 10203     1A96                     l3272:
 10204                           
 10205                           ;display8bits.c: 50:     {;display8bits.c: 51:         WriteDataToLCD(*s++);
 10206     1A96  0829               	movf	WriteStringToLCD@s,w
 10207     1A97  0084               	movwf	4
 10208     1A98  0800               	movf	0,w
 10209     1A99  160A  158A  2250  160A  158A  	fcall	_WriteDataToLCD
 10210     1A9E                     l3274:
 10211     1A9E  3001               	movlw	1
 10212     1A9F  1283               	bcf	3,5	;RP0=0, select bank0
 10213     1AA0  1303               	bcf	3,6	;RP1=0, select bank0
 10214     1AA1  00A8               	movwf	??_WriteStringToLCD
 10215     1AA2  0828               	movf	??_WriteStringToLCD,w
 10216     1AA3  07A9               	addwf	WriteStringToLCD@s,f
 10217     1AA4                     l3276:
 10218                           
 10219                           ;display8bits.c: 49:     while(*s)
 10220     1AA4  0829               	movf	WriteStringToLCD@s,w
 10221     1AA5  0084               	movwf	4
 10222     1AA6  1783               	bsf	3,7	;select IRP bank2
 10223     1AA7  0800               	movf	0,w
 10224     1AA8  1D03               	btfss	3,2
 10225     1AA9  2AAB               	goto	u5401
 10226     1AAA  2AAC               	goto	u5400
 10227     1AAB                     u5401:
 10228     1AAB  2A96               	goto	l3272
 10229     1AAC                     u5400:
 10230     1AAC                     l89:
 10231     1AAC  0008               	return
 10232     1AAD                     __end_of_WriteStringToLCD:
 10233                           
 10234                           	psect	text25
 10235     1A50                     __ptext25:	
 10236 ;; *************** function _WriteDataToLCD *****************
 10237 ;; Defined at:
 10238 ;;		line 27 in file "display8bits.c"
 10239 ;; Parameters:    Size  Location     Type
 10240 ;;  LCDChar         1    wreg     unsigned char 
 10241 ;; Auto vars:     Size  Location     Type
 10242 ;;  LCDChar         1    7[BANK0 ] unsigned char 
 10243 ;; Return value:  Size  Location     Type
 10244 ;;                  1    wreg      void 
 10245 ;; Registers used:
 10246 ;;		wreg, status,2, status,0, pclath, cstack
 10247 ;; Tracked objects:
 10248 ;;		On entry : 0/0
 10249 ;;		On exit  : 0/0
 10250 ;;		Unchanged: 0/0
 10251 ;; Data sizes:     COMMON   BANK0   BANK1   BANK3   BANK2
 10252 ;;      Params:         0       0       0       0       0
 10253 ;;      Locals:         0       1       0       0       0
 10254 ;;      Temps:          0       0       0       0       0
 10255 ;;      Totals:         0       1       0       0       0
 10256 ;;Total ram usage:        1 bytes
 10257 ;; Hardware stack levels used: 1
 10258 ;; Hardware stack levels required when called: 3
 10259 ;; This function calls:
 10260 ;;		_ToggleEpinOfLCD
 10261 ;; This function is called by:
 10262 ;;		_WriteStringToLCD
 10263 ;; This function uses a non-reentrant model
 10264 ;;
 10265                           
 10266     1A50                     _WriteDataToLCD:	
 10267                           ;psect for function _WriteDataToLCD
 10268                           
 10269                           
 10270                           ;incstack = 0
 10271                           ; Regs used in _WriteDataToLCD: [wreg+status,2+status,0+pclath+cstack]
 10272                           ;WriteDataToLCD@LCDChar stored from wreg
 10273     1A50  1283               	bcf	3,5	;RP0=0, select bank0
 10274     1A51  1303               	bcf	3,6	;RP1=0, select bank0
 10275     1A52  00A7               	movwf	WriteDataToLCD@LCDChar
 10276     1A53                     l2902:
 10277                           
 10278                           ;display8bits.c: 27: void WriteDataToLCD(char LCDChar);display8bits.c: 28: {;display8bit
      +                          s.c: 29:     RC6 = 1;
 10279     1A53  1707               	bsf	7,6	;volatile
 10280     1A54                     l2904:
 10281                           
 10282                           ;display8bits.c: 30:     PORTD = LCDChar;
 10283     1A54  0827               	movf	WriteDataToLCD@LCDChar,w
 10284     1A55  0088               	movwf	8	;volatile
 10285     1A56                     l2906:
 10286                           
 10287                           ;display8bits.c: 31:     ToggleEpinOfLCD();
 10288     1A56  160A  158A  227B  160A  158A  	fcall	_ToggleEpinOfLCD
 10289     1A5B                     l80:
 10290     1A5B  0008               	return
 10291     1A5C                     __end_of_WriteDataToLCD:
 10292                           
 10293                           	psect	text26
 10294     1AAD                     __ptext26:	
 10295 ;; *************** function _InitLCD *****************
 10296 ;; Defined at:
 10297 ;;		line 33 in file "display8bits.c"
 10298 ;; Parameters:    Size  Location     Type
 10299 ;;		None
 10300 ;; Auto vars:     Size  Location     Type
 10301 ;;		None
 10302 ;; Return value:  Size  Location     Type
 10303 ;;                  1    wreg      void 
 10304 ;; Registers used:
 10305 ;;		wreg, status,2, status,0, pclath, cstack
 10306 ;; Tracked objects:
 10307 ;;		On entry : 0/0
 10308 ;;		On exit  : 0/0
 10309 ;;		Unchanged: 0/0
 10310 ;; Data sizes:     COMMON   BANK0   BANK1   BANK3   BANK2
 10311 ;;      Params:         0       0       0       0       0
 10312 ;;      Locals:         0       0       0       0       0
 10313 ;;      Temps:          0       0       0       0       0
 10314 ;;      Totals:         0       0       0       0       0
 10315 ;;Total ram usage:        0 bytes
 10316 ;; Hardware stack levels used: 1
 10317 ;; Hardware stack levels required when called: 4
 10318 ;; This function calls:
 10319 ;;		_WriteCommandToLCD
 10320 ;; This function is called by:
 10321 ;;		_main
 10322 ;; This function uses a non-reentrant model
 10323 ;;
 10324                           
 10325     1AAD                     _InitLCD:	
 10326                           ;psect for function _InitLCD
 10327                           
 10328     1AAD                     l3254:	
 10329                           ;incstack = 0
 10330                           ; Regs used in _InitLCD: [wreg+status,2+status,0+pclath+cstack]
 10331                           
 10332                           
 10333                           ;display8bits.c: 36:     RC7 = 0;
 10334     1AAD  1283               	bcf	3,5	;RP0=0, select bank0
 10335     1AAE  1303               	bcf	3,6	;RP1=0, select bank0
 10336     1AAF  1387               	bcf	7,7	;volatile
 10337                           
 10338                           ;display8bits.c: 37:     RC6 = 0;
 10339     1AB0  1307               	bcf	7,6	;volatile
 10340     1AB1                     l3256:
 10341                           
 10342                           ;display8bits.c: 38:     PORTD = 0;
 10343     1AB1  0188               	clrf	8	;volatile
 10344     1AB2                     l3258:
 10345                           
 10346                           ;display8bits.c: 39:     TRISC7 = 0;
 10347     1AB2  1683               	bsf	3,5	;RP0=1, select bank1
 10348     1AB3  1303               	bcf	3,6	;RP1=0, select bank1
 10349     1AB4  1387               	bcf	7,7	;volatile
 10350     1AB5                     l3260:
 10351                           
 10352                           ;display8bits.c: 40:     TRISC6 = 0;
 10353     1AB5  1307               	bcf	7,6	;volatile
 10354                           
 10355                           ;display8bits.c: 41:     TRISD = 0;
 10356     1AB6  0188               	clrf	8	;volatile
 10357     1AB7                     l3262:
 10358                           
 10359                           ;display8bits.c: 42:     WriteCommandToLCD(0x38);
 10360     1AB7  3038               	movlw	56
 10361     1AB8  160A  158A  2244  160A  158A  	fcall	_WriteCommandToLCD
 10362     1ABD                     l3264:
 10363                           
 10364                           ;display8bits.c: 43:     WriteCommandToLCD(0x0c);
 10365     1ABD  300C               	movlw	12
 10366     1ABE  160A  158A  2244  160A  158A  	fcall	_WriteCommandToLCD
 10367     1AC3                     l3266:
 10368                           
 10369                           ;display8bits.c: 44:     WriteCommandToLCD(0x01);
 10370     1AC3  3001               	movlw	1
 10371     1AC4  160A  158A  2244  160A  158A  	fcall	_WriteCommandToLCD
 10372     1AC9                     l3268:
 10373                           
 10374                           ;display8bits.c: 45:     WriteCommandToLCD(0x06);
 10375     1AC9  3006               	movlw	6
 10376     1ACA  160A  158A  2244  160A  158A  	fcall	_WriteCommandToLCD
 10377     1ACF                     l83:
 10378     1ACF  0008               	return
 10379     1AD0                     __end_of_InitLCD:
 10380                           
 10381                           	psect	text27
 10382     1A69                     __ptext27:	
 10383 ;; *************** function _ClearLCDScreen *****************
 10384 ;; Defined at:
 10385 ;;		line 54 in file "display8bits.c"
 10386 ;; Parameters:    Size  Location     Type
 10387 ;;		None
 10388 ;; Auto vars:     Size  Location     Type
 10389 ;;		None
 10390 ;; Return value:  Size  Location     Type
 10391 ;;                  1    wreg      void 
 10392 ;; Registers used:
 10393 ;;		wreg, status,2, status,0, pclath, cstack
 10394 ;; Tracked objects:
 10395 ;;		On entry : 0/0
 10396 ;;		On exit  : 0/0
 10397 ;;		Unchanged: 0/0
 10398 ;; Data sizes:     COMMON   BANK0   BANK1   BANK3   BANK2
 10399 ;;      Params:         0       0       0       0       0
 10400 ;;      Locals:         0       0       0       0       0
 10401 ;;      Temps:          0       2       0       0       0
 10402 ;;      Totals:         0       2       0       0       0
 10403 ;;Total ram usage:        2 bytes
 10404 ;; Hardware stack levels used: 1
 10405 ;; Hardware stack levels required when called: 4
 10406 ;; This function calls:
 10407 ;;		_WriteCommandToLCD
 10408 ;; This function is called by:
 10409 ;;		_main
 10410 ;; This function uses a non-reentrant model
 10411 ;;
 10412                           
 10413     1A69                     _ClearLCDScreen:	
 10414                           ;psect for function _ClearLCDScreen
 10415                           
 10416     1A69                     l3278:	
 10417                           ;incstack = 0
 10418                           ; Regs used in _ClearLCDScreen: [wreg+status,2+status,0+pclath+cstack]
 10419                           
 10420                           
 10421                           ;display8bits.c: 56:     WriteCommandToLCD(0x01);
 10422     1A69  3001               	movlw	1
 10423     1A6A  160A  158A  2244  160A  158A  	fcall	_WriteCommandToLCD
 10424     1A6F                     l3280:
 10425                           
 10426                           ;display8bits.c: 57:     _delay((unsigned long)((2)*(8000000/4000.0)));
 10427     1A6F  3006               	movlw	6
 10428     1A70  1283               	bcf	3,5	;RP0=0, select bank0
 10429     1A71  1303               	bcf	3,6	;RP1=0, select bank0
 10430     1A72  00A9               	movwf	??_ClearLCDScreen+1
 10431     1A73  302F               	movlw	47
 10432     1A74  00A8               	movwf	??_ClearLCDScreen
 10433     1A75                     u7437:
 10434     1A75  0BA8               	decfsz	??_ClearLCDScreen,f
 10435     1A76  2A75               	goto	u7437
 10436     1A77  0BA9               	decfsz	??_ClearLCDScreen+1,f
 10437     1A78  2A75               	goto	u7437
 10438     1A79  2A7A               	nop2
 10439     1A7A                     l92:
 10440     1A7A  0008               	return
 10441     1A7B                     __end_of_ClearLCDScreen:
 10442                           
 10443                           	psect	text28
 10444     1A44                     __ptext28:	
 10445 ;; *************** function _WriteCommandToLCD *****************
 10446 ;; Defined at:
 10447 ;;		line 21 in file "display8bits.c"
 10448 ;; Parameters:    Size  Location     Type
 10449 ;;  Command         1    wreg     unsigned char 
 10450 ;; Auto vars:     Size  Location     Type
 10451 ;;  Command         1    7[BANK0 ] unsigned char 
 10452 ;; Return value:  Size  Location     Type
 10453 ;;                  1    wreg      void 
 10454 ;; Registers used:
 10455 ;;		wreg, status,2, status,0, pclath, cstack
 10456 ;; Tracked objects:
 10457 ;;		On entry : 0/0
 10458 ;;		On exit  : 0/0
 10459 ;;		Unchanged: 0/0
 10460 ;; Data sizes:     COMMON   BANK0   BANK1   BANK3   BANK2
 10461 ;;      Params:         0       0       0       0       0
 10462 ;;      Locals:         0       1       0       0       0
 10463 ;;      Temps:          0       0       0       0       0
 10464 ;;      Totals:         0       1       0       0       0
 10465 ;;Total ram usage:        1 bytes
 10466 ;; Hardware stack levels used: 1
 10467 ;; Hardware stack levels required when called: 3
 10468 ;; This function calls:
 10469 ;;		_ToggleEpinOfLCD
 10470 ;; This function is called by:
 10471 ;;		_InitLCD
 10472 ;;		_ClearLCDScreen
 10473 ;; This function uses a non-reentrant model
 10474 ;;
 10475                           
 10476     1A44                     _WriteCommandToLCD:	
 10477                           ;psect for function _WriteCommandToLCD
 10478                           
 10479                           
 10480                           ;incstack = 0
 10481                           ; Regs used in _WriteCommandToLCD: [wreg+status,2+status,0+pclath+cstack]
 10482                           ;WriteCommandToLCD@Command stored from wreg
 10483     1A44  1283               	bcf	3,5	;RP0=0, select bank0
 10484     1A45  1303               	bcf	3,6	;RP1=0, select bank0
 10485     1A46  00A7               	movwf	WriteCommandToLCD@Command
 10486     1A47                     l2896:
 10487                           
 10488                           ;display8bits.c: 21: void WriteCommandToLCD(unsigned char Command);display8bits.c: 22: {
      +                          ;display8bits.c: 23:     RC6 = 0;
 10489     1A47  1307               	bcf	7,6	;volatile
 10490     1A48                     l2898:
 10491                           
 10492                           ;display8bits.c: 24:     PORTD = Command;
 10493     1A48  0827               	movf	WriteCommandToLCD@Command,w
 10494     1A49  0088               	movwf	8	;volatile
 10495     1A4A                     l2900:
 10496                           
 10497                           ;display8bits.c: 25:     ToggleEpinOfLCD();
 10498     1A4A  160A  158A  227B  160A  158A  	fcall	_ToggleEpinOfLCD
 10499     1A4F                     l77:
 10500     1A4F  0008               	return
 10501     1A50                     __end_of_WriteCommandToLCD:
 10502                           
 10503                           	psect	text29
 10504     1A7B                     __ptext29:	
 10505 ;; *************** function _ToggleEpinOfLCD *****************
 10506 ;; Defined at:
 10507 ;;		line 14 in file "display8bits.c"
 10508 ;; Parameters:    Size  Location     Type
 10509 ;;		None
 10510 ;; Auto vars:     Size  Location     Type
 10511 ;;		None
 10512 ;; Return value:  Size  Location     Type
 10513 ;;                  1    wreg      void 
 10514 ;; Registers used:
 10515 ;;		wreg
 10516 ;; Tracked objects:
 10517 ;;		On entry : 0/0
 10518 ;;		On exit  : 0/0
 10519 ;;		Unchanged: 0/0
 10520 ;; Data sizes:     COMMON   BANK0   BANK1   BANK3   BANK2
 10521 ;;      Params:         0       0       0       0       0
 10522 ;;      Locals:         0       0       0       0       0
 10523 ;;      Temps:          0       1       0       0       0
 10524 ;;      Totals:         0       1       0       0       0
 10525 ;;Total ram usage:        1 bytes
 10526 ;; Hardware stack levels used: 1
 10527 ;; Hardware stack levels required when called: 2
 10528 ;; This function calls:
 10529 ;;		Nothing
 10530 ;; This function is called by:
 10531 ;;		_WriteCommandToLCD
 10532 ;;		_WriteDataToLCD
 10533 ;; This function uses a non-reentrant model
 10534 ;;
 10535                           
 10536     1A7B                     _ToggleEpinOfLCD:	
 10537                           ;psect for function _ToggleEpinOfLCD
 10538                           
 10539     1A7B                     l2426:	
 10540                           ;incstack = 0
 10541                           ; Regs used in _ToggleEpinOfLCD: [wreg]
 10542                           
 10543                           
 10544                           ;display8bits.c: 16:     RC7 = 1;
 10545     1A7B  1283               	bcf	3,5	;RP0=0, select bank0
 10546     1A7C  1303               	bcf	3,6	;RP1=0, select bank0
 10547     1A7D  1787               	bsf	7,7	;volatile
 10548     1A7E                     l2428:
 10549                           
 10550                           ;display8bits.c: 17:     _delay((unsigned long)((500)*(8000000/4000000.0)));
 10551     1A7E  30C7               	movlw	199
 10552     1A7F  1283               	bcf	3,5	;RP0=0, select bank0
 10553     1A80  1303               	bcf	3,6	;RP1=0, select bank0
 10554     1A81  00A6               	movwf	??_ToggleEpinOfLCD
 10555     1A82                     u7447:
 10556     1A82  2A83               	nop2
 10557     1A83  0BA6               	decfsz	??_ToggleEpinOfLCD,f
 10558     1A84  2A82               	goto	u7447
 10559     1A85  2A86               	nop2
 10560     1A86                     l2430:
 10561                           
 10562                           ;display8bits.c: 18:     RC7 = 0;
 10563     1A86  1283               	bcf	3,5	;RP0=0, select bank0
 10564     1A87  1303               	bcf	3,6	;RP1=0, select bank0
 10565     1A88  1387               	bcf	7,7	;volatile
 10566                           
 10567                           ;display8bits.c: 19:     _delay((unsigned long)((500)*(8000000/4000000.0)));
 10568     1A89  30C7               	movlw	199
 10569     1A8A  1283               	bcf	3,5	;RP0=0, select bank0
 10570     1A8B  1303               	bcf	3,6	;RP1=0, select bank0
 10571     1A8C  00A6               	movwf	??_ToggleEpinOfLCD
 10572     1A8D                     u7457:
 10573     1A8D  2A8E               	nop2
 10574     1A8E  0BA6               	decfsz	??_ToggleEpinOfLCD,f
 10575     1A8F  2A8D               	goto	u7457
 10576     1A90  2A91               	nop2
 10577     1A91                     l74:
 10578     1A91  0008               	return
 10579     1A92                     __end_of_ToggleEpinOfLCD:
 10580                           
 10581                           	psect	text30
 10582     1C50                     __ptext30:	
 10583 ;; *************** function _isr *****************
 10584 ;; Defined at:
 10585 ;;		line 34 in file "Lab2.c"
 10586 ;; Parameters:    Size  Location     Type
 10587 ;;		None
 10588 ;; Auto vars:     Size  Location     Type
 10589 ;;		None
 10590 ;; Return value:  Size  Location     Type
 10591 ;;                  1    wreg      void 
 10592 ;; Registers used:
 10593 ;;		wreg, status,2, status,0, pclath, cstack
 10594 ;; Tracked objects:
 10595 ;;		On entry : 0/0
 10596 ;;		On exit  : 0/0
 10597 ;;		Unchanged: 0/0
 10598 ;; Data sizes:     COMMON   BANK0   BANK1   BANK3   BANK2
 10599 ;;      Params:         0       0       0       0       0
 10600 ;;      Locals:         0       0       0       0       0
 10601 ;;      Temps:          0       6       0       0       0
 10602 ;;      Totals:         0       6       0       0       0
 10603 ;;Total ram usage:        6 bytes
 10604 ;; Hardware stack levels used: 1
 10605 ;; Hardware stack levels required when called: 1
 10606 ;; This function calls:
 10607 ;;		i1___awdiv
 10608 ;;		i1___xxtofl
 10609 ;; This function is called by:
 10610 ;;		Interrupt level 1
 10611 ;; This function uses a non-reentrant model
 10612 ;;
 10613                           
 10614     1C50                     _isr:	
 10615                           ;psect for function _isr
 10616                           
 10617     1C50                     i1l3736:
 10618                           
 10619                           ;Lab2.c: 36: if(PIR1bits.ADIF){
 10620     1C50  1F0C               	btfss	12,6	;volatile
 10621     1C51  2C53               	goto	u621_21
 10622     1C52  2C54               	goto	u621_20
 10623     1C53                     u621_21:
 10624     1C53  2CAE               	goto	i1l165
 10625     1C54                     u621_20:
 10626     1C54                     i1l3738:
 10627                           
 10628                           ;Lab2.c: 38:        if (ADCON0bits.CHS ==1){
 10629     1C54  0C1F               	rrf	31,w	;volatile
 10630     1C55  00A0               	movwf	??_isr
 10631     1C56  0C20               	rrf	??_isr,w
 10632     1C57  390F               	andlw	15
 10633     1C58  3A01               	xorlw	1
 10634     1C59  1D03               	skipz
 10635     1C5A  2C5C               	goto	u622_21
 10636     1C5B  2C5D               	goto	u622_20
 10637     1C5C                     u622_21:
 10638     1C5C  2C74               	goto	i1l3742
 10639     1C5D                     u622_20:
 10640     1C5D                     i1l3740:
 10641                           
 10642                           ;Lab2.c: 40:               valpot0 =5/ ADRESH;
 10643     1C5D  081E               	movf	30,w	;volatile
 10644     1C5E  00A0               	movwf	??_isr
 10645     1C5F  01A1               	clrf	??_isr+1
 10646     1C60  0820               	movf	??_isr,w
 10647     1C61  00F0               	movwf	i1___awdiv@divisor
 10648     1C62  0821               	movf	??_isr+1,w
 10649     1C63  00F1               	movwf	i1___awdiv@divisor+1
 10650     1C64  3005               	movlw	5
 10651     1C65  00F2               	movwf	i1___awdiv@dividend
 10652     1C66  3000               	movlw	0
 10653     1C67  00F3               	movwf	i1___awdiv@dividend+1
 10654     1C68  160A  158A  24B5  160A  158A  	fcall	i1___awdiv
 10655     1C6D  0871               	movf	?i1___awdiv+1,w
 10656     1C6E  1283               	bcf	3,5	;RP0=0, select bank0
 10657     1C6F  1303               	bcf	3,6	;RP1=0, select bank0
 10658     1C70  00E9               	movwf	_valpot0+1
 10659     1C71  0870               	movf	?i1___awdiv,w
 10660     1C72  00E8               	movwf	_valpot0
 10661                           
 10662                           ;Lab2.c: 42:         }
 10663     1C73  2CAB               	goto	i1l3750
 10664     1C74                     i1l3742:
 10665     1C74  0C1F               	rrf	31,w	;volatile
 10666     1C75  00A0               	movwf	??_isr
 10667     1C76  0C20               	rrf	??_isr,w
 10668     1C77  390F               	andlw	15
 10669     1C78  3A00               	xorlw	0
 10670     1C79  1D03               	skipz
 10671     1C7A  2C7C               	goto	u623_21
 10672     1C7B  2C7D               	goto	u623_20
 10673     1C7C                     u623_21:
 10674     1C7C  2C9B               	goto	i1l3746
 10675     1C7D                     u623_20:
 10676     1C7D                     i1l3744:
 10677                           
 10678                           ;Lab2.c: 45:          varvolt = ADRESH;
 10679     1C7D  081E               	movf	30,w	;volatile
 10680     1C7E  00A0               	movwf	??_isr
 10681     1C7F  01A1               	clrf	??_isr+1
 10682     1C80  01A2               	clrf	??_isr+2
 10683     1C81  01A3               	clrf	??_isr+3
 10684     1C82  0823               	movf	??_isr+3,w
 10685     1C83  00F3               	movwf	i1___xxtofl@val+3
 10686     1C84  0822               	movf	??_isr+2,w
 10687     1C85  00F2               	movwf	i1___xxtofl@val+2
 10688     1C86  0821               	movf	??_isr+1,w
 10689     1C87  00F1               	movwf	i1___xxtofl@val+1
 10690     1C88  0820               	movf	??_isr,w
 10691     1C89  00F0               	movwf	i1___xxtofl@val
 10692     1C8A  3000               	movlw	0
 10693     1C8B  160A  158A  2748  160A  158A  	fcall	i1___xxtofl
 10694     1C90  0873               	movf	?i1___xxtofl+3,w
 10695     1C91  1683               	bsf	3,5	;RP0=1, select bank3
 10696     1C92  1703               	bsf	3,6	;RP1=1, select bank3
 10697     1C93  00AB               	movwf	(_varvolt+3)^(0+384)
 10698     1C94  0872               	movf	?i1___xxtofl+2,w
 10699     1C95  00AA               	movwf	(_varvolt+2)^(0+384)
 10700     1C96  0871               	movf	?i1___xxtofl+1,w
 10701     1C97  00A9               	movwf	(_varvolt+1)^(0+384)
 10702     1C98  0870               	movf	?i1___xxtofl,w
 10703     1C99  00A8               	movwf	_varvolt^(0+384)
 10704                           
 10705                           ;Lab2.c: 46:         }
 10706     1C9A  2CAB               	goto	i1l3750
 10707     1C9B                     i1l3746:
 10708     1C9B  0C1F               	rrf	31,w	;volatile
 10709     1C9C  00A0               	movwf	??_isr
 10710     1C9D  0C20               	rrf	??_isr,w
 10711     1C9E  390F               	andlw	15
 10712     1C9F  3A02               	xorlw	2
 10713     1CA0  1D03               	skipz
 10714     1CA1  2CA3               	goto	u624_21
 10715     1CA2  2CA4               	goto	u624_20
 10716     1CA3                     u624_21:
 10717     1CA3  2CAB               	goto	i1l3750
 10718     1CA4                     u624_20:
 10719     1CA4                     i1l3748:
 10720                           
 10721                           ;Lab2.c: 48:             val = ADRESH;
 10722     1CA4  081E               	movf	30,w	;volatile
 10723     1CA5  00A0               	movwf	??_isr
 10724     1CA6  01A1               	clrf	??_isr+1
 10725     1CA7  0820               	movf	??_isr,w
 10726     1CA8  00E4               	movwf	_val
 10727     1CA9  0821               	movf	??_isr+1,w
 10728     1CAA  00E5               	movwf	_val+1
 10729     1CAB                     i1l3750:
 10730                           
 10731                           ;Lab2.c: 50:             PIR1bits.ADIF =0;
 10732     1CAB  1283               	bcf	3,5	;RP0=0, select bank0
 10733     1CAC  1303               	bcf	3,6	;RP1=0, select bank0
 10734     1CAD  130C               	bcf	12,6	;volatile
 10735     1CAE                     i1l165:
 10736     1CAE  0825               	movf	??_isr+5,w
 10737     1CAF  008A               	movwf	10
 10738     1CB0  0E24               	swapf	??_isr+4,w
 10739     1CB1  0083               	movwf	3
 10740     1CB2  0EFE               	swapf	btemp,f
 10741     1CB3  0E7E               	swapf	btemp,w
 10742     1CB4  0009               	retfie
 10743     1CB5                     __end_of_isr:
 10744                           
 10745                           	psect	intentry
 10746     0004                     __pintentry:	
 10747                           ;incstack = 0
 10748                           ; Regs used in _isr: [wreg+status,2+status,0+pclath+cstack]
 10749                           
 10750     0004                     interrupt_function:
 10751     007E                     saved_w	set	btemp
 10752     0004  00FE               	movwf	btemp
 10753     0005  0E03               	swapf	3,w
 10754     0006  1283               	bcf	3,5	;RP0=0, select bank0
 10755     0007  1303               	bcf	3,6	;RP1=0, select bank0
 10756     0008  00A4               	movwf	??_isr+4
 10757     0009  080A               	movf	10,w
 10758     000A  00A5               	movwf	??_isr+5
 10759     000B  160A  158A  2C50   	ljmp	_isr
 10760                           
 10761                           	psect	text31
 10762     1F48                     __ptext31:	
 10763 ;; *************** function i1___xxtofl *****************
 10764 ;; Defined at:
 10765 ;;		line 10 in file "C:\Program Files\Microchip\xc8\v2.40\pic\sources\c90\common\xxtofl.c"
 10766 ;; Parameters:    Size  Location     Type
 10767 ;;  sign            1    wreg     unsigned char 
 10768 ;;  val             4    0[COMMON] long 
 10769 ;; Auto vars:     Size  Location     Type
 10770 ;;  sign            1    8[COMMON] unsigned char 
 10771 ;;  arg             4   10[COMMON] unsigned long 
 10772 ;;  exp             1    9[COMMON] unsigned char 
 10773 ;; Return value:  Size  Location     Type
 10774 ;;                  4    0[COMMON] unsigned char 
 10775 ;; Registers used:
 10776 ;;		wreg, status,2, status,0
 10777 ;; Tracked objects:
 10778 ;;		On entry : 0/0
 10779 ;;		On exit  : 0/0
 10780 ;;		Unchanged: 0/0
 10781 ;; Data sizes:     COMMON   BANK0   BANK1   BANK3   BANK2
 10782 ;;      Params:         4       0       0       0       0
 10783 ;;      Locals:         6       0       0       0       0
 10784 ;;      Temps:          4       0       0       0       0
 10785 ;;      Totals:        14       0       0       0       0
 10786 ;;Total ram usage:       14 bytes
 10787 ;; Hardware stack levels used: 1
 10788 ;; This function calls:
 10789 ;;		Nothing
 10790 ;; This function is called by:
 10791 ;;		_isr
 10792 ;; This function uses a non-reentrant model
 10793 ;;
 10794                           
 10795     1F48                     i1___xxtofl:	
 10796                           ;psect for function i1___xxtofl
 10797                           
 10798                           
 10799                           ;incstack = 0
 10800                           ; Regs used in i1___xxtofl: [wreg+status,2+status,0]
 10801                           ;i1___xxtofl@sign stored from wreg
 10802     1F48  00F8               	movwf	i1___xxtofl@sign
 10803     1F49                     i1l3692:
 10804     1F49  0878               	movf	i1___xxtofl@sign,w
 10805     1F4A  1903               	btfsc	3,2
 10806     1F4B  2F4D               	goto	u607_21
 10807     1F4C  2F4E               	goto	u607_20
 10808     1F4D                     u607_21:
 10809     1F4D  2F62               	goto	i1l3698
 10810     1F4E                     u607_20:
 10811     1F4E                     i1l3694:
 10812     1F4E  1FF3               	btfss	i1___xxtofl@val+3,7
 10813     1F4F  2F51               	goto	u608_21
 10814     1F50  2F52               	goto	u608_20
 10815     1F51                     u608_21:
 10816     1F51  2F62               	goto	i1l3698
 10817     1F52                     u608_20:
 10818     1F52                     i1l3696:
 10819     1F52  0970               	comf	i1___xxtofl@val,w
 10820     1F53  00FA               	movwf	i1___xxtofl@arg
 10821     1F54  0971               	comf	i1___xxtofl@val+1,w
 10822     1F55  00FB               	movwf	i1___xxtofl@arg+1
 10823     1F56  0972               	comf	i1___xxtofl@val+2,w
 10824     1F57  00FC               	movwf	i1___xxtofl@arg+2
 10825     1F58  0973               	comf	i1___xxtofl@val+3,w
 10826     1F59  00FD               	movwf	i1___xxtofl@arg+3
 10827     1F5A  0AFA               	incf	i1___xxtofl@arg,f
 10828     1F5B  1903               	skipnz
 10829     1F5C  0AFB               	incf	i1___xxtofl@arg+1,f
 10830     1F5D  1903               	skipnz
 10831     1F5E  0AFC               	incf	i1___xxtofl@arg+2,f
 10832     1F5F  1903               	skipnz
 10833     1F60  0AFD               	incf	i1___xxtofl@arg+3,f
 10834     1F61  2F6A               	goto	i1l815
 10835     1F62                     i1l3698:
 10836     1F62  0873               	movf	i1___xxtofl@val+3,w
 10837     1F63  00FD               	movwf	i1___xxtofl@arg+3
 10838     1F64  0872               	movf	i1___xxtofl@val+2,w
 10839     1F65  00FC               	movwf	i1___xxtofl@arg+2
 10840     1F66  0871               	movf	i1___xxtofl@val+1,w
 10841     1F67  00FB               	movwf	i1___xxtofl@arg+1
 10842     1F68  0870               	movf	i1___xxtofl@val,w
 10843     1F69  00FA               	movwf	i1___xxtofl@arg
 10844     1F6A                     i1l815:
 10845     1F6A  0873               	movf	i1___xxtofl@val+3,w
 10846     1F6B  0472               	iorwf	i1___xxtofl@val+2,w
 10847     1F6C  0471               	iorwf	i1___xxtofl@val+1,w
 10848     1F6D  0470               	iorwf	i1___xxtofl@val,w
 10849     1F6E  1D03               	skipz
 10850     1F6F  2F71               	goto	u609_21
 10851     1F70  2F72               	goto	u609_20
 10852     1F71                     u609_21:
 10853     1F71  2F7B               	goto	i1l3704
 10854     1F72                     u609_20:
 10855     1F72                     i1l3700:
 10856     1F72  3000               	movlw	0
 10857     1F73  00F3               	movwf	?i1___xxtofl+3
 10858     1F74  3000               	movlw	0
 10859     1F75  00F2               	movwf	?i1___xxtofl+2
 10860     1F76  3000               	movlw	0
 10861     1F77  00F1               	movwf	?i1___xxtofl+1
 10862     1F78  3000               	movlw	0
 10863     1F79  00F0               	movwf	?i1___xxtofl
 10864     1F7A  2FFF               	goto	i1l817
 10865     1F7B                     i1l3704:
 10866     1F7B  3096               	movlw	150
 10867     1F7C  00F9               	movwf	i1___xxtofl@exp
 10868     1F7D  2F8B               	goto	i1l3708
 10869     1F7E                     i1l3706:
 10870     1F7E  3001               	movlw	1
 10871     1F7F  00F4               	movwf	??i1___xxtofl
 10872     1F80  0874               	movf	??i1___xxtofl,w
 10873     1F81  07F9               	addwf	i1___xxtofl@exp,f
 10874     1F82  3001               	movlw	1
 10875     1F83                     u610_25:
 10876     1F83  1003               	clrc
 10877     1F84  0CFD               	rrf	i1___xxtofl@arg+3,f
 10878     1F85  0CFC               	rrf	i1___xxtofl@arg+2,f
 10879     1F86  0CFB               	rrf	i1___xxtofl@arg+1,f
 10880     1F87  0CFA               	rrf	i1___xxtofl@arg,f
 10881     1F88  3EFF               	addlw	-1
 10882     1F89  1D03               	skipz
 10883     1F8A  2F83               	goto	u610_25
 10884     1F8B                     i1l3708:
 10885     1F8B  30FE               	movlw	254
 10886     1F8C  057D               	andwf	i1___xxtofl@arg+3,w
 10887     1F8D  1D03               	btfss	3,2
 10888     1F8E  2F90               	goto	u611_21
 10889     1F8F  2F91               	goto	u611_20
 10890     1F90                     u611_21:
 10891     1F90  2F7E               	goto	i1l3706
 10892     1F91                     u611_20:
 10893     1F91  2FAD               	goto	i1l821
 10894     1F92                     i1l3710:
 10895     1F92  3001               	movlw	1
 10896     1F93  00F4               	movwf	??i1___xxtofl
 10897     1F94  0874               	movf	??i1___xxtofl,w
 10898     1F95  07F9               	addwf	i1___xxtofl@exp,f
 10899     1F96                     i1l3712:
 10900     1F96  3001               	movlw	1
 10901     1F97  07FA               	addwf	i1___xxtofl@arg,f
 10902     1F98  3000               	movlw	0
 10903     1F99  1803               	skipnc
 10904     1F9A  3001               	movlw	1
 10905     1F9B  07FB               	addwf	i1___xxtofl@arg+1,f
 10906     1F9C  3000               	movlw	0
 10907     1F9D  1803               	skipnc
 10908     1F9E  3001               	movlw	1
 10909     1F9F  07FC               	addwf	i1___xxtofl@arg+2,f
 10910     1FA0  3000               	movlw	0
 10911     1FA1  1803               	skipnc
 10912     1FA2  3001               	movlw	1
 10913     1FA3  07FD               	addwf	i1___xxtofl@arg+3,f
 10914     1FA4                     i1l3714:
 10915     1FA4  3001               	movlw	1
 10916     1FA5                     u612_25:
 10917     1FA5  1003               	clrc
 10918     1FA6  0CFD               	rrf	i1___xxtofl@arg+3,f
 10919     1FA7  0CFC               	rrf	i1___xxtofl@arg+2,f
 10920     1FA8  0CFB               	rrf	i1___xxtofl@arg+1,f
 10921     1FA9  0CFA               	rrf	i1___xxtofl@arg,f
 10922     1FAA  3EFF               	addlw	-1
 10923     1FAB  1D03               	skipz
 10924     1FAC  2FA5               	goto	u612_25
 10925     1FAD                     i1l821:
 10926     1FAD  30FF               	movlw	255
 10927     1FAE  057D               	andwf	i1___xxtofl@arg+3,w
 10928     1FAF  1D03               	btfss	3,2
 10929     1FB0  2FB2               	goto	u613_21
 10930     1FB1  2FB3               	goto	u613_20
 10931     1FB2                     u613_21:
 10932     1FB2  2F92               	goto	i1l3710
 10933     1FB3                     u613_20:
 10934     1FB3  2FBF               	goto	i1l3718
 10935     1FB4                     i1l3716:
 10936     1FB4  3001               	movlw	1
 10937     1FB5  02F9               	subwf	i1___xxtofl@exp,f
 10938     1FB6  3001               	movlw	1
 10939     1FB7  00F4               	movwf	??i1___xxtofl
 10940     1FB8                     u614_25:
 10941     1FB8  1003               	clrc
 10942     1FB9  0DFA               	rlf	i1___xxtofl@arg,f
 10943     1FBA  0DFB               	rlf	i1___xxtofl@arg+1,f
 10944     1FBB  0DFC               	rlf	i1___xxtofl@arg+2,f
 10945     1FBC  0DFD               	rlf	i1___xxtofl@arg+3,f
 10946     1FBD  0BF4               	decfsz	??i1___xxtofl,f
 10947     1FBE  2FB8               	goto	u614_25
 10948     1FBF                     i1l3718:
 10949     1FBF  1BFC               	btfsc	i1___xxtofl@arg+2,7
 10950     1FC0  2FC2               	goto	u615_21
 10951     1FC1  2FC3               	goto	u615_20
 10952     1FC2                     u615_21:
 10953     1FC2  2FC9               	goto	i1l828
 10954     1FC3                     u615_20:
 10955     1FC3                     i1l3720:
 10956     1FC3  3002               	movlw	2
 10957     1FC4  0279               	subwf	i1___xxtofl@exp,w
 10958     1FC5  1803               	skipnc
 10959     1FC6  2FC8               	goto	u616_21
 10960     1FC7  2FC9               	goto	u616_20
 10961     1FC8                     u616_21:
 10962     1FC8  2FB4               	goto	i1l3716
 10963     1FC9                     u616_20:
 10964     1FC9                     i1l828:
 10965     1FC9  1879               	btfsc	i1___xxtofl@exp,0
 10966     1FCA  2FCC               	goto	u617_21
 10967     1FCB  2FCD               	goto	u617_20
 10968     1FCC                     u617_21:
 10969     1FCC  2FD5               	goto	i1l829
 10970     1FCD                     u617_20:
 10971     1FCD                     i1l3722:
 10972     1FCD  30FF               	movlw	255
 10973     1FCE  05FA               	andwf	i1___xxtofl@arg,f
 10974     1FCF  30FF               	movlw	255
 10975     1FD0  05FB               	andwf	i1___xxtofl@arg+1,f
 10976     1FD1  307F               	movlw	127
 10977     1FD2  05FC               	andwf	i1___xxtofl@arg+2,f
 10978     1FD3  30FF               	movlw	255
 10979     1FD4  05FD               	andwf	i1___xxtofl@arg+3,f
 10980     1FD5                     i1l829:
 10981     1FD5  1003               	clrc
 10982     1FD6  0CF9               	rrf	i1___xxtofl@exp,f
 10983     1FD7                     i1l3724:
 10984     1FD7  0879               	movf	i1___xxtofl@exp,w
 10985     1FD8  00F4               	movwf	??i1___xxtofl
 10986     1FD9  01F5               	clrf	??i1___xxtofl+1
 10987     1FDA  01F6               	clrf	??i1___xxtofl+2
 10988     1FDB  01F7               	clrf	??i1___xxtofl+3
 10989     1FDC  3018               	movlw	24
 10990     1FDD                     u618_25:
 10991     1FDD  1003               	clrc
 10992     1FDE  0DF4               	rlf	??i1___xxtofl,f
 10993     1FDF  0DF5               	rlf	??i1___xxtofl+1,f
 10994     1FE0  0DF6               	rlf	??i1___xxtofl+2,f
 10995     1FE1  0DF7               	rlf	??i1___xxtofl+3,f
 10996     1FE2                     u618_20:
 10997     1FE2  3EFF               	addlw	-1
 10998     1FE3  1D03               	skipz
 10999     1FE4  2FDD               	goto	u618_25
 11000     1FE5  0874               	movf	??i1___xxtofl,w
 11001     1FE6  04FA               	iorwf	i1___xxtofl@arg,f
 11002     1FE7  0875               	movf	??i1___xxtofl+1,w
 11003     1FE8  04FB               	iorwf	i1___xxtofl@arg+1,f
 11004     1FE9  0876               	movf	??i1___xxtofl+2,w
 11005     1FEA  04FC               	iorwf	i1___xxtofl@arg+2,f
 11006     1FEB  0877               	movf	??i1___xxtofl+3,w
 11007     1FEC  04FD               	iorwf	i1___xxtofl@arg+3,f
 11008     1FED                     i1l3726:
 11009     1FED  0878               	movf	i1___xxtofl@sign,w
 11010     1FEE  1903               	btfsc	3,2
 11011     1FEF  2FF1               	goto	u619_21
 11012     1FF0  2FF2               	goto	u619_20
 11013     1FF1                     u619_21:
 11014     1FF1  2FF7               	goto	i1l3732
 11015     1FF2                     u619_20:
 11016     1FF2                     i1l3728:
 11017     1FF2  1FF3               	btfss	i1___xxtofl@val+3,7
 11018     1FF3  2FF5               	goto	u620_21
 11019     1FF4  2FF6               	goto	u620_20
 11020     1FF5                     u620_21:
 11021     1FF5  2FF7               	goto	i1l3732
 11022     1FF6                     u620_20:
 11023     1FF6                     i1l3730:
 11024     1FF6  17FD               	bsf	i1___xxtofl@arg+3,7
 11025     1FF7                     i1l3732:
 11026     1FF7  087D               	movf	i1___xxtofl@arg+3,w
 11027     1FF8  00F3               	movwf	?i1___xxtofl+3
 11028     1FF9  087C               	movf	i1___xxtofl@arg+2,w
 11029     1FFA  00F2               	movwf	?i1___xxtofl+2
 11030     1FFB  087B               	movf	i1___xxtofl@arg+1,w
 11031     1FFC  00F1               	movwf	?i1___xxtofl+1
 11032     1FFD  087A               	movf	i1___xxtofl@arg,w
 11033     1FFE  00F0               	movwf	?i1___xxtofl
 11034     1FFF                     i1l817:
 11035     1FFF  0008               	return
 11036     2000                     __end_ofi1___xxtofl:
 11037                           
 11038                           	psect	text32
 11039     1CB5                     __ptext32:	
 11040 ;; *************** function i1___awdiv *****************
 11041 ;; Defined at:
 11042 ;;		line 5 in file "C:\Program Files\Microchip\xc8\v2.40\pic\sources\c90\common\awdiv.c"
 11043 ;; Parameters:    Size  Location     Type
 11044 ;;  divisor         2    0[COMMON] int 
 11045 ;;  dividend        2    2[COMMON] int 
 11046 ;; Auto vars:     Size  Location     Type
 11047 ;;  quotient        2    7[COMMON] int 
 11048 ;;  sign            1    6[COMMON] unsigned char 
 11049 ;;  counter         1    5[COMMON] unsigned char 
 11050 ;; Return value:  Size  Location     Type
 11051 ;;                  2    0[COMMON] int 
 11052 ;; Registers used:
 11053 ;;		wreg, status,2, status,0
 11054 ;; Tracked objects:
 11055 ;;		On entry : 0/0
 11056 ;;		On exit  : 0/0
 11057 ;;		Unchanged: 0/0
 11058 ;; Data sizes:     COMMON   BANK0   BANK1   BANK3   BANK2
 11059 ;;      Params:         4       0       0       0       0
 11060 ;;      Locals:         4       0       0       0       0
 11061 ;;      Temps:          1       0       0       0       0
 11062 ;;      Totals:         9       0       0       0       0
 11063 ;;Total ram usage:        9 bytes
 11064 ;; Hardware stack levels used: 1
 11065 ;; This function calls:
 11066 ;;		Nothing
 11067 ;; This function is called by:
 11068 ;;		_isr
 11069 ;; This function uses a non-reentrant model
 11070 ;;
 11071                           
 11072     1CB5                     i1___awdiv:	
 11073                           ;psect for function i1___awdiv
 11074                           
 11075     1CB5                     i1l3648:	
 11076                           ;incstack = 0
 11077                           ; Regs used in i1___awdiv: [wreg+status,2+status,0]
 11078                           
 11079     1CB5  01F6               	clrf	i1___awdiv@sign
 11080     1CB6                     i1l3650:
 11081     1CB6  1FF1               	btfss	i1___awdiv@divisor+1,7
 11082     1CB7  2CB9               	goto	u597_21
 11083     1CB8  2CBA               	goto	u597_20
 11084     1CB9                     u597_21:
 11085     1CB9  2CC1               	goto	i1l3656
 11086     1CBA                     u597_20:
 11087     1CBA                     i1l3652:
 11088     1CBA  09F0               	comf	i1___awdiv@divisor,f
 11089     1CBB  09F1               	comf	i1___awdiv@divisor+1,f
 11090     1CBC  0AF0               	incf	i1___awdiv@divisor,f
 11091     1CBD  1903               	skipnz
 11092     1CBE  0AF1               	incf	i1___awdiv@divisor+1,f
 11093     1CBF                     i1l3654:
 11094     1CBF  01F6               	clrf	i1___awdiv@sign
 11095     1CC0  0AF6               	incf	i1___awdiv@sign,f
 11096     1CC1                     i1l3656:
 11097     1CC1  1FF3               	btfss	i1___awdiv@dividend+1,7
 11098     1CC2  2CC4               	goto	u598_21
 11099     1CC3  2CC5               	goto	u598_20
 11100     1CC4                     u598_21:
 11101     1CC4  2CCE               	goto	i1l3662
 11102     1CC5                     u598_20:
 11103     1CC5                     i1l3658:
 11104     1CC5  09F2               	comf	i1___awdiv@dividend,f
 11105     1CC6  09F3               	comf	i1___awdiv@dividend+1,f
 11106     1CC7  0AF2               	incf	i1___awdiv@dividend,f
 11107     1CC8  1903               	skipnz
 11108     1CC9  0AF3               	incf	i1___awdiv@dividend+1,f
 11109     1CCA                     i1l3660:
 11110     1CCA  3001               	movlw	1
 11111     1CCB  00F4               	movwf	??i1___awdiv
 11112     1CCC  0874               	movf	??i1___awdiv,w
 11113     1CCD  06F6               	xorwf	i1___awdiv@sign,f
 11114     1CCE                     i1l3662:
 11115     1CCE  01F7               	clrf	i1___awdiv@quotient
 11116     1CCF  01F8               	clrf	i1___awdiv@quotient+1
 11117     1CD0                     i1l3664:
 11118     1CD0  0870               	movf	i1___awdiv@divisor,w
 11119     1CD1  0471               	iorwf	i1___awdiv@divisor+1,w
 11120     1CD2  1903               	btfsc	3,2
 11121     1CD3  2CD5               	goto	u599_21
 11122     1CD4  2CD6               	goto	u599_20
 11123     1CD5                     u599_21:
 11124     1CD5  2D0D               	goto	i1l3684
 11125     1CD6                     u599_20:
 11126     1CD6                     i1l3666:
 11127     1CD6  01F5               	clrf	i1___awdiv@counter
 11128     1CD7  0AF5               	incf	i1___awdiv@counter,f
 11129     1CD8  2CE4               	goto	i1l3672
 11130     1CD9                     i1l3668:
 11131     1CD9  3001               	movlw	1
 11132     1CDA                     u600_25:
 11133     1CDA  1003               	clrc
 11134     1CDB  0DF0               	rlf	i1___awdiv@divisor,f
 11135     1CDC  0DF1               	rlf	i1___awdiv@divisor+1,f
 11136     1CDD  3EFF               	addlw	-1
 11137     1CDE  1D03               	skipz
 11138     1CDF  2CDA               	goto	u600_25
 11139     1CE0                     i1l3670:
 11140     1CE0  3001               	movlw	1
 11141     1CE1  00F4               	movwf	??i1___awdiv
 11142     1CE2  0874               	movf	??i1___awdiv,w
 11143     1CE3  07F5               	addwf	i1___awdiv@counter,f
 11144     1CE4                     i1l3672:
 11145     1CE4  1FF1               	btfss	i1___awdiv@divisor+1,7
 11146     1CE5  2CE7               	goto	u601_21
 11147     1CE6  2CE8               	goto	u601_20
 11148     1CE7                     u601_21:
 11149     1CE7  2CD9               	goto	i1l3668
 11150     1CE8                     u601_20:
 11151     1CE8                     i1l3674:
 11152     1CE8  3001               	movlw	1
 11153     1CE9                     u602_25:
 11154     1CE9  1003               	clrc
 11155     1CEA  0DF7               	rlf	i1___awdiv@quotient,f
 11156     1CEB  0DF8               	rlf	i1___awdiv@quotient+1,f
 11157     1CEC  3EFF               	addlw	-1
 11158     1CED  1D03               	skipz
 11159     1CEE  2CE9               	goto	u602_25
 11160     1CEF  0871               	movf	i1___awdiv@divisor+1,w
 11161     1CF0  0273               	subwf	i1___awdiv@dividend+1,w
 11162     1CF1  1D03               	skipz
 11163     1CF2  2CF5               	goto	u603_25
 11164     1CF3  0870               	movf	i1___awdiv@divisor,w
 11165     1CF4  0272               	subwf	i1___awdiv@dividend,w
 11166     1CF5                     u603_25:
 11167     1CF5  1C03               	skipc
 11168     1CF6  2CF8               	goto	u603_21
 11169     1CF7  2CF9               	goto	u603_20
 11170     1CF8                     u603_21:
 11171     1CF8  2D00               	goto	i1l3680
 11172     1CF9                     u603_20:
 11173     1CF9                     i1l3676:
 11174     1CF9  0870               	movf	i1___awdiv@divisor,w
 11175     1CFA  02F2               	subwf	i1___awdiv@dividend,f
 11176     1CFB  0871               	movf	i1___awdiv@divisor+1,w
 11177     1CFC  1C03               	skipc
 11178     1CFD  03F3               	decf	i1___awdiv@dividend+1,f
 11179     1CFE  02F3               	subwf	i1___awdiv@dividend+1,f
 11180     1CFF                     i1l3678:
 11181     1CFF  1477               	bsf	i1___awdiv@quotient,0
 11182     1D00                     i1l3680:
 11183     1D00  3001               	movlw	1
 11184     1D01                     u604_25:
 11185     1D01  1003               	clrc
 11186     1D02  0CF1               	rrf	i1___awdiv@divisor+1,f
 11187     1D03  0CF0               	rrf	i1___awdiv@divisor,f
 11188     1D04  3EFF               	addlw	-1
 11189     1D05  1D03               	skipz
 11190     1D06  2D01               	goto	u604_25
 11191     1D07                     i1l3682:
 11192     1D07  3001               	movlw	1
 11193     1D08  02F5               	subwf	i1___awdiv@counter,f
 11194     1D09  1D03               	btfss	3,2
 11195     1D0A  2D0C               	goto	u605_21
 11196     1D0B  2D0D               	goto	u605_20
 11197     1D0C                     u605_21:
 11198     1D0C  2CE8               	goto	i1l3674
 11199     1D0D                     u605_20:
 11200     1D0D                     i1l3684:
 11201     1D0D  0876               	movf	i1___awdiv@sign,w
 11202     1D0E  1903               	btfsc	3,2
 11203     1D0F  2D11               	goto	u606_21
 11204     1D10  2D12               	goto	u606_20
 11205     1D11                     u606_21:
 11206     1D11  2D17               	goto	i1l3688
 11207     1D12                     u606_20:
 11208     1D12                     i1l3686:
 11209     1D12  09F7               	comf	i1___awdiv@quotient,f
 11210     1D13  09F8               	comf	i1___awdiv@quotient+1,f
 11211     1D14  0AF7               	incf	i1___awdiv@quotient,f
 11212     1D15  1903               	skipnz
 11213     1D16  0AF8               	incf	i1___awdiv@quotient+1,f
 11214     1D17                     i1l3688:
 11215     1D17  0878               	movf	i1___awdiv@quotient+1,w
 11216     1D18  00F1               	movwf	?i1___awdiv+1
 11217     1D19  0877               	movf	i1___awdiv@quotient,w
 11218     1D1A  00F0               	movwf	?i1___awdiv
 11219     1D1B                     i1l501:
 11220     1D1B  0008               	return
 11221     1D1C                     __end_ofi1___awdiv:
 11222     007E                     btemp	set	126	;btemp
 11223     007E                     wtemp0	set	126
 11224                           
 11225                           	psect	idloc
 11226                           
 11227                           ;Config register IDLOC0 @ 0x2000
 11228                           ;	unspecified, using default values
 11229     2000                     	org	8192
 11230     2000  3FFF               	dw	16383
 11231                           
 11232                           ;Config register IDLOC1 @ 0x2001
 11233                           ;	unspecified, using default values
 11234     2001                     	org	8193
 11235     2001  3FFF               	dw	16383
 11236                           
 11237                           ;Config register IDLOC2 @ 0x2002
 11238                           ;	unspecified, using default values
 11239     2002                     	org	8194
 11240     2002  3FFF               	dw	16383
 11241                           
 11242                           ;Config register IDLOC3 @ 0x2003
 11243                           ;	unspecified, using default values
 11244     2003                     	org	8195
 11245     2003  3FFF               	dw	16383
 11246                           
 11247                           	psect	config
 11248                           
 11249                           ;Config register CONFIG1 @ 0x2007
 11250                           ;	Oscillator Selection bits
 11251                           ;	FOSC = INTRC_CLKOUT, INTOSC oscillator: CLKOUT function on RA6/OSC2/CLKOUT pin, I/O fu
      +                          nction on RA7/OSC1/CLKIN
 11252                           ;	Watchdog Timer Enable bit
 11253                           ;	WDTE = OFF, WDT disabled and can be enabled by SWDTEN bit of the WDTCON register
 11254                           ;	Power-up Timer Enable bit
 11255                           ;	PWRTE = OFF, PWRT disabled
 11256                           ;	RE3/MCLR pin function select bit
 11257                           ;	MCLRE = OFF, RE3/MCLR pin function is digital input, MCLR internally tied to VDD
 11258                           ;	Code Protection bit
 11259                           ;	CP = OFF, Program memory code protection is disabled
 11260                           ;	Data Code Protection bit
 11261                           ;	CPD = OFF, Data memory code protection is disabled
 11262                           ;	Brown Out Reset Selection bits
 11263                           ;	BOREN = OFF, BOR disabled
 11264                           ;	Internal External Switchover bit
 11265                           ;	IESO = OFF, Internal/External Switchover mode is disabled
 11266                           ;	Fail-Safe Clock Monitor Enabled bit
 11267                           ;	FCMEN = OFF, Fail-Safe Clock Monitor is disabled
 11268                           ;	Low Voltage Programming Enable bit
 11269                           ;	LVP = OFF, RB3 pin has digital I/O, HV on MCLR must be used for programming
 11270                           ;	In-Circuit Debugger Mode bit
 11271                           ;	DEBUG = 0x1, unprogrammed default
 11272     2007                     	org	8199
 11273     2007  20D5               	dw	8405
 11274                           
 11275                           ;Config register CONFIG2 @ 0x2008
 11276                           ;	Brown-out Reset Selection bit
 11277                           ;	BOR4V = BOR40V, Brown-out Reset set to 4.0V
 11278                           ;	Flash Program Memory Self Write Enable bits
 11279                           ;	WRT = OFF, Write protection off
 11280     2008                     	org	8200
 11281     2008  3FFF               	dw	16383

Data Sizes:
    Strings     9
    Constant    160
    Data        0
    BSS         14
    Persistent  0
    Stack       0

Auto Spaces:
    Space          Size  Autos    Used
    COMMON           14     14      14
    BANK0            80     68      74
    BANK1            80     64      64
    BANK3            96     24      32
    BANK2            96      0       0

Pointer List with Targets:

    sprintf@f	PTR const unsigned char  size(1) Largest target is 9
		 -> STR_1(CODE[9]), 

    sprintf@sp	PTR unsigned char  size(1) Largest target is 20
		 -> main@s(BANK3[20]), 

    sprintf@ap	PTR void [1] size(1) Largest target is 2
		 -> ?_sprintf(BANK1[2]), 

    WriteStringToLCD@s	PTR const unsigned char  size(1) Largest target is 20
		 -> main@s(BANK3[20]), 


Critical Paths under _main in COMMON

    None.

Critical Paths under _isr in COMMON

    _isr->i1___xxtofl

Critical Paths under _main in BANK0

    _sprintf->_fround
    _scale->___flmul
    ___awdiv->___awmod
    _fround->___flmul
    ___lwdiv->___lwmod
    ___flmul->___awdiv
    ___fltol->_scale
    ___fladd->_fround
    ___fldiv->___flmul
    _WriteStringToLCD->_WriteDataToLCD
    _WriteDataToLCD->_ToggleEpinOfLCD
    _InitLCD->_WriteCommandToLCD
    _ClearLCDScreen->_WriteCommandToLCD
    _WriteCommandToLCD->_ToggleEpinOfLCD

Critical Paths under _isr in BANK0

    None.

Critical Paths under _main in BANK1

    _main->_sprintf
    _sprintf->___flsub
    ___flsub->___fladd

Critical Paths under _isr in BANK1

    None.

Critical Paths under _main in BANK3

    None.

Critical Paths under _isr in BANK3

    None.

Critical Paths under _main in BANK2

    None.

Critical Paths under _isr in BANK2

    None.

Call Graph Tables:

 ---------------------------------------------------------------------------------
 (Depth) Function   	        Calls       Base Space   Used Autos Params    Refs
 ---------------------------------------------------------------------------------
 (0) _main                                                25    25      0   40296
                                             63 BANK1      1     1      0
                                              0 BANK3     24    24      0
                     _ClearLCDScreen
                            _InitLCD
                   _WriteStringToLCD
                            ___fldiv
                            ___flmul
                              _setup
                            _sprintf
 ---------------------------------------------------------------------------------
 (1) _sprintf                                             42    37      5   33588
                                             28 BANK1     35    30      5
                            ___awdiv
                            ___fladd
                             ___fleq
                             ___flge
                            ___flmul
                            ___flneg
                            ___flsub
                            ___fltol
                            ___lldiv
                            ___llmod
                             ___wmul
                           ___xxtofl
                         __div_to_l_
                        __tdiv_to_l_
                             _fround
                              _scale
 ---------------------------------------------------------------------------------
 (2) _scale                                               19    15      4    7660
                                             48 BANK0     19    15      4
                            ___awdiv
                            ___awmod
                            ___flmul
 ---------------------------------------------------------------------------------
 (3) ___awmod                                              7     3      4    1208
                                              6 BANK0      7     3      4
 ---------------------------------------------------------------------------------
 (3) ___awdiv                                              9     5      4    1464
                                             13 BANK0      9     5      4
                            ___awmod (ARG)
 ---------------------------------------------------------------------------------
 (2) _fround                                              20    16      4    6023
                                             48 BANK0     20    16      4
                            ___flmul
                            ___lwdiv
                            ___lwmod
 ---------------------------------------------------------------------------------
 (3) ___lwmod                                              6     2      4     615
                                              6 BANK0      6     2      4
 ---------------------------------------------------------------------------------
 (3) ___lwdiv                                              8     4      4     618
                                             12 BANK0      8     4      4
                            ___lwmod (ARG)
 ---------------------------------------------------------------------------------
 (3) ___flmul                                             26    18      8    4545
                                             22 BANK0     26    18      8
                          __Umul8_16
                            ___awdiv (ARG)
                            ___awmod (ARG)
                            ___lwdiv (ARG)
                            ___lwmod (ARG)
 ---------------------------------------------------------------------------------
 (4) __Umul8_16                                            9     7      2     799
                                              6 BANK0      9     7      2
 ---------------------------------------------------------------------------------
 (2) __tdiv_to_l_                                         17     9      8     455
                                              6 BANK0     17     9      8
 ---------------------------------------------------------------------------------
 (2) __div_to_l_                                          15     7      8     455
                                              6 BANK0     15     7      8
 ---------------------------------------------------------------------------------
 (2) ___xxtofl                                            14    10      4     448
                                              6 BANK0     14    10      4
 ---------------------------------------------------------------------------------
 (2) ___wmul                                               6     2      4     244
                                              6 BANK0      6     2      4
 ---------------------------------------------------------------------------------
 (2) ___llmod                                             10     2      8     615
                                              6 BANK0     10     2      8
 ---------------------------------------------------------------------------------
 (2) ___lldiv                                             14     6      8     466
                                              6 BANK0     14     6      8
 ---------------------------------------------------------------------------------
 (2) ___fltol                                             10     6      4     607
                                              0 BANK1     10     6      4
                            ___flmul (ARG)
                              _scale (ARG)
 ---------------------------------------------------------------------------------
 (2) ___flsub                                              8     0      8    3547
                                             20 BANK1      8     0      8
                            ___fladd
                           ___xxtofl (ARG)
 ---------------------------------------------------------------------------------
 (3) ___fladd                                             20    12      8    3302
                                              0 BANK1     20    12      8
                             _fround (ARG)
 ---------------------------------------------------------------------------------
 (2) ___flneg                                              4     0      4     121
                                              6 BANK0      4     0      4
 ---------------------------------------------------------------------------------
 (2) ___flge                                              12     4      8     790
                                              6 BANK0     12     4      8
 ---------------------------------------------------------------------------------
 (2) ___fleq                                              12     4      8     394
                                              6 BANK0     12     4      8
 ---------------------------------------------------------------------------------
 (1) _setup                                                1     1      0       0
                                              6 BANK0      1     1      0
 ---------------------------------------------------------------------------------
 (1) ___fldiv                                             26    18      8    1863
                                             48 BANK0     13     5      8
                                              0 BANK1     13    13      0
                            ___flmul (ARG)
 ---------------------------------------------------------------------------------
 (1) _WriteStringToLCD                                     2     2      0     100
                                              8 BANK0      2     2      0
                     _WriteDataToLCD
 ---------------------------------------------------------------------------------
 (2) _WriteDataToLCD                                       1     1      0      22
                                              7 BANK0      1     1      0
                    _ToggleEpinOfLCD
 ---------------------------------------------------------------------------------
 (1) _InitLCD                                              0     0      0      22
                  _WriteCommandToLCD
 ---------------------------------------------------------------------------------
 (1) _ClearLCDScreen                                       2     2      0      22
                                              8 BANK0      2     2      0
                  _WriteCommandToLCD
 ---------------------------------------------------------------------------------
 (2) _WriteCommandToLCD                                    1     1      0      22
                                              7 BANK0      1     1      0
                    _ToggleEpinOfLCD
 ---------------------------------------------------------------------------------
 (3) _ToggleEpinOfLCD                                      1     1      0       0
                                              6 BANK0      1     1      0
 ---------------------------------------------------------------------------------
 Estimated maximum stack depth 4
 ---------------------------------------------------------------------------------
 (Depth) Function   	        Calls       Base Space   Used Autos Params    Refs
 ---------------------------------------------------------------------------------
 (5) _isr                                                  6     6      0     700
                                              0 BANK0      6     6      0
                          i1___awdiv
                         i1___xxtofl
 ---------------------------------------------------------------------------------
 (6) i1___xxtofl                                          14    10      4     348
                                              0 COMMON    14    10      4
 ---------------------------------------------------------------------------------
 (6) i1___awdiv                                            9     5      4     352
                                              0 COMMON     9     5      4
 ---------------------------------------------------------------------------------
 Estimated maximum stack depth 6
 ---------------------------------------------------------------------------------

 Call Graph Graphs:

 _main (ROOT)
   _ClearLCDScreen
     _WriteCommandToLCD
       _ToggleEpinOfLCD
   _InitLCD
     _WriteCommandToLCD
   _WriteStringToLCD
     _WriteDataToLCD
       _ToggleEpinOfLCD
   ___fldiv
     ___flmul (ARG)
       __Umul8_16
       ___awdiv (ARG)
         ___awmod (ARG)
       ___awmod (ARG)
       ___lwdiv (ARG)
         ___lwmod (ARG)
       ___lwmod (ARG)
   ___flmul
   _setup
   _sprintf
     ___awdiv
     ___fladd
       _fround (ARG)
         ___flmul
         ___lwdiv
         ___lwmod
     ___fleq
     ___flge
     ___flmul
     ___flneg
     ___flsub
       ___fladd
       ___xxtofl (ARG)
     ___fltol
       ___flmul (ARG)
       _scale (ARG)
         ___awdiv
         ___awmod
         ___flmul
     ___lldiv
     ___llmod
     ___wmul
     ___xxtofl
     __div_to_l_
     __tdiv_to_l_
     _fround
     _scale

 _isr (ROOT)
   i1___awdiv
   i1___xxtofl

 Address spaces:
Name               Size   Autos  Total    Cost      Usage
BITCOMMON            E      0       0       0        0.0%
EEDATA             100      0       0       0        0.0%
NULL                 0      0       0       0        0.0%
CODE                 0      0       0       0        0.0%
COMMON               E      E       E       1      100.0%
BITSFR0              0      0       0       1        0.0%
SFR0                 0      0       0       1        0.0%
BITSFR1              0      0       0       2        0.0%
SFR1                 0      0       0       2        0.0%
STACK                0      0       0       2        0.0%
ABS                  0      0      B8       3        0.0%
BITBANK0            50      0       0       4        0.0%
BITSFR3              0      0       0       4        0.0%
SFR3                 0      0       0       4        0.0%
BANK0               50     44      4A       5       92.5%
BITSFR2              0      0       0       5        0.0%
SFR2                 0      0       0       5        0.0%
BITBANK1            50      0       0       6        0.0%
BANK1               50     40      40       7       80.0%
BITBANK3            60      0       0       8        0.0%
BANK3               60     18      20       9       33.3%
BITBANK2            60      0       0      10        0.0%
BANK2               60      0       0      11        0.0%
DATA                 0      0      B8      12        0.0%


Microchip Technology PIC Macro Assembler V2.40 build 20220703182018 
Symbol Table                                                                                   Tue Jul 25 12:02:52 2023

             ___fldiv@aexp 00AC               ___fldiv@bexp 00AB                          _i 01AC  
                        pc 0002               ___fldiv@sign 00A4                         l80 1A5B  
                       l74 1A91                         l83 1ACF                         l92 1A7A  
                       l77 1A4F                         l89 1AAC               ___awdiv@sign 0033  
                       fsr 0004        ___wmul@multiplicand 0028        __Umul8_16@word_mpld 002C  
               i1___xxtofl 1F48                        l302 0040                        l181 1B58  
                      l501 1DEC                        l350 1AF6                        l334 0513  
                      l327 04D5                        l344 06E6                        l281 1315  
                      l522 10CB                        l514 1C4F                        l700 14E1  
                      l604 1BF4                        l348 1ADE                        l534 101F  
                      l542 1E77                        l518 1108                        l535 103B  
                      l543 1E90                        l551 089D                        l519 106F  
                      l536 1050                        l384 1D83                        l288 0FFF  
                      l721 0825                        l561 089D                        l529 10FB  
                      l706 1503                        l731 15E6                        l539 1E0B  
                      l547 1A68                        l733 17FF                        l717 1563  
                      l709 1541                        l821 0905                        l565 1F47  
                      l718 156D                        l558 0888                        l566 1EBB  
                      l654 1B9E                        l815 08C2                        l576 1F3A  
                      l664 07F6                        l753 17DB                        l681 13CD  
                      l817 0957                        l569 1F0A                        l755 17ED  
                      l747 175B                        l675 1371                        l771 0C9C  
                      l828 0921                        l829 092D                        l790 1B0D  
                      l679 13F4                        l783 0C90                        l696 14BD  
                      l688 156D                        l792 1B1F                        l777 0C0C  
                      _RD3 0043                        _RD4 0044                        _RC6 003E  
                      _RD5 0045                        _RC7 003F                        _RD6 0046  
                      _RD7 0047                        _isr 1C50                        _val 0064  
                      fsr0 0004                        indf 0000               ___awmod@sign 002C  
             ___flmul@aexp 0048               ___flmul@bexp 0049               ___flmul@sign 0043  
             ___flmul@temp 004E               ___flmul@prod 004A               ___fltol@exp1 00A9  
                     l3100 1D6C                       l3020 105C                       l3012 1F2F  
                     l3004 1F16                       l3110 1017                       l3102 1D75  
                     l3030 1070                       l3014 1F3F                       l3006 1F28  
                     l3112 1033                       l3120 1DED                       l4000 1559  
                     l3104 1D7B                       l3200 1BEC                       l3040 109B  
                     l3032 1078                       l3024 1065                       l3114 104D  
                     l3130 1E4F                       l3122 1E03                       l4002 155D  
                     l4010 0826                       l3210 08A1                       l3050 10CF  
                     l3042 10AD                       l3034 1089                       l3018 1051  
                     l3300 1B34                       l3116 104F                       l3108 1001  
                     l3132 1E53                       l3124 1E1F                       l3140 1A5C  
                     l4004 155F                       l4020 084E                       l4012 0831  
                     l3212 08A6                       l3044 10BB                       l3036 108B  
                     l2420 1B16                       l2412 1AFA                       l2500 1C2E  
                     l4100 01D4                       l2430 1A86                       l3310 1B3C  
                     l3302 1B35                       l3134 1E8D                       l3126 1E27  
                     l3142 1A66                       l4006 1568                       l4022 0856  
                     l3070 1AD0                       l3230 08EE                       l3222 08D3  
                     l3214 08AA                       l3046 10BC                       l3038 1092  
                     l2422 1B1B                       l2414 1AFC                       l2510 1C4B  
                     l2502 1C34                       l4110 0235                       l4102 01FB  
                     l3320 1B47                       l3312 1B3D                       l3304 1B36  
                     l3136 1E8F                       l3128 1E2B                       l3144 1A68  
                     l4008 156C                       l4040 087D                       l4032 0864  
                     l4024 0858                       l4016 083A                       l3080 1AF2  
                     l3072 1AD4                       l3240 0925                       l3232 08FC  
                     l3224 08D6                       l3216 08BA                       l3064 10F0  
                     l3056 10D7                       l3048 10C5                       l2416 1B03  
                     l2520 1B66                       l2440 1D92                       l2432 1D84  
                     l2504 1C3B                       l4200 06AF                       l4120 02C6  
                     l4112 026A                       l4104 0204                       l2426 1A7B  
                     l3330 1B56                       l3322 1B4E                       l3314 1B3E  
                     l3306 1B3A                       l4042 088D                       l4026 085C  
                     l4034 0876                       l4018 084D                       l3090 1D3E  
                     l3074 1AD8                       l3250 094F                       l3242 092F  
                     l3234 090C                       l3226 08E3                       l3218 08CA  
                     l3066 1100                       l3058 10E9                       l2418 1B07  
                     l2530 1B8C                       l2522 1B6D                       l2514 1B59  
                     l2450 1DA7                       l2442 1D96                       l2434 1D87  
                     l2506 1C41                       l4202 06B3                       l4122 02EF  
                     l4114 0277                       l4106 022D                       l2428 1A7E  
                     l3260 1AB5                       l4300 16BE                       l3332 1B57  
                     l3324 1B51                       l3316 1B44                       l3308 1B3B  
                     l4044 0892                       l3092 1D42                       l3084 1D1C  
                     l3076 1AE5                       l3244 0945                       l3236 0917  
                     l3228 08EA                       l2532 1B8D                       l2524 1B71  
                     l2516 1B5D                       l2540 07BB                       l2460 1DCA  
                     l2452 1DAA                       l2444 1D9B                       l2436 1D8B  
                     l2508 1C46                       l4204 06B9                       l4140 03D8  
                     l4132 0369                       l4124 02F8                       l4116 02A0  
                     l4108 0235                       l4060 003D                       l4212 06D2  
                     l4052 002A                       l3262 1AB7                       l3254 1AAD  
                     l3270 1A95                       l4310 16FD                       l4302 16BF  
                     l4230 1583                       l3326 1B54                       l3318 1B46  
                     l4046 0802                       l3094 1D4B                       l3086 1D2E  
                     l3190 1BB9                       l3078 1AEC                       l3246 094A  
                     l3238 091B                       l2534 1B94                       l2526 1B75  
                     l2518 1B63                       l2550 07D5                       l2542 07C3  
                     l2470 1DE3                       l2462 1DD0                       l2454 1DB1  
                     l2446 1D9F                       l2438 1D90                       l4150 0411  
                     l4126 0300                       l4118 02B9                       l4134 0372  
                     l4070 006C                       l4206 06C0                       l4214 06E2  
                     l4054 002D                       l3280 1A6F                       l3264 1ABD  
                     l3256 1AB1                       l3272 1A96                       l4320 171F  
                     l4312 16FF                       l4304 16E7                       l4240 159E  
                     l4232 1586                       l4224 156E                       l3328 1B55  
                     l4048 0806                       l3096 1D5D                       l3088 1D31  
                     l3192 1BBD                       l3184 1B9F                       l3248 094E  
                     l2800 09BF                       l2528 1B86                       l2536 1B9A  
                     l2552 07DF                       l2544 07C6                       l2472 1DE8  
                     l2464 1DD1                       l2456 1DB5                       l2448 1DA1  
                     l2480 1BFC                       l4208 06CC                       l4160 048C  
                     l4152 041B                       l4136 038B                       l4128 031E  
                     l4080 00DE                       l4072 007A                       l4064 0042  
                     l4056 0033                       l3266 1AC3                       l3258 1AB2  
                     l3274 1A9E                       l4330 1756                       l4314 1708  
                     l4322 1727                       l4306 16EF                       l4250 15BF  
                     l4234 158D                       l4242 15A0                       l4226 1575  
                     l3290 1B2B                       l3282 1B20                       l3098 1D6B  
                     l3194 1BCF                       l3186 1BA9                       l2810 0A3B  
                     l2802 09CD                       l2554 07E5                       l2546 07CD  
                     l2466 1DD8                       l2458 1DB9                       l2490 1C12  
                     l2482 1C01                       l4170 04EE                       l4162 04CB  
                     l4154 0427                       l4146 03DA                       l4138 03D6  
                     l4090 013D                       l4082 00E2                       l4074 007E  
                     l4066 005C                       l4058 0038                       l2900 1A4A  
                     l3268 1AC9                       l3276 1AA4                       l4340 177B  
                     l4324 172D                       l4316 170E                       l4308 16F5  
                     l4260 15DA                       l4252 15C2                       l4244 15AA  
                     l4236 1592                       l4228 157D                       l3292 1B2C  
                     l3284 1B24                       l3196 1BDD                       l3188 1BAC  
                     l2820 0AA7                       l2812 0A57                       l2804 09DA  
                     l2556 07EC                       l2548 07D1                       l2468 1DDE  
                     l2492 1C15                       l2484 1C03                       l2476 1BF5  
                     l4180 0521                       l4172 04FB                       l4164 04DD  
                     l4156 042C                       l4092 0160                       l4084 0109  
                     l4076 00A5                       l4068 0068                       l3278 1A69  
                     l2902 1A53                       l4350 17CA                       l4342 1794  
                     l4334 1760                       l4326 1730                       l4318 1711  
                     l4254 15C9                       l4262 15DC                       l4246 15B1  
                     l4238 159C                       l3294 1B2D                       l3286 1B25  
                     l3198 1BE6                       l2830 0B31                       l2822 0AB5  
                     l2814 0A73                       l2806 09F5                       l2558 07F2  
                     l2910 1112                       l2494 1C1C                       l2486 1C07  
                     l2478 1BF8                       l4190 05FE                       l4182 0526  
                     l4174 050A                       l4166 04E4                       l4158 0431  
                     l4094 0164                       l4086 0114                       l4078 00DA  
                     l4430 0054                       l2904 1A54                       l4360 17E7  
                     l4352 17CE                       l4336 1767                       l4344 179C  
                     l4328 1734                       l4280 163B                       l4264 15EE  
                     l4272 160B                       l4256 15CE                       l4248 15B9  
                     l3296 1B2E                       l3288 1B29                       l2840 0BC1  
                     l2832 0B3F                       l2824 0AD2                       l2816 0A7C  
                     l2808 0A11                       l2760 0961                       l2496 1C20  
                     l2488 1C0C                       l4192 063D                       l4184 052A  
                     l4176 050F                       l4168 04E8                       l4096 016A  
                     l4088 011A                       l2906 1A56                       l4354 17D8  
                     l4346 17AB                       l4338 1777                       l4290 166E  
                     l4282 1653                       l4274 1612                       l4266 15FA  
                     l4258 15D8                       l3298 1B31                       l2850 0BE6  
                     l2842 0BCF                       l2834 0B6A                       l2826 0AE9  
                     l2818 0A8A                       l2770 0978                       l2762 0965  
                     l2922 12D2                       l2498 1C24                       l2930 0CA6  
                     l4194 0647                       l4186 0548                       l4178 051C  
                     l4098 0189                       l4370 06EF                       l4356 17DF  
                     l4348 17BB                       l4292 1686                       l4284 165D  
                     l4268 1602                       l3900 13D1                       l3820 131F  
                     l2860 0C09                       l2844 0BD8                       l2852 0BEC  
                     l2836 0B90                       l2828 0B06                       l2780 098F  
                     l2772 097A                       l2764 0966                       l2756 0958  
                     l2916 1221                       l2908 110C                       l2940 0D9E  
                     l2932 0CAD                       l4188 05A3                       l4196 06A2  
                     l4380 0707                       l4372 06F3                       l4358 17E3  
                     l4294 168C                       l4286 1667                       l4278 161D  
                     l3910 13E8                       l3902 13D8                       l3830 1336  
                     l3822 1323                       l2870 0C28                       l2854 0BF0  
                     l2846 0BDC                       l2838 0BB8                       l2790 09A4  
                     l2782 0990                       l2774 0982                       l2766 096B  
                     l2758 095D                       l2918 1227                       l2950 0E5A  
                     l2926 0CA0                       l4198 06AA                       l4390 071F  
                     l4374 06F7                       l4366 06E7                       l4296 168F  
                     l4288 1669                       l3920 1406                       l3904 13DA  
                     l3912 13EC                       l3840 134A                       l3832 1337  
                     l3824 1324                       l3816 1316                       l2880 0C6E  
                     l2872 0C41                       l2864 0C11                       l2856 0BF1  
                     l2848 0BDD                       l2792 09AC                       l2784 0995  
                     l2776 0987                       l2768 0970                       l2944 0E26  
                     l2928 0CA4                       l4392 0727                       l4376 06FC  
                     l4368 06EC                       l4298 169D                       l3930 142E  
                     l3922 141D                       l3914 13F8                       l3906 13DE  
                     l3850 1359                       l3842 134B                       l3826 1329  
                     l3834 1339                       l3818 131B                       l2890 0C8B  
                     l2882 0C78                       l2866 0C16                       l2874 0C47  
                     l2858 0BF5                       l2794 09B1                       l2786 099A  
                     l2778 098B                       l2962 0FD3                       l2938 0D97  
                     l4386 070B                       l4394 0734                       l4378 0701  
                     l3940 1457                       l3932 1432                       l3924 1421  
                     l3916 13FD                       l3908 13DF                       l3860 1377  
                     l3852 135E                       l3844 134F                       l3836 1341  
                     l3828 132E                       l2980 1EC2                       l2972 1EAB  
                     l2892 0C94                       l2884 0C7A                       l2876 0C54  
                     l2868 0C24                       l2796 09B6                       l2788 09A2  
                     l2956 0F44                       l2948 0E53                       l4396 078A  
                     l4388 071E                       l3950 14C5                       l3942 1495  
                     l3934 1433                       l3926 1425                       l3870 1385  
                     l3862 137B                       l3854 1366                       l3846 1353  
                     l3838 1344                       l2990 1EF1                       l2982 1ED1  
                     l2966 1E91                       l2886 0C86                       l2878 0C5F  
                     l2958 0F4B                       l4398 07AC                       l2896 1A47  
                     l3960 14E0                       l3952 14CA                       l3944 149B  
                     l3936 143C                       l3928 142C                       l3880 138F  
                     l3872 1387                       l3864 137F                       l3856 1367  
                     l3848 1354                       l2992 1EFB                       l2984 1ED3  
                     l2968 1EA2                       l2888 0C8A                       l2898 1A48  
                     l3962 14E5                       l3970 14F1                       l3946 14A0  
                     l3938 1441                       l3890 1399                       l3882 1391  
                     l3874 1389                       l3866 1381                       l3858 1369  
                     l2994 1EFC                       l2986 1EDA                       l2978 1EBC  
                     l3964 14E8                       l3956 14D3                       l3948 14AF  
                     l3972 14F5                       l3892 139B                       l3884 1393  
                     l3876 138B                       l3868 1383                       l2996 1F04  
                     l2988 1EE3                       l3990 153D                       l3982 1508  
                     l3974 14F6                       l3966 14EA                       l3958 14DC  
                     l3886 1395                       l3878 138D                       l3894 139D  
                     l2998 1F0E                       l3992 1546                       l3984 150D  
                     l3976 14FA                       l3968 14EF                       l3896 139E  
                     l3888 1397                       l3994 154B                       l3986 151B  
                     l3978 1500                       l3898 13B5                       l3996 1553  
                     l3988 151F                       ?_isr 0070                       l3998 1558  
                     STR_1 18A6                       u4000 0965                       u4001 0964  
                     u3210 1B1B                       u4010 096B                       u3211 1B1A  
                     u4011 096A                       u4020 0970                       u3300 1DDE  
                     u3220 1D8B                       u3205 1B0E                       u4101 0A49  
                     u4021 096F                       u3301 1DDD                       u3221 1D8A  
                     u4102 0A50                       u4030 098F                       u3310 1DE3  
                     u3230 1D96                       u4111 0A65                       u4103 0A57  
                     u4031 098E                       u3311 1DE2                       u3231 1D95  
                     u5000 1033                       u4112 0A6C                       u4040 0995  
                     u3240 1DA7                       u3400 1C46                       u3320 1BFC  
                     u5001 1032                       u4201 0B82                       u4113 0A73  
                     u4041 0994                       u3241 1DA6                       u3401 1C45  
                     u3321 1BFB                       u5010 104D                       u4210 0B9E  
                     u4202 0B89                       u4050 099A                       u3410 1B63  
                     u3330 1C07                       u5011 104C                       u4203 0B90  
                     u4131 0A99                       u4051 0999                       u3411 1B62  
                     u3331 1C06                       u5020 1E03                       u4300 0C10  
                     u4132 0AA0                       u4060 09B1                       u3500 07D5  
                     u3260 1DB9                       u3340 1C12                       u5021 1E02  
                     u4301 0C0F                       u4221 0BAA                       u4141 0AC4  
                     u4133 0AA7                       u4125 0A75                       u4061 09B0  
                     u3501 07D4                       u3261 1DB8                       u3341 1C11  
                     u5030 1E1F                       u3190 1B07                       u4310 0C16  
                     u4222 0BB1                       u4142 0ACB                       u4070 09B6  
                     u3430 1B75                       u3510 07DF                       u5015 1049  
                     u5031 1E1E                       u3191 1B06                       u4311 0C15  
                     u4223 0BB8                       u4215 0B99                       u4143 0AD2  
                     u4071 09B5                       u3431 1B74                       u3511 07DE  
                     u3255 1DAB                       u5040 1E2B                       u5200 1BA9  
                     u4320 0C28                       u3280 1DCA                       u3360 1C24  
                     u5041 1E2A                       u5201 1BA8                       u4321 0C27  
                     u4161 0AF8                       u4081 0A03                       u3425 1B67  
                     u3281 1DC9                       u3361 1C23                       u4330 0C37  
                     u4250 0BDC                       u4162 0AFF                       u4082 0A0A  
                     u3450 1B86                       u3530 07F2                       u4410 1227  
                     u3370 1C2E                       u5051 1E3A                       u4251 0BDB  
                     u4235 0BBA                       u4171 0B23                       u4163 0B06  
                     u4155 0AD4                       u4091 0A1F                       u4083 0A11  
                     u3451 1B85                       u3531 07F1                       u3515 07DB  
                     u4411 1226                       u3275 1DBA                       u3371 1C2D  
                     u3355 1C16                       u5060 1E53                       u5052 1E3B  
                     u5220 1BBD                       u5300 08E9                       u4340 0C54  
                     u4172 0B2A                       u4092 0A26                       u4500 0D9E  
                     u5061 1E52                       u5053 1E40                       u5221 1BBC  
                     u5301 08E8                       u4341 0C53                       u4245 0BD1  
                     u4181 0B4E                       u4173 0B31                       u4093 0A2D  
                     u3445 1B76                       u3525 07E6                       u4405 11E0  
                     u3285 1DC6                       u4501 0D9D                       u5054 1E41  
                     u5230 1BCF                       u4350 0C6E                       u4270 0BF0  
                     u4190 0B76                       u4182 0B55                       u3470 1B9A  
                     u3390 1C41                       u5071 1E62                       u5055 1E46  
                     u5231 1BCE                       u5215 1BAE                       u4351 0C6D  
                     u4335 0C32                       u4271 0BEF                       u4183 0B5C  
                     u3471 1B99                       u3455 1B82                       u3295 1DD2  
                     u3391 1C40                       u3375 1C2A                       u5400 1AAC  
                     u5080 1E8D                       u5072 1E63                       u5056 1E47  
                     u5320 090B                       u4360 0C8A                       u4280 0BF5  
                     u3480 07C3                       u7000 04DC                       u5401 1AAB  
                     u5081 1E8C                       u5073 1E68                       u5321 090A  
                     u4361 0C89                       u4345 0C50                       u4281 0BF4  
                     u4265 0BDF                       u3465 1B8E                       u3481 07C2  
                     u4425 1244                       u3385 1C35                       u7001 04DB  
                     u5074 1E69                       u5090 1A66                       u5250 1BEC  
                     u4290 0C09                       u4370 1112                       u4450 0CA4  
                     u7010 04FB                       u5075 1E6E                       u5091 1A65  
                     u5251 1BEB                       u5235 1BCB                       u5315 08FD  
                     u4355 0C6A                       u4291 0C08                       u4195 0B71  
                     u4435 1291                       u4371 1111                       u4515 0DB1  
                     u4451 0CA3                       u7011 04FA                       u7100 1583  
                     u5076 1E6F                       u6300 134A                       u5340 091B  
                     u5260 08A6                       u4620 1EA2                       u4540 0E5A  
                     u4460 0CAD                       u7020 050A                       u7101 1582  
                     u5085 1E89                       u6301 1349                       u5245 1BDE  
                     u5341 091A                       u5261 08A5                       u4621 1EA1  
                     u4445 12DD                       u4605 0F9A                       u4541 0E59  
                     u4525 0DED                       u4461 0CAC                       u7021 0509  
                     u7110 158D                       u6310 1353                       u5350 0921  
                     u5270 08AA                       u4710 1F27                       u4630 1EBA  
                     u7030 0521                       u7111 158C                       u6311 1352  
                     u5351 0920                       u5335 0910                       u5271 08A9  
                     u4711 1F26                       u4631 1EB9                       u3495 07C7  
                     u4615 0FD6                       u4535 0E29                       u7031 0520  
                     u7015 04F7                       u7120 1592                       u6400 13DE  
                     u6320 1359                       u5360 0925                       u5280 08CA  
                     u4800 10CB                       u4720 1F2E                       u7121 1591  
                     u6401 13DD                       u6321 1358                       u5361 0924  
                     u5281 08C9                       u4801 10CA                       u4721 1F2D  
                     u4705 1F17                       u4385 112F                       u7025 0506  
                     u7210 168C                       u7130 15BF                       u6330 135E  
                     u5370 093A                       u4810 10CF                       u4650 1EF1  
                     u7211 168B                       u7131 15BE                       u6331 135D  
                     u4811 10CE                       u4651 1EF0                       u4395 118B  
                     u4555 0E7C                       u4475 0CCF                       u7300 172D  
                     u7140 15C9                       u6500 1457                       u6420 13F4  
                     u6340 1377                       u5380 094A                       u4820 10D6  
                     u4740 1F3F                       u4580 0F4B                       u7060 06A9  
                     u7301 172C                       u7205 167F                       u7141 15C8  
                     u6501 1456                       u6421 13F3                       u6341 1376  
                     u5381 0949                       u4821 10D5                       u4741 1F3E  
                     u4645 1EDC                       u4581 0F4A                       u4565 0EB8  
                     u4485 0D0B                       u7061 06A8                       u7045 05A6  
                     u7310 1734                       u7230 16BE                       u7150 15CE  
                     u6430 13F8                       u6350 137B                       u6270 1323  
                     u4910 1AF2                       u5390 094E                       u4750 105C  
                     u4670 1F0A                       u7070 06BF                       u7311 1733  
                     u7231 16BD                       u7151 15CD                       u6511 146E  
                     u6503 1453                       u6431 13F7                       u6415 13E1  
                     u6351 137A                       u6271 1322                       u4911 1AF1  
                     u5391 094D                       u5375 0935                       u5295 08DB  
                     u4751 105B                       u4735 1F31                       u4671 1F09  
                     u4655 1EED                       u4575 0F03                       u4495 0D56  
                     u7071 06BE                       u7055 064A                       u7320 1756  
                     u7240 16E3                       u7160 15EE                       u6600 14F5  
                     u6520 1482                       u6512 146F                       u6440 13FD  
                     u6360 13B5                       u6280 1329                       u4920 1D2E  
                     u4840 10E8                       u4760 106E                       u4680 1F0E  
                     u7080 06CC                       u7400 0707                       u7321 1755  
                     u7225 1692                       u7161 15ED                       u6601 14F4  
                     u6521 1483                       u6513 1474                       u6441 13FC  
                     u6361 13B4                       u6281 1328                       u4921 1D2D  
                     u4905 1AE6                       u4841 10E7                       u4761 106D  
                     u4681 1F0D                       u4665 1EFD                       u7081 06CB  
                     u7401 0706                       u7330 175F                       u7250 16F5  
                     u7170 1612                       u6610 14FA                       u6530 14A0  
                     u6522 1488                       u6514 1475                       u6370 13C0  
                     u6290 132E                       u4850 10EF                       u4690 1F15  
                     u7090 06E2                       u7410 0734                       u7331 175E  
                     u7251 16F4                       u7235 16BA                       u7171 1611  
                     u6611 14F9                       u6531 149F                       u6523 1489  
                     u6515 147A                       u6451 140F                       u6371 13BE  
                     u6291 132D                       u4851 10EE                       u4835 10D8  
                     u4691 1F14                       u4595 0F5E                       u7091 06E1  
                     u7411 0733                       u7340 1767                       u7260 16FD  
                     u7180 166E                       u6700 1558                       u6620 1500  
                     u6540 14C5                       u6516 147B                       u6460 1421  
                     u6452 1416                       u6380 13C1                       u4940 1D42  
                     u4780 10AD                       u7341 1766                       u7261 16FC  
                     u7245 16CC                       u7181 166D                       u6701 1557  
                     u6621 14FF                       u6541 14C4                       u6461 1420  
                     u6453 141D                       u6365 13B1                       u4941 1D41  
                     u4781 10AC                       u7350 177B                       u7246 16CF  
                     u6710 155D                       u6630 1507                       u6550 14CA  
                     u6470 1425                       u6390 13D1                       u4870 1100  
                     u7351 177A                       u7247 16D6                       u6711 155C  
                     u6631 1506                       u6551 14C9                       u6471 1424  
                     u6391 13D0                       u4935 1D33                       u4871 10FF  
                     u4775 1094                       u7415 0730                       u7360 178A  
                     u7280 170E                       u7248 16D9                       u6720 156C  
                     u6640 150D                       u6480 1432                       u4960 1D5D  
                     u4880 1AD8                       u7281 170D                       u7249 16E0  
                     u6721 156B                       u6641 150C                       u6481 1431  
                     u4961 1D5C                       u4881 1AD7                       u4865 10F2  
                     u4785 10A9                       u7370 17AB                       u6650 151F  
                     u6570 14E0                       u6810 088D                       u6730 0831  
                     u7371 17AA                       u7275 1701                       u7195 1672  
                     u7427 1B4B                       u6651 151E                       u6571 14DF  
                     u6811 088C                       u6731 0830                       u4955 1D44  
                     u4795 10BE                       u7380 17CA                       u6660 152E  
                     u6580 14E5                       u6820 0892                       u6740 0848  
                     u4980 1D7B                       u6900 0277                       u7437 1A75  
                     u7381 17C9                       u7365 1785                       u6581 14E4  
                     u6565 14D5                       u6821 0891                       u6805 087F  
                     u4981 1D7A                       u4965 1D59                       u6901 0276  
                     u7390 17E3                       u4990 1017                       u6670 153D  
                     u6590 14EF                       u6750 085C                       u6910 02A0  
                     u6830 0033                       u7447 1A82                       u7391 17E2  
                     u7375 17A7                       u7295 1714                       u4991 1016  
                     u6671 153C                       u6591 14EE                       u6495 1435  
                     u6751 085B                       u4975 1D6D                       u4895 1ADF  
                     u6911 029F                       u6831 0032                       u6680 1546  
                     u6760 0863                       u6920 02B9                       u6840 0068  
                     u7457 1A8D                       u7385 17C6                       u6681 1545  
                     u6665 1529                       u6761 0862                       u6745 0843  
                     u6921 02B8                       u6905 0273                       u6841 0067  
                     u6690 154B                       u6930 02C6                       u6850 00A5  
                     u6691 154A                       u6931 02C5                       u6851 00A4  
                     u6780 0875                       u6940 02EF                       u6860 0109  
                     u6781 0874                       u6941 02EE                       u6861 0108  
                     u6790 087C                       u6870 0164                       u6791 087B  
                     u6775 0865                       u6935 02C2                       u6871 0163  
                     u6960 0410                       u6880 01FB                       u6961 040F  
                     u6881 01FA                       u6970 041B                       u6890 022D  
                     u6971 041A                       u6955 03DD                       u6891 022C  
                     u6980 0427                       u6981 0426                       u6965 040C  
                     u6995 0434                       _WPUB 0095                       _main 06E7  
                     btemp 007E                       start 000E            ___fldiv@new_exp 00A5  
             _sprintf$1079 00C6            __end_of_InitLCD 1AD0                      ??_isr 0020  
            ___fltol@sign1 00A8            __end_of___fladd 156E                      ?_main 0070  
           i1___awdiv@sign 0076            __end_of___fldiv 1800            __end_of___awdiv 1DED  
          __end_of___flneg 1A69            __end_of___awmod 1C50            __end_of___flmul 0C9D  
          __end_of___flsub 0826            __end_of___fltol 089E                      _CMCON 01AE  
                    _ANSEL 0188            __end_of___lldiv 1D84            ___awdiv@divisor 002D  
          __end_of___llmod 1BF5            __end_of___lwdiv 1B9F                      i1l501 1D1B  
                    i1l165 1CAE            __end_of___lwmod 07F7                      i1l821 1FAD  
                    i1l815 1F6A                      i1l817 1FFF                      i1l828 1FC9  
                    i1l829 1FD5            ___awdiv@counter 0032                      _PORTC 0007  
                    _PORTD 0008                      _PORTE 0009                      _TRISA 0085  
                    _TRISB 0086                      _TRISC 0087                      _TRISD 0088  
                    _TRISE 0089            __end_of_dpowers 18A6                      _scale 0C9D  
                    _setup 1B20                      main@s 0190                      pclath 000A  
             main@varvolt2 01A4                      status 0003                      wtemp0 007E  
          __end_of_sprintf 06E7            __end_ofmain@msg 187E            _ToggleEpinOfLCD 1A7B  
          __initialization 0011               __end_of_main 07BB                     ??_main 00DF  
              ?i1___xxtofl 0070           ??_ClearLCDScreen 0028           ___llmod@dividend 002A  
                   ?_scale 0050                     _ADRESH 001E           ___awdiv@dividend 002F  
                   ?_setup 0070                     _ANSELH 0189                     i1l3700 1F72  
                   i1l3710 1F92                     i1l3720 1FC3                     i1l3712 1F96  
                   i1l3704 1F7B                     i1l3650 1CB6                     i1l3730 1FF6  
                   i1l3722 1FCD                     i1l3714 1FA4                     i1l3706 1F7E  
                   i1l3660 1CCA                     i1l3652 1CBA                     i1l3732 1FF7  
                   i1l3724 1FD7                     i1l3716 1FB4                     i1l3708 1F8B  
                   i1l3740 1C5D                     i1l3670 1CE0                     i1l3662 1CCE  
                   i1l3654 1CBF                     i1l3726 1FED                     i1l3718 1FBF  
                   i1l3750 1CAB                     i1l3742 1C74                     i1l3680 1D00  
                   i1l3672 1CE4                     i1l3664 1CD0                     i1l3656 1CC1  
                   i1l3648 1CB5                     i1l3728 1FF2                     i1l3744 1C7D  
                   i1l3736 1C50                     i1l3682 1D07                     i1l3674 1CE8  
                   i1l3666 1CD6                     i1l3658 1CC5                     i1l3746 1C9B  
                   i1l3738 1C54                     i1l3676 1CF9                     i1l3668 1CD9  
                   i1l3684 1D0D                     i1l3692 1F49                     i1l3748 1CA4  
                   i1l3686 1D12                     i1l3678 1CFF                     i1l3694 1F4E  
                   i1l3688 1D17                     i1l3696 1F52                     i1l3698 1F62  
                   u600_25 1CDA                     u601_20 1CE8                     u601_21 1CE7  
                   u602_25 1CE9                     u610_25 1F83                     u603_20 1CF9  
                   u611_20 1F91                     u603_21 1CF8                     u611_21 1F90  
                   u603_25 1CF5                     u620_20 1FF6                     u620_21 1FF5  
                   u604_25 1D01                     u612_25 1FA5                     u605_20 1D0D  
                   u613_20 1FB3                     u621_20 1C54                     u605_21 1D0C  
                   u613_21 1FB2                     u621_21 1C53                     u606_20 1D12  
                   u622_20 1C5D                     u606_21 1D11                     u622_21 1C5C  
                   u614_25 1FB8                     u615_20 1FC3                     u607_20 1F4E  
                   u623_20 1C7D                     u615_21 1FC2                     u607_21 1F4D  
                   u623_21 1C7C                     u616_20 1FC9                     u608_20 1F52  
                   u624_20 1CA4                     u616_21 1FC8                     u608_21 1F51  
                   u624_21 1CA3                     u617_20 1FCD                     u609_20 1F72  
                   u617_21 1FCC                     u609_21 1F71                     u618_20 1FE2  
                   u618_25 1FDD                     u619_20 1FF2                     u619_21 1FF1  
                   u597_20 1CBA                     u597_21 1CB9                     u598_20 1CC5  
                   u598_21 1CC4                     u599_20 1CD6                     u599_21 1CD5  
                   _TRISC6 043E                     _TRISC7 043F           __end_of___xxtofl 0958  
                ??_InitLCD 0028           __end_of__powers_ 183A                     ___flge 1DED  
                   ___fleq 1001                  ??___fladd 00A8                     ___wmul 1AD0  
                ??___fldiv 0058                  ??___awdiv 0031                  ??___flneg 002A  
                ??___awmod 002A                  ??___flmul 003E                  ??___flsub 0064  
                ??___fltol 00A4                  ??___lldiv 002E                  ??___llmod 002E  
                ??___lwdiv 0030                  ??___lwmod 002A                     _fround 1109  
         ___awdiv@quotient 0034            ___awmod@divisor 0026          WriteStringToLCD@s 0029  
          ___awmod@counter 002B          __end_ofi1___awdiv 1D1C          ?_WriteStringToLCD 0070  
                   saved_w 007E         ??_WriteStringToLCD 0028                  ??_sprintf 00C1  
  __end_of_ToggleEpinOfLCD 1A92                 ___flge@ff1 0026                 ___flge@ff2 002A  
             ___xxtofl@arg 0030               ___xxtofl@exp 002F               ___xxtofl@val 0026  
               ___fleq@ff1 0026                 ___fleq@ff2 002A    __end_of__initialization 0023  
               ___flneg@f1 0026                 ___fltol@f1 00A0             __pcstackCOMMON 0070  
            __end_of_scale 1000              __end_of_setup 1B59                 __div_to_l_ 1051  
           _OPTION_REGbits 0081   WriteCommandToLCD@Command 0027            __div_to_l_@exp1 0034  
          __div_to_l_@cntr 0033                    ??_scale 0054            __div_to_l_@quot 002F  
                  ??_setup 0026                 __pbssBANK0 0064                 __pbssBANK3 01A8  
           _WriteDataToLCD 1A50             i1___xxtofl@arg 007A             i1___xxtofl@exp 0079  
           i1___xxtofl@val 0070              __div_to_l_@f1 0026              __div_to_l_@f2 002A  
        __end_of__Umul8_16 1B20                 __pmaintext 06E7                    ?___flge 0026  
                  ?___fleq 0026      WriteDataToLCD@LCDChar 0027                    ?___wmul 0026  
               __pintentry 0004                    ?_fround 0050         i1___awdiv@dividend 0072  
                ?___xxtofl 0026     __end_of_WriteDataToLCD 1A5C                 __stringtab 1800  
         ?_ToggleEpinOfLCD 0070                    _InitLCD 1AAD          __end_of__npowers_ 186E  
               _scale$1078 005E         i1___awdiv@quotient 0077                    ___fladd 1316  
                  ___fldiv 156E                    ___awdiv 1D84                    ___flneg 1A5C  
                  ___awmod 1BF5                    ___flmul 0958                    ___flsub 0802  
                  ___fltol 0826                    ___lldiv 1D1C                    ___llmod 1B9F  
                  ___lwdiv 1B59                    ___lwmod 07BB               ??i1___xxtofl 0074  
                  __ptext1 0027                    __ptext2 0C9D                    __ptext3 1BF5  
                  __ptext4 1D84                    __ptext5 1109                    __ptext6 07BB  
                  __ptext7 1B59                    __ptext8 0958                    __ptext9 1AF7  
              ?__div_to_l_ 0026                    _dpowers 187E                 ??___xxtofl 002A  
         ___awmod@dividend 0028                    _valpot0 0068                    _valpot1 0066  
                  _varvolt 01A8                    _sprintf 0027                    main@msg 186E  
     end_of_initialization 0023            ?_WriteDataToLCD 0070            ___lldiv@divisor 0026  
       __end_ofi1___xxtofl 2000            ___lldiv@counter 0033             __tdiv_to_l_@f1 0026  
           __tdiv_to_l_@f2 002A              ??__tdiv_to_l_ 002E                  _PORTDbits 0008  
              ___fladd@grs 00B3              ___xxtofl@sign 002E                  i1___awdiv 1CB5  
              ___fldiv@grs 00A7                ___fldiv@rem 00A0                ___flmul@grs 0044  
           __end_of___flge 1E91             __end_of___fleq 1051             __end_of___wmul 1AF7  
           __end_of_fround 1316        start_initialization 0011        __end_of__tdiv_to_l_ 1F48  
              __end_of_isr 1CB5                 ?i1___awdiv 0070            ___llmod@divisor 0026  
          ___llmod@counter 002F                   ??___flge 002E                   ??___fleq 002E  
                 ??___wmul 002A                  __Umul8_16 1AF7                   ??_fround 0054  
            sprintf@tmpval 00D6                  ___fladd@a 00A4                  ___fladd@b 00A0  
               fround@prec 0063                  ___fldiv@a 0050                  ___fldiv@b 0054  
                ___flmul@a 003A                  ___flmul@b 0036                  ___flsub@a 00B4  
                ___flsub@b 00B8                  ___latbits 0002              __pcstackBANK0 0020  
            __pcstackBANK1 00A0              __pcstackBANK3 0190            i1___xxtofl@sign 0078  
              sprintf@flag 00CB                sprintf@eexp 00D3                sprintf@fval 00DA  
              sprintf@prec 00CD                   ?_InitLCD 0070           ___lwdiv@dividend 002E  
                 ?___fladd 00A0                   ?___fldiv 0050                   ?___awdiv 002D  
                 ?___flneg 0026                   ?___awmod 0026                   ?___flmul 0036  
                 ?___flsub 00B4                   ?___fltol 00A0                   ?___lldiv 0026  
                 ?___llmod 0026                  __npowers_ 183A                 ?__Umul8_16 0026  
                 ?___lwdiv 002C                   ?___lwmod 0026          i1___awdiv@divisor 0070  
        i1___awdiv@counter 0075                  __pstrings 1800                __tdiv_to_l_ 1E91  
             ??__div_to_l_ 002E           ??_WriteDataToLCD 0027                ??i1___awdiv 0074  
         ___lwdiv@quotient 0031                   ?_sprintf 00BC          interrupt_function 0004  
           ___wmul@product 002A           _WriteStringToLCD 1A92                   _PIE1bits 008C  
                 _PIR1bits 000C         __end_of__div_to_l_ 1109                 _ADCON0bits 001F  
              __stringbase 1805                 _ADCON1bits 009F          ___wmul@multiplier 0026  
           _ClearLCDScreen 1A69          _WriteCommandToLCD 1A44         ?_WriteCommandToLCD 0070  
      ??_WriteCommandToLCD 0027                ??__Umul8_16 0028                _fround$1076 005F  
              _fround$1077 005B         __end_of__stringtab 1806                 sprintf@val 00CF  
                 ___xxtofl 089E            ___lwdiv@divisor 002C     __end_of_ClearLCDScreen 1A7B  
          ___lwdiv@counter 0033                   __ptext10 1E91                   __ptext11 1051  
                 __ptext20 1DED                   __ptext12 089E                   __ptext21 1001  
                 __ptext13 1AD0                   __ptext30 1C50                   __ptext22 1B20  
                 __ptext14 1B9F                   __ptext31 1F48                   __ptext23 156E  
                 __ptext15 1D1C                   __ptext32 1CB5                   __ptext24 1A92  
                 __ptext16 0826                   __ptext25 1A50                   __ptext17 0802  
                 __ptext26 1AAD                   __ptext18 1316                   __ptext27 1A69  
                 __ptext19 1A5C                   __ptext28 1A44                   __ptext29 1A7B  
                 __powers_ 1806  __end_of_WriteCommandToLCD 1A50          ??_ToggleEpinOfLCD 0026  
               _INTCONbits 000B            ?_ClearLCDScreen 0070                   scale@scl 0062  
                 intlevel1 0000                  sprintf@ap 00CA           __tdiv_to_l_@exp1 0036  
         __tdiv_to_l_@cntr 0035                  sprintf@sp 00D5           __tdiv_to_l_@quot 0031  
         ___lwmod@dividend 0028           ___lldiv@dividend 002A                  stringcode 1800  
               _OSCCONbits 008F               ?__tdiv_to_l_ 0026     __Umul8_16@multiplicand 0026  
                 sprintf@c 00DE                   sprintf@f 00BC   __end_of_WriteStringToLCD 1AAD  
         ___lldiv@quotient 002F            ___lwmod@divisor 0026            ___lwmod@counter 002B  
                 stringdir 1800                   stringtab 1800              ___fladd@signs 00B0  
             ___fladd@aexp 00B1               ___fladd@bexp 00B2       __Umul8_16@multiplier 002E  
        __Umul8_16@product 002A  
